 SerialIo

 Timestamp is 6448e7f3 (Wed Apr 26 16:59:31 2023)

 Preferred load address is 0000000000000000

 Start         Length     Name                   Class
 0001:00000000 00002db0H .text                   CODE
 0002:00000000 00000730H .data                   DATA
 0002:00000730 000001deH .rdata                  DATA
 0002:00000910 00000080H .bss                    DATA
 0003:00000000 00000138H .pdata                  DATA
 0004:00000000 00000168H .xdata                  DATA

  Address         Publics by Value              Rva+Base               Lib:Object

 0000:00000000       __ImageBase                0000000000000000     <linker-defined>
 0001:00000000       _ModuleEntryPoint          00000000000002a0 f   UefiDriverEntryPoint:DriverEntryPoint.obj
 0001:000000ac       SerialIoGetDriverName      000000000000034c f   SerialIo:SerialIo.obj
 0001:000000fc       SerialIoGetControllerName  000000000000039c f   SerialIo:SerialIo.obj
 0001:00000198       SerialIoSupported          0000000000000438 f   SerialIo:SerialIo.obj
 0001:0000057c       SerialIoStart              000000000000081c f   SerialIo:SerialIo.obj
 0001:00000f68       SerialIoStop               0000000000001208 f   SerialIo:SerialIo.obj
 0001:000010f0       EfiSerialReset             0000000000001390 f   SerialIo:SerialIo.obj
 0001:00001270       EfiSerialSetAttributes     0000000000001510 f   SerialIo:SerialIo.obj
 0001:00001610       EfiSerialSetControl        00000000000018b0 f   SerialIo:SerialIo.obj
 0001:000016ac       EfiSerialGetControl        000000000000194c f   SerialIo:SerialIo.obj
 0001:00001754       EfiSerialWrite             00000000000019f4 f   SerialIo:SerialIo.obj
 0001:00001afc       EfiSerialRead              0000000000001d9c f   SerialIo:SerialIo.obj
 0001:00001d1c       SerialReadPort             0000000000001fbc f   SerialIo:SerialIo.obj
 0001:00001e6c       SerialWritePort            000000000000210c f   SerialIo:SerialIo.obj
 0001:00001fa8       GetSerialIo_DP             0000000000002248 f   SerialIo:SerialIo.obj
 0001:0000207c       EnableFifoBuffers          000000000000231c f   SerialIo:SerialIo.obj
 0001:000020e0       CheckForLoopbackDevice     0000000000002380 f   SerialIo:SerialIo.obj
 0001:000022f4       CheckThreBit               0000000000002594 f   SerialIo:SerialIo.obj
 0001:0000235c       Malloc                     00000000000025fc f   AmiDxeLib:EfiLib.obj
 0001:00002388       MallocZ                    0000000000002628 f   AmiDxeLib:EfiLib.obj
 0001:000023c8       DPLength                   0000000000002668 f   AmiDxeLib:EfiLib.obj
 0001:0000240c       DPAddNode                  00000000000026ac f   AmiDxeLib:EfiLib.obj
 0001:000024e4       DPCopy                     0000000000002784 f   AmiDxeLib:EfiLib.obj
 0001:0000252c       LanguageCodesEqual         00000000000027cc f   AmiDxeLib:EfiLib.obj
 0001:00002590       ItoaHelper                 0000000000002830 f   AmiDxeLib:StdLibC.obj
 0001:00002604       StrtolEx                   00000000000028a4 f   AmiDxeLib:StdLibC.obj
 0001:000026cc       GetStatusCodeString        000000000000296c f   AmiDxeLib:StdLibC.obj
 0001:000027b4       Swprintf                   0000000000002a54 f   AmiDxeLib:StdLibC.obj
 0001:000027dc       Swprintf_s_va_list         0000000000002a7c f   AmiDxeLib:StdLibC.obj
 0001:00002c30       Swprintf_s                 0000000000002ed0 f   AmiDxeLib:StdLibC.obj
 0001:00002c50       GetCpuTimer                0000000000002ef0 f   AmiDxeLib:GetCpuTimer.obj
 0001:00002c60       CPULib_CpuID               0000000000002f00 f   AmiDxeLib:CpuLib_CpuId.obj
 0001:00002ca0       memset                     0000000000002f40     AmiDxeLib:MemSet.obj
 0001:00002cae       MemSetAsm                  0000000000002f4e f   AmiDxeLib:MemSet.obj
 0001:00002d00       MemCpyAsm                  0000000000002fa0 f   AmiDxeLib:MemCpy.obj
 0001:00002d00       memcpy                     0000000000002fa0     AmiDxeLib:MemCpy.obj
 0002:00000000       gEfiAmiSioProtocolGuid     0000000000003060     SerialIo:AutoGen.obj
 0002:00000010       gEfiComponentName2ProtocolGuid 0000000000003070     SerialIo:AutoGen.obj
 0002:00000020       gEfiSerialIoProtocolGuid   0000000000003080     SerialIo:AutoGen.obj
 0002:00000030       gEfiDriverBindingProtocolGuid 0000000000003090     SerialIo:AutoGen.obj
 0002:00000040       gEfiPciIoProtocolGuid      00000000000030a0     SerialIo:AutoGen.obj
 0002:00000050       gAmiSerialProtocolGuid     00000000000030b0     SerialIo:AutoGen.obj
 0002:00000060       gEfiDevicePathProtocolGuid 00000000000030c0     SerialIo:AutoGen.obj
 0002:0000008e       UartDefaultDataBits        00000000000030ee     SerialIo:SerialIo.obj
 0002:0000008f       SerialIo_PciSerialSupport  00000000000030ef     SerialIo:SerialIo.obj
 0002:00000090       EfiErrorStatus             00000000000030f0     AmiDxeLib:StdLibC.obj
 0002:000003c9       MaxFailuresAllowed         0000000000003429     SerialIo:SerialIo.obj
 0002:000003ca       SerialWriteErrorCheck      000000000000342a     SerialIo:SerialIo.obj
 0002:000003d0       PiErrorStatus              0000000000003430     AmiDxeLib:StdLibC.obj
 0002:00000420       AmiErrorStatus             0000000000003480     AmiDxeLib:StdLibC.obj
 0002:00000460       EfiWarningStatus           00000000000034c0     AmiDxeLib:StdLibC.obj
 0002:000004d0       PiWarningStatus            0000000000003530     AmiDxeLib:StdLibC.obj
 0002:00000518       EfiUnknown                 0000000000003578     AmiDxeLib:StdLibC.obj
 0002:000005e0       gPciDeviceUartClockAndWidth 0000000000003640     SerialIo:SerialIo.obj
 0002:000005f0       UartDefaultBaudRate        0000000000003650     SerialIo:SerialIo.obj
 0002:000005f4       UartDefaultParity          0000000000003654     SerialIo:SerialIo.obj
 0002:000005f8       UartDefaultStopBits        0000000000003658     SerialIo:SerialIo.obj
 0002:000005fc       MaximumSerialWriteErrorCount 000000000000365c     SerialIo:SerialIo.obj
 0002:00000600       gExampleUartDevicePath     0000000000003660     SerialIo:SerialIo.obj
 0002:00000618       gExampleUartFlowControlDevicePath 0000000000003678     SerialIo:SerialIo.obj
 0002:00000630       gSerialIoDriverBinding     0000000000003690     SerialIo:SerialIo.obj
 0002:00000660       gSerialIoDriverName        00000000000036c0     SerialIo:SerialIo.obj
 0002:00000668       SupportedLanguages         00000000000036c8     SerialIo:SerialIo.obj
 0002:00000670       gSerialIoName              00000000000036d0     SerialIo:SerialIo.obj
 0002:000006c0       gSerialIoCtlName           0000000000003720     SerialIo:SerialIo.obj
 0002:00000730       _gUefiDriverRevision       0000000000003790     SerialIo:AutoGen.obj
 0002:00000738       ??_C@_1M@CBPDPLCI@?$AAC?$AAO?$AAM?$AA1?$AA0?$AA?$AA@ 0000000000003798     SerialIo:SerialIo.obj
 0002:00000748       ??_C@_19KHKAFFPC@?$AAC?$AAO?$AAM?$AA9?$AA?$AA@ 00000000000037a8     SerialIo:SerialIo.obj
 0002:00000758       ??_C@_19BPBMDCJH@?$AAC?$AAO?$AAM?$AA8?$AA?$AA@ 00000000000037b8     SerialIo:SerialIo.obj
 0002:00000768       ??_C@_19EHHPCCMB@?$AAC?$AAO?$AAM?$AA7?$AA?$AA@ 00000000000037c8     SerialIo:SerialIo.obj
 0002:00000778       ??_C@_19PPMDEFKE@?$AAC?$AAO?$AAM?$AA6?$AA?$AA@ 00000000000037d8     SerialIo:SerialIo.obj
 0002:00000788       ??_C@_19ONHGOKEK@?$AAC?$AAO?$AAM?$AA5?$AA?$AA@ 00000000000037e8     SerialIo:SerialIo.obj
 0002:00000798       ??_C@_19FFMKINCP@?$AAC?$AAO?$AAM?$AA4?$AA?$AA@ 00000000000037f8     SerialIo:SerialIo.obj
 0002:000007a8       ??_C@_19MIBNLFJG@?$AAC?$AAO?$AAM?$AA3?$AA?$AA@ 0000000000003808     SerialIo:SerialIo.obj
 0002:000007b8       ??_C@_19HAKBNCPD@?$AAC?$AAO?$AAM?$AA2?$AA?$AA@ 0000000000003818     SerialIo:SerialIo.obj
 0002:000007c8       ??_C@_19GCBEHNBN@?$AAC?$AAO?$AAM?$AA1?$AA?$AA@ 0000000000003828     SerialIo:SerialIo.obj
 0002:000007d8       ??_C@_1CM@BMABILAL@?$AAA?$AAM?$AAI?$AA?5?$AAS?$AAe?$AAr?$AAi?$AAa?$AAl?$AA?5?$AAI?$AA?1?$AAO?$AA?5?$AAD?$AAr?$AAi?$AAv?$AAe?$AAr?$AA?$AA@ 0000000000003838     SerialIo:SerialIo.obj
 0002:00000810       ??_C@_1EA@DJACGLBE@?$AAC?$AAO?$AAM?$AA?5?$AA?$CI?$AAP?$AAc?$AAi?$AA?5?$AAD?$AAe?$AAv?$AA?$CF?$AAX?$AA?0?$AA?5?$AAF?$AAu?$AAn?$AAc?$AA?$CF?$AAX?$AA?0?$AA?5?$AAP?$AAo?$AAr?$AAt?$AA?$CF?$AAX?$AA?$CJ?$AA?$AA@ 0000000000003870     SerialIo:SerialIo.obj
 0002:00000850       ??_C@_1DA@CECBNGEN@?$AAC?$AAO?$AAM?$AA?5?$AA?$CI?$AAP?$AAc?$AAi?$AA?5?$AAD?$AAe?$AAv?$AA?$CF?$AAX?$AA?0?$AA?5?$AAF?$AAu?$AAn?$AAc?$AA?$CF?$AAX?$AA?$CJ?$AA?$AA@ 00000000000038b0     SerialIo:SerialIo.obj
 0002:00000880       ??_C@_0M@LCCONGAO@EFI_SUCCESS?$AA@ 00000000000038e0     AmiDxeLib:StdLibC.obj
 0002:00000890       ??_C@_1GC@MIJCAPDC@?$AA?$CF?$AA0?$AA8?$AAx?$AA?9?$AA?$CF?$AA0?$AA4?$AAx?$AA?9?$AA?$CF?$AA0?$AA4?$AAx?$AA?9?$AA?$CF?$AA0?$AA2?$AAx?$AA?$CF?$AA0?$AA2?$AAx?$AA?9?$AA?$CF?$AA0?$AA2?$AAx?$AA?$CF?$AA0?$AA2?$AAx@ 00000000000038f0     AmiDxeLib:StdLibC.obj
 0002:000008f8       ??_C@_1O@PMJNFNEJ@?$AA?$CF?$AAS?$AA?$CI?$AA?$CF?$AAX?$AA?$CJ?$AA?$AA@ 0000000000003958     AmiDxeLib:StdLibC.obj
 0002:00000908       ??_C@_15MAOEGKJF@?$AA?$CF?$AAS?$AA?$AA@ 0000000000003968     AmiDxeLib:StdLibC.obj
 0002:00000910       SerialMouseDetection       0000000000003970     SerialIo:SerialIo.obj
 0002:00000918       gImageHandle               0000000000003978     UefiBootServicesTableLib:UefiBootServicesTableLib.obj
 0002:00000920       gST                        0000000000003980     UefiBootServicesTableLib:UefiBootServicesTableLib.obj
 0002:00000928       gBS                        0000000000003988     UefiBootServicesTableLib:UefiBootServicesTableLib.obj
 0002:00000970       pST                        00000000000039d0     AmiDxeLib:EfiLib.obj
 0002:00000978       pBS                        00000000000039d8     AmiDxeLib:EfiLib.obj
 0002:00000980       pRS                        00000000000039e0     AmiDxeLib:EfiLib.obj
 0002:00000988       TheImageHandle             00000000000039e8     AmiDxeLib:EfiLib.obj

 entry point at        0001:00000000

 Static symbols

