 StatusCodePei

 Timestamp is 6448e7d0 (Wed Apr 26 16:58:56 2023)

 Preferred load address is 00000000

 Start         Length     Name                   Class
 0001:00000000 0000215dH .text                   CODE
 0002:00000000 00000888H .data                   DATA
 0002:00000888 000005b2H .rdata                  DATA
 0002:00000e3c 00000020H .bss                    DATA

  Address         Publics by Value              Rva+Base       Lib:Object

 0001:00000000       __ModuleEntryPoint         00000240 f   PeimEntryPoint:PeimEntryPoint.obj
 0001:00000070       _CreateRscHandlerCallbackPacket 000002b0 f   StatusCodePei:StatusCodePei.obj
 0001:000000b3       _PpiUnregister             000002f3 f   StatusCodePei:StatusCodePei.obj
 0001:00000115       _PpiRegister               00000355 f   StatusCodePei:StatusCodePei.obj
 0001:00000197       _ReportStatusCodePei       000003d7 f   StatusCodePei:StatusCodePei.obj
 0001:0000020f       _DebugPrintHelper          0000044f f   StatusCodePei:StatusCodePei.obj
 0001:0000028f       _DebugAssertHelper         000004cf f   StatusCodePei:StatusCodePei.obj
 0001:0000030f       _ReportAssertString        0000054f f   StatusCodePei:StatusCodeCommon.obj
 0001:00000342       _ReportData                00000582 f   StatusCodePei:StatusCodeCommon.obj
 0001:000003a6       _CreateString              000005e6 f   StatusCodePei:StatusCodeCommon.obj
 0001:000004d9       _SerialOutput              00000719 f   StatusCodePei:StatusCodeCommon.obj
 0001:00000532       _SerialStatusInit          00000772 f   StatusCodePei:StatusCodeCommon.obj
 0001:0000053a       _StringStatusReport        0000077a f   StatusCodePei:StatusCodeCommon.obj
 0001:0000055e       _NullDebugServiceAssertGate 0000079e f   StatusCodePei:StatusCodeCommon.obj
 0001:0000055e       _NullDebugServicePrintGate 0000079e f   StatusCodePei:StatusCodeCommon.obj
 0001:00000561       _AmiReportStatusCode       000007a1 f   StatusCodePei:StatusCodeCommon.obj
 0001:0000060e       _Port80Checkpoint          0000084e f   StatusCodePei:StatusCodeCommon.obj
 0001:00000615       _CheckPointStatus          00000855 f   StatusCodePei:StatusCodeCommon.obj
 0001:0000066c       _BeepStatus                000008ac f   StatusCodePei:StatusCodeCommon.obj
 0001:000006c9       _BeepService               00000909 f   StatusCodePei:StatusCodeCommon.obj
 0001:00000700       _GetPeiServicesTablePointer 00000940 f   PeiServicesTablePointerLibIdt:PeiServicesTablePointer.obj
 0001:0000071a       _GetHobList                0000095a f   PeiHobLib:HobLib.obj
 0001:00000734       _GetNextHob                00000974 f   PeiHobLib:HobLib.obj
 0001:00000761       _GetFirstGuidHob           000009a1 f   PeiHobLib:HobLib.obj
 0001:00000791       _FindNextHobByType         000009d1 f   AmiPeiLib:Misc.obj
 0001:000007ce       _FindNextHobByGuid         00000a0e f   AmiPeiLib:Misc.obj
 0001:0000080e       _MemCmp                    00000a4e f   AmiPeiLib:Memory.obj
 0001:00000869       _ItoaHelper                00000aa9 f   AmiPeiLib:StdLibC.obj
 0001:00000928       _ItoaEx                    00000b68 f   AmiPeiLib:StdLibC.obj
 0001:0000095a       _StrtolEx                  00000b9a f   AmiPeiLib:StdLibC.obj
 0001:000009fe       _Strupr                    00000c3e f   AmiPeiLib:StdLibC.obj
 0001:00000a1d       _GetStatusCodeString       00000c5d f   AmiPeiLib:StdLibC.obj
 0001:00000aa0       _Sprintf_s_va_list         00000ce0 f   AmiPeiLib:StdLibC.obj
 0001:00000d7a       _Sprintf_s                 00000fba f   AmiPeiLib:StdLibC.obj
 0001:00000d97       _SerialPortInitialize      00000fd7 f   BaseSerialPortLib16550Override:BaseSerialPortLib16550.obj
 0001:00000e9c       _SerialPortWrite           000010dc f   BaseSerialPortLib16550Override:BaseSerialPortLib16550.obj
 0001:00000f14       _AsciiSPrint               00001154 f   BasePrintLib:PrintLib.obj
 0001:00000f32       _BasePrintLibFillBuffer    00001172 f   BasePrintLib:PrintLibInternal.obj
 0001:00000f5e       _BasePrintLibValueToString 0000119e f   BasePrintLib:PrintLibInternal.obj
 0001:00000fa2       _BasePrintLibSPrintMarker  000011e2 f   BasePrintLib:PrintLibInternal.obj
 0001:00001941       _BasePrintLibSPrint        00001b81 f   BasePrintLib:PrintLibInternal.obj
 0001:000019c5       _MicroSecondDelay          00001c05 f   AcpiTimerLib:AcpiTimerLib.obj
 0001:000019e4       _MultU64x32                00001c24 f   BaseLib:MultU64x32.obj
 0001:000019fe       _DivU64x32                 00001c3e f   BaseLib:DivU64x32.obj
 0001:00001a1b       _RShiftU64                 00001c5b f   BaseLib:RShiftU64.obj
 0001:00001a3f       _LShiftU64                 00001c7f f   BaseLib:LShiftU64.obj
 0001:00001a68       _CompareGuid               00001ca8 f   BaseMemoryLibRepStr:MemLibGuid.obj
 0001:00001a99       _AmiSioLibSetLpcGenericDecoding 00001cd9 f   AmiIoDecodeLib:AmiIoDecodeLib.obj
 0001:00001b5d       _AmiSioLibSetLpcDeviceDecoding 00001d9d f   AmiIoDecodeLib:AmiIoDecodeLib.obj
 0001:00001e43       _PciCf8Read16              00002083 f   BasePciCf8Lib:PciCf8Lib.obj
 0001:00001e9b       _PciCf8Write16             000020db f   BasePciCf8Lib:PciCf8Lib.obj
 0001:00001ef8       _PciCf8Read32              00002138 f   BasePciCf8Lib:PciCf8Lib.obj
 0001:00001f3f       _PciCf8Write32             0000217f f   BasePciCf8Lib:PciCf8Lib.obj
 0001:00001f90       _memset                    000021d0     AmiPeiLib:MemSet.obj
 0001:00001f9a       _MemSetAsm                 000021da f   AmiPeiLib:MemSet.obj
 0001:00001ff0       _MemCpyAsm                 00002230 f   AmiPeiLib:MemCpy.obj
 0001:00001ff0       _memcpy                    00002230     AmiPeiLib:MemCpy.obj
 0001:00001ff0       _MemCpy32                  00002230     AmiPeiLib:MemCpy.obj
 0001:00002090       _EnableLongMode            000022d0 f   AmiPeiLib:EnableLongMode.obj
 0001:00002100       _InternalMemCopyMem        00002340     BaseMemoryLibRepStr:CopyMem.obj
 0001:00002140       _InternalMemZeroMem        00002380     BaseMemoryLibRepStr:ZeroMem.obj
 0002:00000000       _gStatusCodeCallbackGuid   000023a0     StatusCodePei:AutoGen.obj
 0002:00000010       _gEfiStatusCodeSpecificDataGuid 000023b0     StatusCodePei:AutoGen.obj
 0002:00000020       _gEfiStatusCodeDataTypeStringGuid 000023c0     StatusCodePei:AutoGen.obj
 0002:00000030       _gEfiStatusCodeDataTypeDebugGuid 000023d0     StatusCodePei:AutoGen.obj
 0002:00000040       _gEfiPeiRscHandlerPpiGuid  000023e0     StatusCodePei:AutoGen.obj
 0002:00000050       _gEfiPeiStatusCodePpiGuid  000023f0     StatusCodePei:AutoGen.obj
 0002:00000060       _gAmiDebugServicePpiGuid   00002400     StatusCodePei:AutoGen.obj
 0002:00000070       _NCT6683DSerialPortDebugDecodeTable 00002410     NCT6683DPlatformHookSerialPortLib:NCT6683DPlatformHookSerialPortLib.obj
 0002:00000080       _NCT6683DSerialPortDebugInitTable 00002420     NCT6683DPlatformHookSerialPortLib:NCT6683DPlatformHookSerialPortLib.obj
 0002:000000bc       _AmiErrorStatus            0000245c     AmiPeiLib:StdLibC.obj
 0002:000000f0       _EfiErrorStatus            00002490     AmiPeiLib:StdLibC.obj
 0002:00000430       _PiErrorStatus             000027d0     AmiPeiLib:StdLibC.obj
 0002:00000480       _EfiWarningStatus          00002820     AmiPeiLib:StdLibC.obj
 0002:000004e8       _PiWarningStatus           00002888     AmiPeiLib:StdLibC.obj
 0002:00000530       _EfiUnknown                000028d0     AmiPeiLib:StdLibC.obj
 0002:00000540       _ProgressCheckpointMap     000028e0     StatusCodePei:StatusCodeMapPei.obj
 0002:00000630       _ErrorCheckpointMap        000029d0     StatusCodePei:StatusCodeMapPei.obj
 0002:00000708       _ProgressBeepMap           00002aa8     StatusCodePei:StatusCodeMapPei.obj
 0002:00000718       _ErrorBeepMap              00002ab8     StatusCodePei:StatusCodeMapPei.obj
 0002:00000768       _CheckPointStatusCodes     00002b08     StatusCodePei:StatusCodeCommon.obj
 0002:00000770       _BeepStatusCodes           00002b10     StatusCodePei:StatusCodeCommon.obj
 0002:00000778       _StringMaxSize             00002b18     StatusCodePei:StatusCodePei.obj
 0002:0000077c       _InitPartsList             00002b1c     StatusCodePei:StatusCodePei.obj
 0002:00000784       _StringList                00002b24     StatusCodePei:StatusCodePei.obj
 0002:0000078c       _SimpleList                00002b2c     StatusCodePei:StatusCodePei.obj
 0002:00000798       _MiscList                  00002b38     StatusCodePei:StatusCodePei.obj
 0002:000007a0       _CheckpointList            00002b40     StatusCodePei:StatusCodePei.obj
 0002:000007a8       _DebugServicePrintGate     00002b48     StatusCodePei:StatusCodePei.obj
 0002:000007ac       _DebugServiceAssertGate    00002b4c     StatusCodePei:StatusCodePei.obj
 0002:000007b0       _ErrorMessage              00002b50     StatusCodePei:StatusCodePei.obj
 0002:00000848       _RscHandlerPpi             00002be8     StatusCodePei:StatusCodePei.obj
 0002:00000850       _RscHandlerPpiDescriptor   00002bf0     StatusCodePei:StatusCodePei.obj
 0002:00000864       _PeiDebugPpiDescriptor     00002c04     StatusCodePei:StatusCodePei.obj
 0002:00000870       _StatusCodePpi             00002c10     StatusCodePei:StatusCodePei.obj
 0002:00000874       _StatusCodePpiDescriptor   00002c14     StatusCodePei:StatusCodePei.obj
 0002:00000880       __gPcd_BinaryPatch_PcdSerialRegisterBase 00002c20     StatusCodePei:AutoGen.obj
 0002:00000888       ??_C@_0BL@DBGGIPGN@Reset?5PPI?5is?5not?5available?$AA@ 00002c28     StatusCodePei:StatusCodePei.obj
 0002:000008a4       ??_C@_0BD@CAJABIEM@DXE?5Core?5not?5found?$AA@ 00002c44     StatusCodePei:StatusCodePei.obj
 0002:000008b8       ??_C@_0BC@HNBBLDGL@DXE?5IPL?5not?5found?$AA@ 00002c58     StatusCodePei:StatusCodePei.obj
 0002:000008cc       ??_C@_0BA@EBJHPADN@S3?5resume?5error?$AA@ 00002c6c     StatusCodePei:StatusCodePei.obj
 0002:000008dc       ??_C@_0BB@GGGLFIGL@S3?5OS?5Wake?5error?$AA@ 00002c7c     StatusCodePei:StatusCodePei.obj
 0002:000008f0       ??_C@_0BP@GBPOIEH@S3?5boot?5script?5execution?5error?$AA@ 00002c90     StatusCodePei:StatusCodePei.obj
 0002:00000910       ??_C@_0BJ@EBDLIPJF@Invalid?5recovery?5capsule?$AA@ 00002cb0     StatusCodePei:StatusCodePei.obj
 0002:0000092c       ??_C@_0BL@PEAFGEFC@Recovery?5capsule?5not?5found?$AA@ 00002ccc     StatusCodePei:StatusCodePei.obj
 0002:00000948       ??_C@_0BB@PBPOKDGC@S3?5resume?5failed?$AA@ 00002ce8     StatusCodePei:StatusCodePei.obj
 0002:0000095c       ??_C@_0BI@NHMLDIPC@S3?5Resume?5PPI?5not?5found?$AA@ 00002cfc     StatusCodePei:StatusCodePei.obj
 0002:00000974       ??_C@_0BA@MIJEAEIA@Recovery?5failed?$AA@ 00002d14     StatusCodePei:StatusCodePei.obj
 0002:00000984       ??_C@_0BH@IOIEFDIF@Recovery?5PPI?5not?5found?$AA@ 00002d24     StatusCodePei:StatusCodePei.obj
 0002:0000099c       ??_C@_09INEOHMFK@CPU?5error?$AA@ 00002d3c     StatusCodePei:StatusCodePei.obj
 0002:000009a8       ??_C@_0BD@BMPINDFD@Internal?5CPU?5error?$AA@ 00002d48     StatusCodePei:StatusCodePei.obj
 0002:000009bc       ??_C@_0N@MGIMCOCE@No?5Microcode?$AA@ 00002d5c     StatusCodePei:StatusCodePei.obj
 0002:000009cc       ??_C@_0BF@KDDJKLNM@CPU?5self?5test?5failed?$AA@ 00002d6c     StatusCodePei:StatusCodePei.obj
 0002:000009e4       ??_C@_0BH@FGMABPPJ@Memory?5installed?5twice?$AA@ 00002d84     StatusCodePei:StatusCodePei.obj
 0002:000009fc       ??_C@_0BF@HMKPDMDL@Memory?5not?5installed?$AA@ 00002d9c     StatusCodePei:StatusCodePei.obj
 0002:00000a14       ??_C@_0L@NGODPBLK@ERROR?3?5?$CFa?6?$AA@ 00002db4     StatusCodePei:StatusCodePei.obj
 0002:00000a20       ??_C@_0BI@PEEPINON@ASSERT?5in?5?$CFs?5on?5?$CFi?3?5?$CFs?6?$AA@ 00002dc0     StatusCodePei:StatusCodeCommon.obj
 0002:00000a38       ??_C@_0CN@KEDECEKD@ERROR?3?5Class?3?$CFX?$DL?5Subclass?3?$CFX?$DL?5Op@ 00002dd8     StatusCodePei:StatusCodeCommon.obj
 0002:00000a68       ??_C@_02PCIJFNDE@?$AN?6?$AA@ 00002e08     StatusCodePei:StatusCodeCommon.obj
 0002:00000a6c       ??_C@_0BD@OMEPNDED@ASSERT?5?$CFa?$CI?$CFd?$CJ?3?5?$CFa?6?$AA@ 00002e0c     StatusCodePei:StatusCodeCommon.obj
 0002:00000a80       ??_C@_0M@LCCONGAO@EFI_SUCCESS?$AA@ 00002e20     AmiPeiLib:StdLibC.obj
 0002:00000a8c       ??_C@_0DB@PMLHLBMO@?$CF08x?9?$CF04x?9?$CF04x?9?$CF02x?$CF02x?9?$CF02x?$CF02x@ 00002e2c     AmiPeiLib:StdLibC.obj
 0002:00000ac0       ??_C@_06DCBEJCPP@?$CFs?$CI?$CFX?$CJ?$AA@ 00002e60     AmiPeiLib:StdLibC.obj
 0002:00000ac8       ??_C@_02DKCKIIND@?$CFs?$AA@ 00002e68     AmiPeiLib:StdLibC.obj
 0002:00000acc       ??_C@_0BB@MFGDFIJM@Compromised?5Data?$AA@ 00002e6c     BasePrintLib:PrintLibInternal.obj
 0002:00000ae0       ??_C@_0BB@KFJAMCOC@Invalid?5Language?$AA@ 00002e80     BasePrintLib:PrintLibInternal.obj
 0002:00000af4       ??_C@_0M@FKGOBENP@End?5of?5File?$AA@ 00002e94     BasePrintLib:PrintLibInternal.obj
 0002:00000b00       ??_C@_0O@GLPDOMCP@Reserved?5?$CI30?$CJ?$AA@ 00002ea0     BasePrintLib:PrintLibInternal.obj
 0002:00000b10       ??_C@_0O@NMJOLAMF@Reserved?5?$CI29?$CJ?$AA@ 00002eb0     BasePrintLib:PrintLibInternal.obj
 0002:00000b20       ??_C@_0N@JEJDHPO@End?5of?5Media?$AA@ 00002ec0     BasePrintLib:PrintLibInternal.obj
 0002:00000b30       ??_C@_09BOMAGJEG@CRC?5Error?$AA@ 00002ed0     BasePrintLib:PrintLibInternal.obj
 0002:00000b3c       ??_C@_0BD@KHMPCIOG@Security?5Violation?$AA@ 00002edc     BasePrintLib:PrintLibInternal.obj
 0002:00000b50       ??_C@_0BF@EHOBGFMI@Incompatible?5Version?$AA@ 00002ef0     BasePrintLib:PrintLibInternal.obj
 0002:00000b68       ??_C@_0P@NCJHBCLM@Protocol?5Error?$AA@ 00002f08     BasePrintLib:PrintLibInternal.obj
 0002:00000b78       ??_C@_0L@DJKNJKHM@TFTP?5Error?$AA@ 00002f18     BasePrintLib:PrintLibInternal.obj
 0002:00000b84       ??_C@_0L@LKIFCMNO@ICMP?5Error?$AA@ 00002f24     BasePrintLib:PrintLibInternal.obj
 0002:00000b90       ??_C@_07LCKDCBKK@Aborted?$AA@ 00002f30     BasePrintLib:PrintLibInternal.obj
 0002:00000b98       ??_C@_0BA@IGIBFFPH@Already?5started?$AA@ 00002f38     BasePrintLib:PrintLibInternal.obj
 0002:00000ba8       ??_C@_0M@DCJFAFHJ@Not?5started?$AA@ 00002f48     BasePrintLib:PrintLibInternal.obj
 0002:00000bb4       ??_C@_08PAFJCNGP@Time?5out?$AA@ 00002f54     BasePrintLib:PrintLibInternal.obj
 0002:00000bc0       ??_C@_0L@IFPBNFC@No?5mapping?$AA@ 00002f60     BasePrintLib:PrintLibInternal.obj
 0002:00000bcc       ??_C@_0M@ENKCBFEP@No?5Response?$AA@ 00002f6c     BasePrintLib:PrintLibInternal.obj
 0002:00000bd8       ??_C@_0O@NFHOBIDO@Access?5Denied?$AA@ 00002f78     BasePrintLib:PrintLibInternal.obj
 0002:00000be8       ??_C@_09CFCBFJND@Not?5Found?$AA@ 00002f88     BasePrintLib:PrintLibInternal.obj
 0002:00000bf4       ??_C@_0O@JNCJKCCD@Media?5changed?$AA@ 00002f94     BasePrintLib:PrintLibInternal.obj
 0002:00000c04       ??_C@_08KEGAJDNN@No?5Media?$AA@ 00002fa4     BasePrintLib:PrintLibInternal.obj
 0002:00000c10       ??_C@_0M@HDLEPOFA@Volume?5Full?$AA@ 00002fb0     BasePrintLib:PrintLibInternal.obj
 0002:00000c1c       ??_C@_0P@EIOJGIF@Volume?5Corrupt?$AA@ 00002fbc     BasePrintLib:PrintLibInternal.obj
 0002:00000c2c       ??_C@_0BB@GOILNEAA@Out?5of?5Resources?$AA@ 00002fcc     BasePrintLib:PrintLibInternal.obj
 0002:00000c40       ??_C@_0BA@LNEDDFNB@Write?5Protected?$AA@ 00002fe0     BasePrintLib:PrintLibInternal.obj
 0002:00000c50       ??_C@_0N@HHEABDHO@Device?5Error?$AA@ 00002ff0     BasePrintLib:PrintLibInternal.obj
 0002:00000c60       ??_C@_09NKFGCIPN@Not?5Ready?$AA@ 00003000     BasePrintLib:PrintLibInternal.obj
 0002:00000c6c       ??_C@_0BB@EGELJFOB@Buffer?5Too?5Small?$AA@ 0000300c     BasePrintLib:PrintLibInternal.obj
 0002:00000c80       ??_C@_0BA@FLNMPMCF@Bad?5Buffer?5Size?$AA@ 00003020     BasePrintLib:PrintLibInternal.obj
 0002:00000c90       ??_C@_0M@BEECMOIL@Unsupported?$AA@ 00003030     BasePrintLib:PrintLibInternal.obj
 0002:00000c9c       ??_C@_0BC@HOFHKGJN@Invalid?5Parameter?$AA@ 0000303c     BasePrintLib:PrintLibInternal.obj
 0002:00000cb0       ??_C@_0L@PLPBEPPC@Load?5Error?$AA@ 00003050     BasePrintLib:PrintLibInternal.obj
 0002:00000cbc       ??_C@_0BD@IFJNJCCO@Warning?5Stale?5Data?$AA@ 0000305c     BasePrintLib:PrintLibInternal.obj
 0002:00000cd0       ??_C@_0BJ@ODIPDGHB@Warning?5Buffer?5Too?5Small?$AA@ 00003070     BasePrintLib:PrintLibInternal.obj
 0002:00000cec       ??_C@_0BG@ECIJMOED@Warning?5Write?5Failure?$AA@ 0000308c     BasePrintLib:PrintLibInternal.obj
 0002:00000d04       ??_C@_0BH@GKKCJEPJ@Warning?5Delete?5Failure?$AA@ 000030a4     BasePrintLib:PrintLibInternal.obj
 0002:00000d1c       ??_C@_0BG@CFJMNNJK@Warning?5Unknown?5Glyph?$AA@ 000030bc     BasePrintLib:PrintLibInternal.obj
 0002:00000d34       ??_C@_07PBILKAFL@Success?$AA@ 000030d4     BasePrintLib:PrintLibInternal.obj
 0002:00000d3c       _mHexStr                   000030dc     BasePrintLib:PrintLibInternal.obj
 0002:00000d50       _mStatusString             000030f0     BasePrintLib:PrintLibInternal.obj
 0002:00000dec       ??_C@_0O@MLOLIMFM@?$DMnull?5string?$DO?$AA@ 0000318c     BasePrintLib:PrintLibInternal.obj
 0002:00000dfc       ??_C@_0M@BJJDNPHK@?$DMnull?5guid?$DO?$AA@ 0000319c     BasePrintLib:PrintLibInternal.obj
 0002:00000e08       ??_C@_0M@LHGBCIKM@?$DMnull?5time?$DO?$AA@ 000031a8     BasePrintLib:PrintLibInternal.obj
 0002:00000e14       ??_C@_0BK@FCPKCIDD@?$CF02d?1?$CF02d?1?$CF04d?5?5?$CF02d?3?$CF02d?$AA@ 000031b4     BasePrintLib:PrintLibInternal.obj
 0002:00000e30       ??_C@_04JIMNDDED@?$CF08X?$AA@ 000031d0     BasePrintLib:PrintLibInternal.obj
 0002:00000e38       ??_C@_01LIIJDEN@?$AN?$AA@  000031d8     BasePrintLib:PrintLibInternal.obj
 0002:00000e3c       _DebugServicePrintList     000031dc     StatusCodePei:StatusCodePei.obj
 0002:00000e40       _DebugServiceAssertList    000031e0     StatusCodePei:StatusCodePei.obj
 0002:00000e44       _ErrorCodeActions          000031e4     StatusCodePei:StatusCodePei.obj
 0002:00000e4c       _StatusRuntime             000031ec     StatusCodePei:StatusCodeCommon.obj
 0002:00000e50       _RtErrorCodeActions        000031f0     StatusCodePei:StatusCodeCommon.obj
 0002:00000e58       _gNullVaList               000031f8     <common>

 entry point at        0001:00000000

 Static symbols

 0001:00001965       _InternalAcpiDelay         00001ba5 f    CIL library: CIL module
