; Listing generated by Microsoft (R) Optimizing Compiler Version 15.00.30729.207 

	TITLE	d:\bios\z124-002\z124-002\DenvertonPkg\SystemAgent\Mrc\Mmrc\ProjectIndependent\Source\MmrcLibraries.c
	.686P
	.XMM
	include listing.inc
	.model	flat

INCLUDELIB LIBCMT
INCLUDELIB OLDNAMES

PUBLIC	??_C@_07KDCFBPGD@Quimoda?$AA@			; `string'
PUBLIC	??_C@_05DKDJAHFD@Smart?$AA@			; `string'
PUBLIC	??_C@_08PLDEMPOA@Infineon?$AA@			; `string'
PUBLIC	??_C@_05CCONNHIC@Hynix?$AA@			; `string'
PUBLIC	??_C@_06IHFCNECC@Elpida?$AA@			; `string'
PUBLIC	??_C@_08KGDHKCKB@Kingston?$AA@			; `string'
PUBLIC	??_C@_09KJBDPADP@Transcend?$AA@			; `string'
PUBLIC	??_C@_07FCLJFOJN@Samsung?$AA@			; `string'
PUBLIC	??_C@_06MPOFMFBE@Micron?$AA@			; `string'
PUBLIC	_CacheTypePrefix
PUBLIC	_ManufacturerId
PUBLIC	_ManufacturerStringId
PUBLIC	_ResultsString
PUBLIC	_Samples
_DATA	SEGMENT
COMM	_CPGC_CONFIG_TYPES:DWORD
_DATA	ENDS
CONST	SEGMENT
_Samples DD	00H
	DD	0fffffff0H
	DD	0ffffffe0H
	DD	0ffffffd0H
	DD	0ffffffc0H
	DD	0ffffffb0H
	DD	0ffffffa0H
	DD	0ffffff90H
	DD	0ffffff80H
	DD	0ffffff70H
	DD	0ffffff60H
	DD	010H
	DD	020H
	DD	030H
	DD	040H
	DD	050H
	DD	060H
	DD	070H
	DD	080H
	DD	090H
	DD	0a0H
CONST	ENDS
;	COMDAT ??_C@_07KDCFBPGD@Quimoda?$AA@
CONST	SEGMENT
??_C@_07KDCFBPGD@Quimoda?$AA@ DB 'Quimoda', 00H		; `string'
CONST	ENDS
;	COMDAT ??_C@_05DKDJAHFD@Smart?$AA@
CONST	SEGMENT
??_C@_05DKDJAHFD@Smart?$AA@ DB 'Smart', 00H		; `string'
CONST	ENDS
;	COMDAT ??_C@_08PLDEMPOA@Infineon?$AA@
CONST	SEGMENT
??_C@_08PLDEMPOA@Infineon?$AA@ DB 'Infineon', 00H	; `string'
CONST	ENDS
;	COMDAT ??_C@_05CCONNHIC@Hynix?$AA@
CONST	SEGMENT
??_C@_05CCONNHIC@Hynix?$AA@ DB 'Hynix', 00H		; `string'
CONST	ENDS
;	COMDAT ??_C@_06IHFCNECC@Elpida?$AA@
CONST	SEGMENT
??_C@_06IHFCNECC@Elpida?$AA@ DB 'Elpida', 00H		; `string'
CONST	ENDS
;	COMDAT ??_C@_08KGDHKCKB@Kingston?$AA@
CONST	SEGMENT
??_C@_08KGDHKCKB@Kingston?$AA@ DB 'Kingston', 00H	; `string'
CONST	ENDS
;	COMDAT ??_C@_09KJBDPADP@Transcend?$AA@
CONST	SEGMENT
??_C@_09KJBDPADP@Transcend?$AA@ DB 'Transcend', 00H	; `string'
CONST	ENDS
;	COMDAT ??_C@_07FCLJFOJN@Samsung?$AA@
CONST	SEGMENT
??_C@_07FCLJFOJN@Samsung?$AA@ DB 'Samsung', 00H		; `string'
CONST	ENDS
;	COMDAT ??_C@_06MPOFMFBE@Micron?$AA@
CONST	SEGMENT
??_C@_06MPOFMFBE@Micron?$AA@ DB 'Micron', 00H		; `string'
CONST	ENDS
_DATA	SEGMENT
_CacheTypePrefix DB 00H
	DB	040H
	DB	080H
	DB	0c0H
_ManufacturerId DB 02cH
	DB	0ceH
	DB	04fH
	DB	098H
	DB	0feH
	DB	0adH
	DB	0c1H
	DB	057H
	DB	051H
	ORG $+3
_ManufacturerStringId DD FLAT:??_C@_06MPOFMFBE@Micron?$AA@
	DD	FLAT:??_C@_07FCLJFOJN@Samsung?$AA@
	DD	FLAT:??_C@_09KJBDPADP@Transcend?$AA@
	DD	FLAT:??_C@_08KGDHKCKB@Kingston?$AA@
	DD	FLAT:??_C@_06IHFCNECC@Elpida?$AA@
	DD	FLAT:??_C@_05CCONNHIC@Hynix?$AA@
	DD	FLAT:??_C@_08PLDEMPOA@Infineon?$AA@
	DD	FLAT:??_C@_05DKDJAHFD@Smart?$AA@
	DD	FLAT:??_C@_07KDCFBPGD@Quimoda?$AA@
_ResultsString DB 'P', 00H, 00H
	DB	'-', 00H, 00H
	DB	'*', 00H, 00H
_DATA	ENDS
PUBLIC	_ReadSkpd7
EXTRN	_MemRegRead:PROC
; Function compile flags: /Ogspy
;	COMDAT _ReadSkpd7
_TEXT	SEGMENT
_Register$ = -24					; size = 24
_ReadSkpd7 PROC						; COMDAT
; File d:\bios\z124-002\z124-002\denvertonpkg\systemagent\mrc\mmrc\projectindependent\source\mmrclibraries.c
; Line 111
	push	ebp
	mov	ebp, esp
	sub	esp, 24					; 00000018H
; Line 113
	or	DWORD PTR _Register$[ebp+8], -1
	push	esi
	push	edi
; Line 117
	sub	esp, 24					; 00000018H
	push	6
	xor	eax, eax
	pop	ecx
	mov	edi, esp
	push	eax
	push	eax
	mov	DWORD PTR _Register$[ebp+12], eax
	mov	BYTE PTR _Register$[ebp+16], al
	lea	esi, DWORD PTR _Register$[ebp]
	mov	DWORD PTR _Register$[ebp], 284		; 0000011cH
	push	eax
	rep movsd
	call	_MemRegRead
	add	esp, 36					; 00000024H
; Line 118
	pop	edi
	pop	esi
	leave
	ret	0
_ReadSkpd7 ENDP
_TEXT	ENDS
PUBLIC	_EnableMrcBreakpoint
EXTRN	_MemRegWrite:PROC
; Function compile flags: /Ogspy
;	COMDAT _EnableMrcBreakpoint
_TEXT	SEGMENT
_Register$ = -24					; size = 24
_EnableMrcBreakpoint PROC				; COMDAT
; Line 122
	push	ebp
	mov	ebp, esp
	sub	esp, 24					; 00000018H
	push	esi
; Line 124
	or	DWORD PTR _Register$[ebp+8], -1
	push	edi
; Line 128
	push	15					; 0000000fH
	xor	eax, eax
	push	eax
	push	1
	sub	esp, 24					; 00000018H
	push	6
	pop	ecx
	mov	edi, esp
	push	eax
	push	eax
	mov	DWORD PTR _Register$[ebp+12], eax
	mov	BYTE PTR _Register$[ebp+16], al
	lea	esi, DWORD PTR _Register$[ebp]
	mov	DWORD PTR _Register$[ebp], 268		; 0000010cH
	push	eax
	rep movsd
	call	_MemRegWrite
	add	esp, 48					; 00000030H
; Line 129
	pop	edi
	pop	esi
	leave
	ret	0
_EnableMrcBreakpoint ENDP
_TEXT	ENDS
PUBLIC	_DisableMrcBreakpoint
; Function compile flags: /Ogspy
;	COMDAT _DisableMrcBreakpoint
_TEXT	SEGMENT
_Register$ = -24					; size = 24
_DisableMrcBreakpoint PROC				; COMDAT
; Line 133
	push	ebp
	mov	ebp, esp
	sub	esp, 24					; 00000018H
	push	esi
; Line 135
	or	DWORD PTR _Register$[ebp+8], -1
	push	edi
	xor	eax, eax
; Line 139
	push	15					; 0000000fH
	push	eax
	push	eax
	sub	esp, 24					; 00000018H
	push	6
	pop	ecx
	mov	edi, esp
	push	eax
	push	eax
	mov	DWORD PTR _Register$[ebp+12], eax
	mov	BYTE PTR _Register$[ebp+16], al
	lea	esi, DWORD PTR _Register$[ebp]
	mov	DWORD PTR _Register$[ebp], 268		; 0000010cH
	push	eax
	rep movsd
	call	_MemRegWrite
	add	esp, 48					; 00000030H
; Line 140
	pop	edi
	pop	esi
	leave
	ret	0
_DisableMrcBreakpoint ENDP
_TEXT	ENDS
PUBLIC	_GetHalfClk
EXTRN	_HalfClkGenerated:TBYTE
EXTRN	_ADdllGenerated:WORD
; Function compile flags: /Ogspy
;	COMDAT _GetHalfClk
_TEXT	SEGMENT
_MrcData$ = 8						; size = 4
_Channel$ = 12						; size = 1
_GetHalfClk PROC					; COMDAT
; Line 238
	mov	eax, DWORD PTR _MrcData$[esp-4]
	movzx	ecx, BYTE PTR [eax+65338]
	movzx	ecx, BYTE PTR _ADdllGenerated[ecx]
	movzx	edx, BYTE PTR _Channel$[esp-4]
	imul	ecx, 5
	movzx	eax, WORD PTR [eax+edx*2+55494]
	add	ecx, eax
	mov	ax, WORD PTR _HalfClkGenerated[ecx*2]
; Line 239
	ret	0
_GetHalfClk ENDP
_TEXT	ENDS
PUBLIC	_GetQtrClk
; Function compile flags: /Ogspy
;	COMDAT _GetQtrClk
_TEXT	SEGMENT
_MrcData$ = 8						; size = 4
_Channel$ = 12						; size = 1
_GetQtrClk PROC						; COMDAT
; Line 270
	push	DWORD PTR _Channel$[esp-4]
	push	DWORD PTR _MrcData$[esp]
	call	_GetHalfClk
	movzx	eax, ax
	pop	ecx
	pop	ecx
	shr	eax, 1
; Line 271
	ret	0
_GetQtrClk ENDP
_TEXT	ENDS
PUBLIC	_GetOneClk
; Function compile flags: /Ogspy
;	COMDAT _GetOneClk
_TEXT	SEGMENT
_MrcData$ = 8						; size = 4
_Channel$ = 12						; size = 1
_GetOneClk PROC						; COMDAT
; Line 279
	push	DWORD PTR _Channel$[esp-4]
	push	DWORD PTR _MrcData$[esp]
	call	_GetHalfClk
	pop	ecx
	pop	ecx
	add	eax, eax
; Line 280
	ret	0
_GetOneClk ENDP
_TEXT	ENDS
PUBLIC	_ConvertPfctFromBitXToX
; Function compile flags: /Ogspy
;	COMDAT _ConvertPfctFromBitXToX
_TEXT	SEGMENT
tv197 = -16						; size = 4
tv591 = -12						; size = 4
tv314 = -8						; size = 4
_i$ = -1						; size = 1
_MrcData$ = 8						; size = 4
_ConvertPfctFromBitXToX PROC				; COMDAT
; Line 295
	push	ebp
	mov	ebp, esp
	sub	esp, 16					; 00000010H
; Line 302
	mov	eax, DWORD PTR _MrcData$[ebp]
	push	ebx
	push	esi
	add	eax, 55494				; 0000d8c6H
	mov	DWORD PTR tv197[ebp], 2
	push	edi
$LL17@ConvertPfc:
; Line 303
	movzx	ecx, WORD PTR [eax]
	movzx	edx, WORD PTR [eax-4]
	movzx	edi, WORD PTR [eax+4]
	movzx	esi, WORD PTR [eax+8]
	and	DWORD PTR tv314[ebp], 0
	mov	BYTE PTR _i$[ebp], 0
	mov	DWORD PTR tv591[ebp], ecx
$LL7@ConvertPfc:
; Line 304
	mov	ecx, DWORD PTR tv314[ebp]
	xor	ebx, ebx
	inc	ebx
	shl	ebx, cl
	movzx	ecx, dx
	test	ecx, ebx
	je	SHORT $LN4@ConvertPfc
; Line 305
	movzx	cx, BYTE PTR _i$[ebp]
	movzx	edx, cx
$LN4@ConvertPfc:
; Line 307
	movzx	ecx, WORD PTR tv591[ebp]
	test	ecx, ebx
	je	SHORT $LN3@ConvertPfc
; Line 308
	movzx	cx, BYTE PTR _i$[ebp]
	movzx	ecx, cx
	mov	DWORD PTR tv591[ebp], ecx
$LN3@ConvertPfc:
; Line 310
	movzx	ecx, di
	test	ecx, ebx
	je	SHORT $LN2@ConvertPfc
; Line 311
	movzx	cx, BYTE PTR _i$[ebp]
	movzx	edi, cx
$LN2@ConvertPfc:
; Line 313
	movzx	ecx, si
	test	ecx, ebx
	je	SHORT $LN6@ConvertPfc
; Line 314
	movzx	cx, BYTE PTR _i$[ebp]
	movzx	esi, cx
$LN6@ConvertPfc:
	inc	BYTE PTR _i$[ebp]
	inc	DWORD PTR tv314[ebp]
	cmp	BYTE PTR _i$[ebp], 16			; 00000010H
	jb	SHORT $LL7@ConvertPfc
	mov	cx, WORD PTR tv591[ebp]
	mov	WORD PTR [eax-4], dx
	mov	WORD PTR [eax], cx
	mov	WORD PTR [eax+4], di
	mov	WORD PTR [eax+8], si
	inc	eax
	inc	eax
	dec	DWORD PTR tv197[ebp]
	jne	$LL17@ConvertPfc
	pop	edi
	pop	esi
	pop	ebx
; Line 318
	leave
	ret	0
_ConvertPfctFromBitXToX ENDP
_TEXT	ENDS
PUBLIC	_CreateChannelMask
; Function compile flags: /Ogspy
;	COMDAT _CreateChannelMask
_TEXT	SEGMENT
tv171 = -4						; size = 4
_MrcData$ = 8						; size = 4
_j$ = 12						; size = 4
_CreateChannelMask PROC					; COMDAT
; Line 334
	push	ebp
	mov	ebp, esp
	push	ecx
; Line 337
	mov	eax, DWORD PTR _MrcData$[ebp]
	mov	edx, DWORD PTR _j$[ebp]
	push	ebx
	push	esi
	lea	esi, DWORD PTR [eax+55511]
	push	edi
	add	eax, 55494				; 0000d8c6H
	mov	DWORD PTR tv171[ebp], 2
$LL12@CreateChan:
; Line 342
	mov	cl, BYTE PTR [eax-4]
	xor	edi, edi
	inc	edi
	shl	edi, cl
	movzx	ecx, WORD PTR [edx+14]
	test	edi, ecx
	je	SHORT $LN10@CreateChan
	mov	cl, BYTE PTR [eax]
	movzx	edi, WORD PTR [edx+16]
	xor	ebx, ebx
	inc	ebx
	shl	ebx, cl
	test	edi, ebx
	je	SHORT $LN10@CreateChan
	mov	cl, BYTE PTR [eax+4]
	xor	edi, edi
	inc	edi
	shl	edi, cl
	movzx	ecx, WORD PTR [edx+18]
	test	edi, ecx
	je	SHORT $LN10@CreateChan
	mov	cl, BYTE PTR [eax+8]
	xor	edi, edi
	inc	edi
	shl	edi, cl
	movzx	ecx, WORD PTR [edx+20]
	test	edi, ecx
	je	SHORT $LN10@CreateChan
; Line 344
	mov	BYTE PTR [esi], 1
; Line 345
	jmp	SHORT $LN4@CreateChan
$LN10@CreateChan:
; Line 346
	mov	BYTE PTR [esi], 0
$LN4@CreateChan:
; Line 337
	inc	eax
	inc	eax
	inc	esi
	dec	DWORD PTR tv171[ebp]
	jne	SHORT $LL12@CreateChan
	pop	edi
	pop	esi
	pop	ebx
; Line 349
	leave
	ret	0
_CreateChannelMask ENDP
_TEXT	ENDS
PUBLIC	_MmrcMemset
EXTRN	_memset:PROC
; Function compile flags: /Ogspy
;	COMDAT _MmrcMemset
_TEXT	SEGMENT
_dst$ = 8						; size = 4
_value$ = 12						; size = 1
_cnt$ = 16						; size = 4
_MmrcMemset PROC					; COMDAT
; Line 578
	push	ebp
	mov	ebp, esp
; Line 580
	cmp	DWORD PTR _cnt$[ebp], 0
	je	SHORT $LN2@MmrcMemset
	push	DWORD PTR _cnt$[ebp]
	push	DWORD PTR _value$[ebp]
	push	DWORD PTR _dst$[ebp]
	call	_memset
	add	esp, 12					; 0000000cH
$LN2@MmrcMemset:
; Line 584
	mov	eax, DWORD PTR _dst$[ebp]
; Line 585
	pop	ebp
	ret	0
_MmrcMemset ENDP
_TEXT	ENDS
PUBLIC	_MmrcMemCopy
; Function compile flags: /Ogspy
;	COMDAT _MmrcMemCopy
_TEXT	SEGMENT
_dst$ = 8						; size = 4
_src$ = 12						; size = 4
_cnt$ = 16						; size = 4
_MmrcMemCopy PROC					; COMDAT
; Line 593
	push	ebp
	mov	ebp, esp
; Line 596
	cmp	DWORD PTR _cnt$[ebp], 0
	mov	eax, DWORD PTR _dst$[ebp]
	je	SHORT $LN6@MmrcMemCop
	mov	ecx, DWORD PTR _src$[ebp]
	sub	ecx, eax
$LL2@MmrcMemCop:
; Line 597
	mov	dl, BYTE PTR [ecx+eax]
	dec	DWORD PTR _cnt$[ebp]
	mov	BYTE PTR [eax], dl
; Line 598
	inc	eax
	cmp	DWORD PTR _cnt$[ebp], 0
	jne	SHORT $LL2@MmrcMemCop
$LN6@MmrcMemCop:
; Line 601
	mov	eax, DWORD PTR _dst$[ebp]
; Line 602
	pop	ebp
	ret	0
_MmrcMemCopy ENDP
_TEXT	ENDS
PUBLIC	_MmrcStringCompare
; Function compile flags: /Ogspy
;	COMDAT _MmrcStringCompare
_TEXT	SEGMENT
_str1$ = 8						; size = 4
_str2$ = 12						; size = 4
_cnt$ = 16						; size = 4
_MmrcStringCompare PROC					; COMDAT
; Line 619
	push	esi
; Line 628
	xor	esi, esi
	cmp	DWORD PTR _cnt$[esp], esi
	jbe	SHORT $LN2@MmrcString
	mov	eax, DWORD PTR _str1$[esp]
	mov	ecx, DWORD PTR _str2$[esp]
	sub	ecx, eax
$LL4@MmrcString:
; Line 629
	mov	dl, BYTE PTR [eax]
	cmp	dl, BYTE PTR [ecx+eax]
	jne	SHORT $LN8@MmrcString
	inc	esi
	inc	eax
	cmp	esi, DWORD PTR _cnt$[esp]
	jb	SHORT $LL4@MmrcString
$LN2@MmrcString:
; Line 633
	mov	al, 1
	pop	esi
; Line 634
	ret	0
$LN8@MmrcString:
; Line 630
	xor	al, al
	pop	esi
; Line 634
	ret	0
_MmrcStringCompare ENDP
_TEXT	ENDS
PUBLIC	_StringLength
; Function compile flags: /Ogspy
;	COMDAT _StringLength
_TEXT	SEGMENT
_String$ = 8						; size = 4
_StringLength PROC					; COMDAT
; Line 642
	xor	eax, eax
$LL2@StringLeng:
; Line 643
	mov	ecx, DWORD PTR _String$[esp-4]
	mov	cl, BYTE PTR [eax+ecx]
	inc	eax
	test	cl, cl
	jne	SHORT $LL2@StringLeng
; Line 645
	ret	0
_StringLength ENDP
_TEXT	ENDS
PUBLIC	_DumpAllRegisters
; Function compile flags: /Ogspy
;	COMDAT _DumpAllRegisters
_TEXT	SEGMENT
_DumpAllRegisters PROC					; COMDAT
; Line 903
	xor	eax, eax
; Line 904
	ret	0
_DumpAllRegisters ENDP
_TEXT	ENDS
PUBLIC	_GetMaxDq
; Function compile flags: /Ogspy
;	COMDAT _GetMaxDq
_TEXT	SEGMENT
tv250 = -32						; size = 4
tv137 = -28						; size = 4
tv77 = -24						; size = 4
tv521 = -20						; size = 4
tv531 = -16						; size = 4
tv406 = -12						; size = 4
tv362 = -8						; size = 4
tv482 = -4						; size = 4
_MrcData$ = 8						; size = 4
_GetMaxDq PROC						; COMDAT
; Line 1380
	push	ebp
	mov	ebp, esp
	sub	esp, 32					; 00000020H
; Line 1385
	mov	eax, DWORD PTR _MrcData$[ebp]
	push	ebx
	push	esi
	push	edi
	lea	ecx, DWORD PTR [eax+28608]
	push	2
	mov	DWORD PTR tv521[ebp], ecx
	xor	edi, edi
	lea	ecx, DWORD PTR [eax+28610]
	pop	esi
	mov	DWORD PTR tv482[ebp], edi
	mov	DWORD PTR tv531[ebp], ecx
	mov	DWORD PTR tv250[ebp], esi
$LL28@GetMaxDq:
; Line 1386
	mov	edx, DWORD PTR tv521[ebp]
	xor	ecx, ecx
	cmp	BYTE PTR [edx], cl
	je	$LN15@GetMaxDq
; Line 1389
	mov	edx, DWORD PTR tv531[ebp]
	mov	DWORD PTR tv406[ebp], edx
	mov	DWORD PTR tv137[ebp], esi
$LL27@GetMaxDq:
; Line 1390
	mov	ebx, DWORD PTR tv406[ebp]
	xor	edx, edx
	cmp	BYTE PTR [ebx], dl
	je	SHORT $LN11@GetMaxDq
; Line 1393
	lea	ebx, DWORD PTR [ecx+edi*2+15344]
	lea	ebx, DWORD PTR [eax+ebx*2]
	mov	DWORD PTR tv362[ebp], ebx
	mov	DWORD PTR tv77[ebp], esi
$LL25@GetMaxDq:
; Line 1394
	mov	ebx, DWORD PTR tv362[ebp]
	cmp	BYTE PTR [ebx], 0
	je	SHORT $LN7@GetMaxDq
; Line 1397
	lea	esi, DWORD PTR [ecx+edi*2+55398]
	cmp	BYTE PTR [esi+eax], 0
; Line 1403
	mov	esi, DWORD PTR tv482[ebp]
; Line 1405
	push	2
	je	SHORT $LN2@GetMaxDq
	add	esi, ecx
	lea	ebx, DWORD PTR [edx+esi*2+55454]
	lea	esi, DWORD PTR [edx+esi*2+55462]
	mov	BYTE PTR [ebx+eax], 9
	mov	BYTE PTR [esi+eax], 8
	jmp	SHORT $LN29@GetMaxDq
$LN2@GetMaxDq:
; Line 1399
	add	esi, ecx
	lea	ebx, DWORD PTR [edx+esi*2+55454]
; Line 1400
	lea	esi, DWORD PTR [edx+esi*2+55462]
	mov	BYTE PTR [ebx+eax], 18			; 00000012H
	mov	BYTE PTR [esi+eax], 4
$LN29@GetMaxDq:
	pop	esi
$LN7@GetMaxDq:
; Line 1393
	inc	edx
	inc	DWORD PTR tv362[ebp]
	dec	DWORD PTR tv77[ebp]
	jne	SHORT $LL25@GetMaxDq
$LN11@GetMaxDq:
; Line 1389
	inc	ecx
	inc	DWORD PTR tv406[ebp]
	dec	DWORD PTR tv137[ebp]
	jne	SHORT $LL27@GetMaxDq
$LN15@GetMaxDq:
; Line 1385
	add	DWORD PTR tv482[ebp], esi
	add	DWORD PTR tv531[ebp], esi
	inc	edi
	inc	DWORD PTR tv521[ebp]
	dec	DWORD PTR tv250[ebp]
	jne	$LL28@GetMaxDq
	pop	edi
	pop	esi
	pop	ebx
; Line 1411
	leave
	ret	0
_GetMaxDq ENDP
_TEXT	ENDS
PUBLIC	_ForceMaxBit
; Function compile flags: /Ogspy
;	COMDAT _ForceMaxBit
_TEXT	SEGMENT
tv431 = -32						; size = 4
tv325 = -28						; size = 4
tv75 = -24						; size = 4
tv458 = -20						; size = 4
tv468 = -16						; size = 4
tv399 = -12						; size = 4
tv361 = -8						; size = 4
tv311 = -4						; size = 4
_MrcData$ = 8						; size = 4
_MaxBit$ = 12						; size = 1
_ForceMaxBit PROC					; COMDAT
; Line 1419
	push	ebp
	mov	ebp, esp
	sub	esp, 32					; 00000020H
; Line 1424
	mov	eax, DWORD PTR _MrcData$[ebp]
	push	ebx
	push	esi
	push	edi
	lea	ecx, DWORD PTR [eax+28608]
	push	2
	xor	ebx, ebx
	mov	DWORD PTR tv458[ebp], ecx
	lea	ecx, DWORD PTR [eax+28610]
	pop	edx
	mov	DWORD PTR tv361[ebp], ebx
	mov	DWORD PTR tv399[ebp], ebx
	mov	DWORD PTR tv468[ebp], ecx
	mov	DWORD PTR tv431[ebp], edx
$LL12@ForceMaxBi:
; Line 1425
	mov	ecx, DWORD PTR tv458[ebp]
	cmp	BYTE PTR [ecx], bl
	je	SHORT $LN11@ForceMaxBi
; Line 1428
	mov	esi, DWORD PTR tv468[ebp]
	xor	ecx, ecx
	mov	DWORD PTR tv311[ebp], esi
	mov	DWORD PTR tv325[ebp], edx
$LL22@ForceMaxBi:
; Line 1429
	mov	esi, DWORD PTR tv311[ebp]
	cmp	BYTE PTR [esi], bl
	je	SHORT $LN7@ForceMaxBi
; Line 1432
	mov	esi, DWORD PTR tv361[ebp]
	lea	esi, DWORD PTR [ecx+esi*2+15344]
	xor	edi, edi
	lea	esi, DWORD PTR [eax+esi*2]
	mov	DWORD PTR tv75[ebp], edx
$LL21@ForceMaxBi:
; Line 1433
	cmp	BYTE PTR [esi], bl
	je	SHORT $LN3@ForceMaxBi
; Line 1436
	mov	edx, DWORD PTR tv399[ebp]
	mov	bl, BYTE PTR _MaxBit$[ebp]
	add	edx, ecx
	lea	edx, DWORD PTR [edi+edx*2+55462]
	mov	BYTE PTR [edx+eax], bl
	push	2
	xor	ebx, ebx
	pop	edx
$LN3@ForceMaxBi:
	inc	edi
	inc	esi
	dec	DWORD PTR tv75[ebp]
	jne	SHORT $LL21@ForceMaxBi
$LN7@ForceMaxBi:
; Line 1428
	inc	ecx
	inc	DWORD PTR tv311[ebp]
	dec	DWORD PTR tv325[ebp]
	jne	SHORT $LL22@ForceMaxBi
$LN11@ForceMaxBi:
; Line 1424
	inc	DWORD PTR tv361[ebp]
	add	DWORD PTR tv399[ebp], edx
	add	DWORD PTR tv468[ebp], edx
	inc	DWORD PTR tv458[ebp]
	dec	DWORD PTR tv431[ebp]
	jne	SHORT $LL12@ForceMaxBi
	pop	edi
	pop	esi
	pop	ebx
; Line 1440
	leave
	ret	0
_ForceMaxBit ENDP
_TEXT	ENDS
PUBLIC	_SearchSubtaskName
EXTRN	_SubtaskOffsetIndex:BYTE
; Function compile flags: /Ogspy
;	COMDAT _SearchSubtaskName
_TEXT	SEGMENT
_CurrentTaskOffset$ = 8					; size = 2
_SearchSubtaskName PROC					; COMDAT
; Line 1595
	movzx	ecx, WORD PTR _CurrentTaskOffset$[esp-4]
	xor	eax, eax
$LL5@SearchSubt:
; Line 1596
	movzx	edx, ax
	cmp	ecx, DWORD PTR _SubtaskOffsetIndex[edx*8+4]
	je	SHORT $LN9@SearchSubt
	inc	eax
	cmp	ax, 38					; 00000026H
	jb	SHORT $LL5@SearchSubt
	jmp	SHORT $LN1@SearchSubt
$LN9@SearchSubt:
; Line 1597
	movzx	eax, ax
	movzx	eax, WORD PTR _SubtaskOffsetIndex[eax*8]
; Line 1601
	mov	ecx, 65535				; 0000ffffH
	cmp	ax, cx
; Line 1602
	jne	SHORT $LN6@SearchSubt
$LN1@SearchSubt:
; Line 1606
	xor	eax, eax
$LN6@SearchSubt:
; Line 1608
	ret	0
_SearchSubtaskName ENDP
_TEXT	ENDS
PUBLIC	_SetRdimmRegCkeLow
EXTRN	_MrcSmbusExec:PROC
EXTRN	_MrsCommandIndex:BYTE
; Function compile flags: /Ogspy
;	COMDAT _SetRdimmRegCkeLow
_TEXT	SEGMENT
tv279 = -20						; size = 4
tv379 = -16						; size = 4
tv260 = -12						; size = 4
tv331 = -8						; size = 4
_Length$ = -3						; size = 1
_Buffer$ = -2						; size = 1
tv333 = -1						; size = 1
_MrcData$ = 8						; size = 4
_Channel$ = 12						; size = 1
_SetRdimmRegCkeLow PROC					; COMDAT
; Line 1698
	push	ebp
	mov	ebp, esp
	sub	esp, 20					; 00000014H
	push	ebx
; Line 1757
	movzx	ebx, BYTE PTR _Channel$[ebp]
	mov	eax, ebx
	imul	eax, 4336				; 000010f0H
	push	esi
	mov	esi, DWORD PTR _MrcData$[ebp]
	push	edi
	lea	edi, DWORD PTR [eax+esi+55966]
	xor	eax, eax
	mov	BYTE PTR _Length$[ebp], 1
	mov	DWORD PTR tv260[ebp], edi
	mov	DWORD PTR tv331[ebp], eax
	mov	BYTE PTR tv333[ebp], al
	jmp	SHORT $LN7@SetRdimmRe
$LL14@SetRdimmRe:
; Line 1705
	mov	edi, DWORD PTR tv260[ebp]
$LN7@SetRdimmRe:
; Line 1711
	cmp	DWORD PTR [edi], 1
	jne	$LN6@SetRdimmRe
	cmp	DWORD PTR [edi+4], 0
	jne	$LN6@SetRdimmRe
	lea	ecx, DWORD PTR [eax+ebx*2+28610]
	cmp	BYTE PTR [ecx+esi], 0
	je	$LN6@SetRdimmRe
; Line 1719
	movzx	edi, BYTE PTR tv333[ebp]
	imul	edi, 70					; 00000046H
; Line 1723
	movzx	edx, WORD PTR _MrsCommandIndex[edi+52]
	mov	ecx, ebx
	imul	ecx, 542				; 0000021eH
	add	edx, ecx
; Line 1725
	mov	DWORD PTR tv279[ebp], ecx
	mov	ecx, DWORD PTR [esi+edx*8+55526]
	mov	edx, DWORD PTR [esi+edx*8+55530]
	shrd	ecx, edx, 8
	and	cl, 15					; 0000000fH
	or	cl, 128					; 00000080H
	mov	BYTE PTR _Buffer$[ebp], cl
	lea	ecx, DWORD PTR [eax+ebx*2+65384]
	add	ecx, esi
	shr	edx, 8
	cmp	BYTE PTR [ecx], 0
	mov	DWORD PTR tv379[ebp], ecx
	jne	SHORT $LN12@SetRdimmRe
; Line 1733
	lea	eax, DWORD PTR [eax+ebx*2+65380]
	mov	al, BYTE PTR [eax+esi]
	lea	ecx, DWORD PTR _Buffer$[ebp]
	push	ecx
	lea	ecx, DWORD PTR _Length$[ebp]
	push	ecx
	add	al, 16					; 00000010H
	push	13					; 0000000dH
	movzx	eax, al
	push	1
	push	eax
	movzx	eax, WORD PTR [esi+65350]
	push	eax
	call	_MrcSmbusExec
	mov	eax, DWORD PTR tv331[ebp]
	mov	ecx, DWORD PTR tv379[ebp]
	add	esp, 24					; 00000018H
$LN12@SetRdimmRe:
; Line 1740
	movzx	edx, WORD PTR _MrsCommandIndex[edi+66]
	add	edx, DWORD PTR tv279[ebp]
; Line 1742
	cmp	BYTE PTR [ecx], 0
	mov	dl, BYTE PTR [esi+edx*8+55527]
	mov	BYTE PTR _Buffer$[ebp], dl
	jne	SHORT $LN6@SetRdimmRe
; Line 1750
	lea	eax, DWORD PTR [eax+ebx*2+65380]
	mov	al, BYTE PTR [eax+esi]
	lea	ecx, DWORD PTR _Buffer$[ebp]
	push	ecx
	lea	ecx, DWORD PTR _Length$[ebp]
	push	ecx
	add	al, 16					; 00000010H
	push	18					; 00000012H
	movzx	eax, al
	push	1
	push	eax
	movzx	eax, WORD PTR [esi+65350]
	push	eax
	call	_MrcSmbusExec
	mov	eax, DWORD PTR tv331[ebp]
	add	esp, 24					; 00000018H
$LN6@SetRdimmRe:
	add	BYTE PTR tv333[ebp], 2
	inc	eax
	cmp	BYTE PTR tv333[ebp], 4
	mov	DWORD PTR tv331[ebp], eax
	jb	$LL14@SetRdimmRe
	pop	edi
	pop	esi
; Line 1757
	xor	eax, eax
	pop	ebx
; Line 1758
	leave
	ret	0
_SetRdimmRegCkeLow ENDP
_TEXT	ENDS
PUBLIC	_GetSetDdrioGroup
PUBLIC	_SetRegsToLinear
EXTRN	_ClockCrossingsGenerated:BYTE
EXTRN	_NumberOfCCRangesGenerated:BYTE
EXTRN	_NumberOfCCElementsGenerated:BYTE
EXTRN	_NumberOfDependantElementsGenerated:BYTE
EXTRN	_GranularityGenerated:BYTE
EXTRN	_NumberOfDelayElementsPerAlgoGenerated:BYTE
EXTRN	_NumberOfElementsPerAlgoGenerated:BYTE
; Function compile flags: /Ogspy
;	COMDAT _SetRegsToLinear
_TEXT	SEGMENT
tv376 = -24						; size = 4
_CCValue$ = -20						; size = 2
_CCRange$ = -16						; size = 2
_ElementValue$ = -12					; size = 4
_AlgoElementsStart$ = -8				; size = 2
_TempValue$ = -4					; size = 4
_MrcData$ = 8						; size = 4
_Socket$ = 12						; size = 1
_Channel$ = 16						; size = 1
_Dimm$ = 20						; size = 1
_Rank$ = 24						; size = 1
_Strobe$ = 28						; size = 1
_Bit$ = 32						; size = 1
_FrequencyIndex$ = 36					; size = 1
_IoLevel$ = 40						; size = 1
_Type$ = 44						; size = 2
_ElementIndex$ = 47					; size = 1
_Cmd$ = 48						; size = 1
tv361 = 52						; size = 4
_Value$ = 52						; size = 4
_ThisCcRange$ = 55					; size = 1
_SetRegsToLinear PROC					; COMDAT
; Line 3298
	push	ebp
	mov	ebp, esp
	sub	esp, 24					; 00000018H
; Line 3316
	movzx	cx, BYTE PTR _NumberOfElementsPerAlgoGenerated
	xor	eax, eax
	mov	DWORD PTR _ElementValue$[ebp], eax
	mov	DWORD PTR _CCValue$[ebp], eax
	mov	DWORD PTR _CCRange$[ebp], eax
	mov	eax, DWORD PTR _Type$[ebp]
	add	eax, -4096				; fffff000H
	imul	ax, cx
; Line 3323
	cmp	BYTE PTR _NumberOfDelayElementsPerAlgoGenerated, 0
	movzx	eax, ax
	push	ebx
	push	esi
	mov	esi, DWORD PTR _MrcData$[ebp]
	mov	DWORD PTR _AlgoElementsStart$[ebp], eax
	mov	eax, DWORD PTR _Value$[ebp]
	push	edi
	mov	edi, DWORD PTR [eax]
	mov	BYTE PTR _ElementIndex$[ebp], 0
	jbe	$LN13@SetRegsToL
	movzx	eax, BYTE PTR _Channel$[ebp]
	lea	eax, DWORD PTR [esi+eax*2+55494]
	mov	DWORD PTR tv361[ebp], eax
$LL26@SetRegsToL:
; Line 3330
	movzx	ecx, BYTE PTR [esi+65338]
	movzx	ecx, BYTE PTR _ADdllGenerated[ecx]
	mov	edx, DWORD PTR tv361[ebp]
	imul	ecx, 5
	movzx	edx, WORD PTR [edx]
	movzx	eax, BYTE PTR _ElementIndex$[ebp]
	add	ecx, edx
	imul	ecx, 3
	add	ecx, eax
	movzx	ebx, WORD PTR _GranularityGenerated[ecx*2]
	mov	DWORD PTR tv376[ebp], eax
	movzx	ecx, bx
	xor	edx, edx
	mov	eax, edi
	div	ecx
; Line 3335
	push	DWORD PTR _Channel$[ebp]
	push	esi
	imul	ecx, eax
	mov	DWORD PTR _ElementValue$[ebp], eax
	mov	DWORD PTR _TempValue$[ebp], ecx
	call	_GetHalfClk
	pop	ecx
	pop	ecx
	cmp	bx, ax
	ja	SHORT $LN14@SetRegsToL
; Line 3343
	lea	eax, DWORD PTR _ElementValue$[ebp]
	push	eax
	mov	al, BYTE PTR _AlgoElementsStart$[ebp]
	add	al, BYTE PTR _ElementIndex$[ebp]
	push	DWORD PTR _Cmd$[ebp]
	movzx	ax, al
	movzx	eax, ax
	push	eax
	push	DWORD PTR _IoLevel$[ebp]
	push	DWORD PTR _FrequencyIndex$[ebp]
	push	DWORD PTR _Bit$[ebp]
	push	DWORD PTR _Strobe$[ebp]
	push	DWORD PTR _Rank$[ebp]
	push	DWORD PTR _Dimm$[ebp]
	push	DWORD PTR _Channel$[ebp]
	push	DWORD PTR _Socket$[ebp]
	push	esi
	call	_GetSetDdrioGroup
	add	esp, 48					; 00000030H
	test	eax, eax
	jne	SHORT $LN14@SetRegsToL
; Line 3344
	movzx	eax, BYTE PTR _NumberOfDependantElementsGenerated
	movzx	ecx, BYTE PTR _NumberOfDelayElementsPerAlgoGenerated
	sub	ecx, eax
	cmp	DWORD PTR tv376[ebp], ecx
	jne	SHORT $LN10@SetRegsToL
; Line 3346
	push	DWORD PTR _Channel$[ebp]
	movzx	eax, di
	push	esi
	mov	DWORD PTR _CCValue$[ebp], eax
	call	_GetHalfClk
	movzx	eax, ax
	pop	ecx
	pop	ecx
	mov	DWORD PTR _CCRange$[ebp], eax
$LN10@SetRegsToL:
; Line 3348
	sub	edi, DWORD PTR _TempValue$[ebp]
$LN14@SetRegsToL:
; Line 3323
	inc	BYTE PTR _ElementIndex$[ebp]
	mov	al, BYTE PTR _ElementIndex$[ebp]
	cmp	al, BYTE PTR _NumberOfDelayElementsPerAlgoGenerated
	jb	$LL26@SetRegsToL
$LN13@SetRegsToL:
; Line 3355
	movzx	ax, BYTE PTR _NumberOfDelayElementsPerAlgoGenerated
	add	WORD PTR _AlgoElementsStart$[ebp], ax
; Line 3357
	cmp	BYTE PTR _NumberOfCCElementsGenerated, 0
	mov	BYTE PTR _ElementIndex$[ebp], 0
	jbe	$LN7@SetRegsToL
$LL9@SetRegsToL:
; Line 3358
	and	DWORD PTR _TempValue$[ebp], 0
; Line 3363
	cmp	BYTE PTR _NumberOfCCRangesGenerated, 0
	mov	BYTE PTR _ThisCcRange$[ebp], 0
	jbe	SHORT $LN4@SetRegsToL
$LL29@SetRegsToL:
; Line 3366
	movzx	ecx, BYTE PTR _ThisCcRange$[ebp]
	mov	al, BYTE PTR _ElementIndex$[ebp]
	imul	ecx, 10					; 0000000aH
	cmp	al, BYTE PTR _ClockCrossingsGenerated[ecx]
	jne	SHORT $LN5@SetRegsToL
	movzx	edi, WORD PTR _CCRange$[ebp]
	movzx	eax, WORD PTR _ClockCrossingsGenerated[ecx+4]
	imul	eax, edi
	push	100					; 00000064H
	cdq
	pop	ebx
	idiv	ebx
	movzx	ebx, WORD PTR _CCValue$[ebp]
	cmp	ebx, eax
	jae	SHORT $LN5@SetRegsToL
	movzx	eax, WORD PTR _ClockCrossingsGenerated[ecx+2]
	imul	eax, edi
	push	100					; 00000064H
	cdq
	pop	ecx
	idiv	ecx
	cmp	ebx, eax
	jae	SHORT $LN21@SetRegsToL
$LN5@SetRegsToL:
; Line 3363
	inc	BYTE PTR _ThisCcRange$[ebp]
	mov	al, BYTE PTR _ThisCcRange$[ebp]
	cmp	al, BYTE PTR _NumberOfCCRangesGenerated
	jb	SHORT $LL29@SetRegsToL
; Line 3366
	jmp	SHORT $LN4@SetRegsToL
$LN21@SetRegsToL:
; Line 3367
	movzx	eax, BYTE PTR _ThisCcRange$[ebp]
	imul	eax, 10					; 0000000aH
	movsx	eax, WORD PTR _ClockCrossingsGenerated[eax+6]
	mov	DWORD PTR _TempValue$[ebp], eax
$LN4@SetRegsToL:
; Line 3374
	movzx	eax, BYTE PTR _ThisCcRange$[ebp]
	imul	eax, 10					; 0000000aH
	cmp	BYTE PTR _ClockCrossingsGenerated[eax+8], 0
; Line 3375
	lea	eax, DWORD PTR _TempValue$[ebp]
	push	eax
	je	SHORT $LN2@SetRegsToL
	push	DWORD PTR _Cmd$[ebp]
; Line 3376
	jmp	SHORT $LN30@SetRegsToL
$LN2@SetRegsToL:
; Line 3380
	mov	al, BYTE PTR _Cmd$[ebp]
	or	al, 4
	movzx	eax, al
	push	eax
$LN30@SetRegsToL:
	mov	al, BYTE PTR _AlgoElementsStart$[ebp]
	add	al, BYTE PTR _ElementIndex$[ebp]
	movzx	ax, al
	movzx	eax, ax
	push	eax
	push	DWORD PTR _IoLevel$[ebp]
	push	DWORD PTR _FrequencyIndex$[ebp]
	push	DWORD PTR _Bit$[ebp]
	push	DWORD PTR _Strobe$[ebp]
	push	DWORD PTR _Rank$[ebp]
	push	DWORD PTR _Dimm$[ebp]
	push	DWORD PTR _Channel$[ebp]
	push	DWORD PTR _Socket$[ebp]
	push	esi
	call	_GetSetDdrioGroup
	add	esp, 48					; 00000030H
	inc	BYTE PTR _ElementIndex$[ebp]
	mov	al, BYTE PTR _ElementIndex$[ebp]
	cmp	al, BYTE PTR _NumberOfCCElementsGenerated
	jb	$LL9@SetRegsToL
$LN7@SetRegsToL:
	pop	edi
	pop	esi
; Line 3384
	xor	eax, eax
	pop	ebx
; Line 3385
	leave
	ret	0
_SetRegsToLinear ENDP
_TEXT	ENDS
PUBLIC	_GetLinearFromRegs
EXTRN	_ElementsGenerated:BYTE
; Function compile flags: /Ogspy
;	COMDAT _GetLinearFromRegs
_TEXT	SEGMENT
_CCValue$ = -24						; size = 2
tv432 = -20						; size = 4
tv392 = -20						; size = 4
_AlgoElementsStart$ = -16				; size = 2
tv407 = -12						; size = 4
_CCRange$ = -12						; size = 2
_TempValue$ = -8					; size = 4
tv437 = -2						; size = 1
_ThisCcRange$ = -1					; size = 1
_MrcData$ = 8						; size = 4
_Socket$ = 12						; size = 1
_Channel$ = 16						; size = 1
_Dimm$ = 20						; size = 1
_Rank$ = 24						; size = 1
_Strobe$ = 28						; size = 1
_Bit$ = 32						; size = 1
_FrequencyIndex$ = 36					; size = 1
_IoLevel$ = 40						; size = 1
_Type$ = 44						; size = 2
_ElementIndex$ = 47					; size = 1
_Cmd$ = 48						; size = 1
_Value$ = 52						; size = 4
_GetLinearFromRegs PROC					; COMDAT
; Line 3422
	push	ebp
	mov	ebp, esp
	sub	esp, 24					; 00000018H
	push	ebx
; Line 3434
	xor	eax, eax
	push	esi
; Line 3442
	mov	esi, DWORD PTR _MrcData$[ebp]
	push	edi
	mov	edi, DWORD PTR _Value$[ebp]
	mov	DWORD PTR [edi], eax
	movzx	cx, BYTE PTR _NumberOfElementsPerAlgoGenerated
	mov	bl, BYTE PTR _NumberOfDelayElementsPerAlgoGenerated
	mov	DWORD PTR _CCValue$[ebp], eax
	mov	DWORD PTR _TempValue$[ebp], eax
	mov	eax, DWORD PTR _Type$[ebp]
	add	eax, -4096				; fffff000H
	imul	ax, cx
	movzx	eax, ax
	mov	DWORD PTR _AlgoElementsStart$[ebp], eax
	mov	BYTE PTR _ElementIndex$[ebp], 0
	test	bl, bl
	jbe	$LN24@GetLinearF
	movzx	eax, BYTE PTR _Channel$[ebp]
	lea	eax, DWORD PTR [esi+eax*2+55494]
; Line 3468
	mov	DWORD PTR tv392[ebp], eax
$LL25@GetLinearF:
	movzx	eax, BYTE PTR _ElementIndex$[ebp]
	push	DWORD PTR _Channel$[ebp]
	mov	DWORD PTR tv407[ebp], eax
	push	esi
	call	_GetHalfClk
	mov	edx, DWORD PTR tv392[ebp]
	movzx	edx, WORD PTR [edx]
	pop	ecx
	pop	ecx
	movzx	ecx, BYTE PTR [esi+65338]
	movzx	ecx, BYTE PTR _ADdllGenerated[ecx]
	imul	ecx, 5
	add	ecx, edx
	imul	ecx, 3
	add	ecx, DWORD PTR tv407[ebp]
	cmp	WORD PTR _GranularityGenerated[ecx*2], ax
	ja	$LN13@GetLinearF
	lea	eax, DWORD PTR _TempValue$[ebp]
	push	eax
	push	DWORD PTR _Cmd$[ebp]
	movzx	ax, BYTE PTR _ElementIndex$[ebp]
	add	ax, WORD PTR _AlgoElementsStart$[ebp]
	movzx	eax, ax
	push	eax
	push	DWORD PTR _IoLevel$[ebp]
	push	DWORD PTR _FrequencyIndex$[ebp]
	push	DWORD PTR _Bit$[ebp]
	push	DWORD PTR _Strobe$[ebp]
	push	DWORD PTR _Rank$[ebp]
	push	DWORD PTR _Dimm$[ebp]
	push	DWORD PTR _Channel$[ebp]
	push	DWORD PTR _Socket$[ebp]
	push	esi
	call	_GetSetDdrioGroup
	add	esp, 48					; 00000030H
	test	eax, eax
	jne	SHORT $LN28@GetLinearF
	movzx	eax, BYTE PTR [esi+65338]
	movzx	eax, BYTE PTR _ADdllGenerated[eax]
	mov	ecx, DWORD PTR tv392[ebp]
	imul	eax, 5
	movzx	ecx, WORD PTR [ecx]
	add	eax, ecx
	imul	eax, 3
	add	eax, DWORD PTR tv407[ebp]
	movzx	eax, WORD PTR _GranularityGenerated[eax*2]
	imul	eax, DWORD PTR _TempValue$[ebp]
	add	DWORD PTR [edi], eax
$LN28@GetLinearF:
	mov	bl, BYTE PTR _NumberOfDelayElementsPerAlgoGenerated
	movzx	eax, BYTE PTR _NumberOfDependantElementsGenerated
	movzx	ecx, bl
	sub	ecx, eax
	cmp	DWORD PTR tv407[ebp], ecx
	jl	SHORT $LN13@GetLinearF
	movzx	eax, BYTE PTR [esi+65338]
	movzx	eax, BYTE PTR _ADdllGenerated[eax]
	mov	ecx, DWORD PTR tv392[ebp]
	imul	eax, 5
	movzx	ecx, WORD PTR [ecx]
	add	eax, ecx
	imul	eax, 3
	add	eax, DWORD PTR tv407[ebp]
	mov	ax, WORD PTR _GranularityGenerated[eax*2]
	imul	ax, WORD PTR _TempValue$[ebp]
	add	WORD PTR _CCValue$[ebp], ax
$LN13@GetLinearF:
	inc	BYTE PTR _ElementIndex$[ebp]
	cmp	BYTE PTR _ElementIndex$[ebp], bl
	jb	$LL25@GetLinearF
$LN24@GetLinearF:
; Line 3462
	push	DWORD PTR _Channel$[ebp]
	push	esi
	call	_GetHalfClk
	movzx	eax, ax
	mov	DWORD PTR _CCRange$[ebp], eax
; Line 3466
	movzx	ax, bl
	add	WORD PTR _AlgoElementsStart$[ebp], ax
; Line 3468
	cmp	BYTE PTR _NumberOfCCElementsGenerated, 0
	pop	ecx
	pop	ecx
	mov	BYTE PTR _ElementIndex$[ebp], 0
	jbe	$LN6@GetLinearF
	movzx	eax, WORD PTR _AlgoElementsStart$[ebp]
	mov	DWORD PTR tv432[ebp], eax
$LL30@GetLinearF:
; Line 3475
	movzx	eax, BYTE PTR _ElementIndex$[ebp]
	add	eax, DWORD PTR tv432[ebp]
	imul	eax, 44					; 0000002cH
	mov	al, BYTE PTR _ElementsGenerated[eax+19]
	mov	BYTE PTR tv437[ebp], al
	test	al, 32					; 00000020H
	je	$LN7@GetLinearF
; Line 3480
	cmp	BYTE PTR _NumberOfCCRangesGenerated, 0
	mov	BYTE PTR _ThisCcRange$[ebp], 0
	jbe	SHORT $LN2@GetLinearF
$LL29@GetLinearF:
; Line 3483
	movzx	ecx, BYTE PTR _ThisCcRange$[ebp]
	mov	al, BYTE PTR _ElementIndex$[ebp]
	imul	ecx, 10					; 0000000aH
	cmp	al, BYTE PTR _ClockCrossingsGenerated[ecx]
	jne	SHORT $LN3@GetLinearF
	movzx	edi, WORD PTR _CCRange$[ebp]
	movzx	eax, WORD PTR _ClockCrossingsGenerated[ecx+4]
	imul	eax, edi
	push	100					; 00000064H
	cdq
	pop	ebx
	idiv	ebx
	movzx	ebx, WORD PTR _CCValue$[ebp]
	cmp	ebx, eax
	jae	SHORT $LN27@GetLinearF
	movzx	eax, WORD PTR _ClockCrossingsGenerated[ecx+2]
	imul	eax, edi
	push	100					; 00000064H
	cdq
	pop	ecx
	idiv	ecx
	cmp	ebx, eax
	jae	SHORT $LN20@GetLinearF
$LN27@GetLinearF:
	mov	edi, DWORD PTR _Value$[ebp]
$LN3@GetLinearF:
; Line 3480
	inc	BYTE PTR _ThisCcRange$[ebp]
	mov	al, BYTE PTR _ThisCcRange$[ebp]
	cmp	al, BYTE PTR _NumberOfCCRangesGenerated
	jb	SHORT $LL29@GetLinearF
; Line 3483
	jmp	SHORT $LN2@GetLinearF
$LN20@GetLinearF:
; Line 3484
	movzx	eax, BYTE PTR _ThisCcRange$[ebp]
	mov	edi, DWORD PTR _Value$[ebp]
	imul	eax, 10					; 0000000aH
	movsx	eax, WORD PTR _ClockCrossingsGenerated[eax+6]
	mov	DWORD PTR _TempValue$[ebp], eax
$LN2@GetLinearF:
; Line 3488
	movzx	ecx, BYTE PTR [esi+65338]
	movzx	ecx, BYTE PTR _ADdllGenerated[ecx]
	movzx	eax, BYTE PTR _Channel$[ebp]
	imul	ecx, 5
	movzx	eax, WORD PTR [esi+eax*2+55494]
	add	eax, ecx
	movzx	ecx, BYTE PTR tv437[ebp]
	imul	eax, 3
	and	ecx, 15					; 0000000fH
	add	eax, ecx
	movzx	eax, WORD PTR _GranularityGenerated[eax*2]
	imul	eax, DWORD PTR _TempValue$[ebp]
	sub	DWORD PTR [edi], eax
$LN7@GetLinearF:
	inc	BYTE PTR _ElementIndex$[ebp]
	mov	al, BYTE PTR _ElementIndex$[ebp]
	cmp	al, BYTE PTR _NumberOfCCElementsGenerated
	jb	$LL30@GetLinearF
$LN6@GetLinearF:
	pop	edi
	pop	esi
; Line 3492
	xor	eax, eax
	pop	ebx
; Line 3493
	leave
	ret	0
_GetLinearFromRegs ENDP
_TEXT	ENDS
PUBLIC	_GetDdrioGroupLimits
; Function compile flags: /Ogspy
;	COMDAT _GetDdrioGroupLimits
_TEXT	SEGMENT
tv244 = -4						; size = 4
_MrcData$ = 8						; size = 4
_Socket$ = 12						; size = 1
_Channel$ = 16						; size = 1
_Dimm$ = 20						; size = 1
_Level$ = 24						; size = 1
_Type$ = 28						; size = 2
_ElementIndex$ = 31					; size = 1
_MaxLimit$ = 32						; size = 4
_WaitTime$ = 36						; size = 4
_GetDdrioGroupLimits PROC				; COMDAT
; Line 3522
	push	ebp
	mov	ebp, esp
	push	ecx
; Line 3528
	mov	eax, DWORD PTR _Type$[ebp]
	mov	ecx, 176				; 000000b0H
	cmp	ax, cx
	jae	SHORT $LN8@GetDdrioGr
; Line 3529
	movzx	eax, ax
	imul	eax, 44					; 0000002cH
	cmp	BYTE PTR _ElementsGenerated[eax+18], 255 ; 000000ffH
	je	SHORT $LN7@GetDdrioGr
; Line 3530
	mov	ecx, DWORD PTR _ElementsGenerated[eax+40]
	mov	edx, DWORD PTR _WaitTime$[ebp]
	mov	DWORD PTR [edx], ecx
; Line 3531
	mov	eax, DWORD PTR _ElementsGenerated[eax+36]
	mov	ecx, DWORD PTR _MaxLimit$[ebp]
	mov	DWORD PTR [ecx], eax
; Line 3532
	jmp	$LN2@GetDdrioGr
$LN7@GetDdrioGr:
; Line 3533
	mov	eax, DWORD PTR _WaitTime$[ebp]
	or	DWORD PTR [eax], -1
; Line 3534
	mov	eax, DWORD PTR _MaxLimit$[ebp]
	or	DWORD PTR [eax], -1
; Line 3536
	jmp	$LN2@GetDdrioGr
$LN8@GetDdrioGr:
; Line 3540
	mov	ecx, DWORD PTR _WaitTime$[ebp]
	xor	edx, edx
	push	esi
; Line 3541
	mov	esi, DWORD PTR _MaxLimit$[ebp]
	mov	DWORD PTR [ecx], edx
	mov	DWORD PTR [esi], edx
	push	edi
; Line 3546
	movzx	di, BYTE PTR _NumberOfElementsPerAlgoGenerated
	add	eax, -4096				; fffff000H
	imul	ax, di
	movzx	eax, ax
; Line 3548
	mov	BYTE PTR _ElementIndex$[ebp], dl
	cmp	BYTE PTR _NumberOfDelayElementsPerAlgoGenerated, dl
	jbe	SHORT $LN14@GetDdrioGr
	movzx	eax, ax
	mov	DWORD PTR tv244[ebp], eax
	push	ebx
$LL13@GetDdrioGr:
; Line 3554
	movzx	edx, BYTE PTR _ElementIndex$[ebp]
	mov	eax, DWORD PTR tv244[ebp]
	add	eax, edx
	imul	eax, 44					; 0000002cH
	cmp	BYTE PTR _ElementsGenerated[eax+18], 255 ; 000000ffH
	je	SHORT $LN3@GetDdrioGr
; Line 3555
	mov	edi, DWORD PTR _ElementsGenerated[eax+40]
	add	DWORD PTR [ecx], edi
; Line 3557
	movzx	ebx, BYTE PTR _Channel$[ebp]
	mov	edi, DWORD PTR _MrcData$[ebp]
	movzx	ebx, WORD PTR [edi+ebx*2+55494]
	movzx	edi, BYTE PTR [edi+65338]
	movzx	edi, BYTE PTR _ADdllGenerated[edi]
	imul	edi, 5
	add	ebx, edi
	imul	ebx, 3
	add	ebx, edx
	movzx	edx, WORD PTR _GranularityGenerated[ebx*2]
	imul	edx, DWORD PTR _ElementsGenerated[eax+36]
	add	DWORD PTR [esi], edx
$LN3@GetDdrioGr:
	inc	BYTE PTR _ElementIndex$[ebp]
	mov	al, BYTE PTR _ElementIndex$[ebp]
	cmp	al, BYTE PTR _NumberOfDelayElementsPerAlgoGenerated
	jb	SHORT $LL13@GetDdrioGr
	pop	ebx
$LN14@GetDdrioGr:
	pop	edi
	pop	esi
$LN2@GetDdrioGr:
; Line 3562
	xor	eax, eax
; Line 3563
	leave
	ret	0
_GetDdrioGroupLimits ENDP
_TEXT	ENDS
PUBLIC	_GetLocation
EXTRN	_RankToRegisterGenerated:BYTE
EXTRN	_StrobeToRegisterGenerated:BYTE
EXTRN	_InstancePortMapGenerated:BYTE
EXTRN	_GetMspHostStructureAddress:PROC
; Function compile flags: /Ogspy
;	COMDAT _GetLocation
_TEXT	SEGMENT
tv359 = -4						; size = 4
_MrcData$ = 8						; size = 4
_Element$ = 12						; size = 44
_Channel$ = 56						; size = 1
_Rank$ = 60						; size = 1
_Strobe$ = 64						; size = 1
_Bit$ = 68						; size = 1
_Instance$ = 72						; size = 4
_ByteOffset$ = 76					; size = 4
_StartingBit$ = 80					; size = 4
_EndingBit$ = 84					; size = 4
_GetLocation PROC					; COMDAT
; Line 3593
	push	ebp
	mov	ebp, esp
	push	ecx
	push	ebx
	push	esi
	push	edi
; Line 3596
	call	_GetMspHostStructureAddress
; Line 3600
	mov	bl, BYTE PTR _Element$[ebp+19]
	shr	bl, 6
	and	bl, 1
	jne	SHORT $LN18@GetLocatio
	test	BYTE PTR _Element$[ebp+19], 128		; 00000080H
	jne	SHORT $LN18@GetLocatio
; Line 3605
	movzx	eax, BYTE PTR _Rank$[ebp]
	mov	ecx, DWORD PTR _ByteOffset$[ebp]
; Line 3606
	mov	esi, DWORD PTR _StartingBit$[ebp]
; Line 3607
	mov	edi, DWORD PTR _EndingBit$[ebp]
	shl	eax, 2
	movzx	edx, WORD PTR _Element$[ebp+eax+2]
	add	DWORD PTR [ecx], edx
	mov	dl, BYTE PTR _Element$[ebp+eax+4]
	mov	al, BYTE PTR _Element$[ebp+eax+5]
	mov	BYTE PTR [esi], dl
; Line 3612
	mov	dl, BYTE PTR _Strobe$[ebp]
	mov	BYTE PTR [edi], al
	cmp	dl, 9
	jb	$LN13@GetLocatio
; Line 3616
	movsx	eax, WORD PTR _Element$[ebp+26]
	add	DWORD PTR [ecx], eax
; Line 3617
	mov	al, BYTE PTR _Element$[ebp+28]
	add	BYTE PTR [esi], al
; Line 3618
	add	BYTE PTR [edi], al
; Line 3622
	movzx	eax, BYTE PTR _Element$[ebp]
	shl	eax, 4
	cmp	BYTE PTR _InstancePortMapGenerated[eax+1], 1
	jbe	SHORT $LN13@GetLocatio
; Line 3626
	mov	ebx, DWORD PTR _Instance$[ebp]
	mov	al, dl
	sub	al, 9
	mov	BYTE PTR [ebx], al
; Line 3629
	jmp	SHORT $LN13@GetLocatio
$LN18@GetLocatio:
; Line 3633
	movzx	eax, BYTE PTR _Rank$[ebp]
	mov	ecx, DWORD PTR _ByteOffset$[ebp]
; Line 3634
	mov	esi, DWORD PTR _StartingBit$[ebp]
; Line 3635
	mov	edi, DWORD PTR _EndingBit$[ebp]
	shl	eax, 2
	movzx	edx, WORD PTR _Element$[ebp+eax+2]
	add	DWORD PTR [ecx], edx
	mov	dl, BYTE PTR _Element$[ebp+eax+4]
	mov	BYTE PTR [esi], dl
	mov	dl, BYTE PTR _Element$[ebp+eax+5]
	mov	BYTE PTR [edi], dl
; Line 3636
	mov	edx, DWORD PTR _Instance$[ebp]
	mov	BYTE PTR [edx], 0
; Line 3638
	cmp	bl, 1
	jne	SHORT $LN22@GetLocatio
; Line 3639
	movzx	ebx, BYTE PTR _Strobe$[ebp]
	shl	ebx, 2
	mov	DWORD PTR tv359[ebp], ebx
	mov	bl, BYTE PTR _StrobeToRegisterGenerated[ebx]
	mov	BYTE PTR [edx], bl
; Line 3640
	mov	ebx, DWORD PTR tv359[ebp]
	movsx	ebx, WORD PTR _StrobeToRegisterGenerated[ebx+2]
	add	DWORD PTR [ecx], ebx
$LN22@GetLocatio:
; Line 3642
	test	BYTE PTR _Element$[ebp+19], 128		; 00000080H
	je	SHORT $LN23@GetLocatio
; Line 3643
	mov	bl, BYTE PTR _RankToRegisterGenerated[eax]
	add	BYTE PTR [edx], bl
; Line 3644
	movsx	eax, WORD PTR _RankToRegisterGenerated[eax+2]
	add	DWORD PTR [ecx], eax
$LN23@GetLocatio:
	mov	dl, BYTE PTR _Strobe$[ebp]
$LN13@GetLocatio:
; Line 3650
	test	BYTE PTR _Element$[ebp+19], 16		; 00000010H
	je	SHORT $LN1@GetLocatio
; Line 3651
	mov	bl, 3
	cmp	dl, 4
	jb	SHORT $LN9@GetLocatio
	cmp	dl, 7
	jbe	SHORT $LN10@GetLocatio
$LN9@GetLocatio:
	sub	dl, 13					; 0000000dH
	cmp	dl, bl
	ja	SHORT $LN21@GetLocatio
$LN10@GetLocatio:
; Line 3660
	movzx	eax, BYTE PTR _Bit$[ebp]
	sub	eax, 0
	je	SHORT $LN6@GetLocatio
	dec	eax
	je	SHORT $LN7@GetLocatio
	dec	eax
	je	SHORT $LN4@GetLocatio
	dec	eax
; Line 3675
	jne	SHORT $LN4@GetLocatio
; Line 3671
	mov	bl, 1
; Line 3672
	jmp	SHORT $LN7@GetLocatio
$LN4@GetLocatio:
; Line 3668
	xor	bl, bl
; Line 3669
	jmp	SHORT $LN7@GetLocatio
$LN6@GetLocatio:
; Line 3662
	mov	bl, 2
	jmp	SHORT $LN7@GetLocatio
$LN21@GetLocatio:
	mov	bl, BYTE PTR _Bit$[ebp]
$LN7@GetLocatio:
; Line 3678
	movsx	eax, WORD PTR _Element$[ebp+30]
	movzx	edx, bl
	imul	eax, edx
	add	DWORD PTR [ecx], eax
; Line 3679
	mov	al, BYTE PTR _Element$[ebp+32]
	imul	bl
	add	BYTE PTR [esi], al
; Line 3680
	add	BYTE PTR [edi], al
; Line 3684
	movsx	eax, BYTE PTR _Element$[ebp+32]
	imul	eax, edx
	cmp	eax, 32					; 00000020H
	jl	SHORT $LN1@GetLocatio
; Line 3685
	cdq
	and	edx, 31					; 0000001fH
	add	eax, edx
	sar	eax, 5
	shl	eax, 2
	add	DWORD PTR [ecx], eax
$LN1@GetLocatio:
	pop	edi
	pop	esi
; Line 3689
	xor	eax, eax
	pop	ebx
; Line 3690
	leave
	ret	0
_GetLocation ENDP
_TEXT	ENDS
PUBLIC	_BytelaneMask
; Function compile flags: /Ogspy
;	COMDAT _BytelaneMask
_TEXT	SEGMENT
_MrcData$ = 8						; size = 4
_Mask$ = 12						; size = 4
_BytelaneMask PROC					; COMDAT
; Line 3703
	mov	eax, DWORD PTR _Mask$[esp-4]
	mov	DWORD PTR [eax], 1
; Line 3713
	xor	eax, eax
; Line 3714
	ret	0
_BytelaneMask ENDP
_TEXT	ENDS
PUBLIC	_CountOnes
; Function compile flags: /Ogspy
;	COMDAT _CountOnes
_TEXT	SEGMENT
_ErrorPerStrobe$ = 8					; size = 4
_CountOnes PROC						; COMDAT
; Line 4804
	mov	ecx, DWORD PTR _ErrorPerStrobe$[esp-4]
; Line 4805
	xor	al, al
	test	ecx, ecx
	je	SHORT $LN6@CountOnes
; Line 4814
	movzx	edx, BYTE PTR [ecx]
	push	esi
	push	edi
	push	4
	xor	ecx, ecx
	pop	esi
$LL4@CountOnes:
	xor	edi, edi
	inc	edi
	shl	edi, cl
	test	edi, edx
	je	SHORT $LN3@CountOnes
; Line 4810
	inc	al
$LN3@CountOnes:
; Line 4808
	inc	ecx
	dec	esi
	jne	SHORT $LL4@CountOnes
	pop	edi
	pop	esi
$LN6@CountOnes:
; Line 4815
	ret	0
_CountOnes ENDP
_TEXT	ENDS
PUBLIC	_ConfigureCwlStressTest
; Function compile flags: /Ogspy
;	COMDAT _ConfigureCwlStressTest
_TEXT	SEGMENT
_RankDynamicOffsets$ = -8				; size = 8
_MrcData$ = 8						; size = 4
_Channel$ = 12						; size = 1
_Rank$ = 16						; size = 1
_ConfigureCwlStressTest PROC				; COMDAT
; Line 4898
	push	ebp
	mov	ebp, esp
	push	ecx
	push	ecx
; Line 4902
	movzx	edx, BYTE PTR _Channel$[ebp]
	mov	ecx, DWORD PTR _MrcData$[ebp]
	imul	edx, 542				; 0000021eH
	mov	eax, 212				; 000000d4H
	mov	WORD PTR _RankDynamicOffsets$[ebp], ax
	add	eax, 49					; 00000031H
	mov	WORD PTR _RankDynamicOffsets$[ebp+2], ax
	mov	eax, 230				; 000000e6H
	mov	WORD PTR _RankDynamicOffsets$[ebp+4], ax
	add	eax, 50					; 00000032H
	mov	WORD PTR _RankDynamicOffsets$[ebp+6], ax
	movzx	eax, BYTE PTR _Rank$[ebp]
	movzx	eax, WORD PTR _RankDynamicOffsets$[ebp+eax*2]
	add	eax, edx
	mov	BYTE PTR [ecx+65583], 1
	cmp	DWORD PTR [ecx+eax*8+55526], 1
	jne	SHORT $LN2@ConfigureC
	cmp	DWORD PTR [ecx+eax*8+55530], 0
	jne	SHORT $LN2@ConfigureC
; Line 4903
	mov	BYTE PTR [ecx+65582], 3
; Line 4907
	leave
	ret	0
$LN2@ConfigureC:
; Line 4905
	mov	BYTE PTR [ecx+65582], 1
; Line 4907
	leave
	ret	0
_ConfigureCwlStressTest ENDP
_TEXT	ENDS
PUBLIC	_IsPairStrobeHealthy
; Function compile flags: /Ogspy
;	COMDAT _IsPairStrobeHealthy
_TEXT	SEGMENT
_MrcData$ = 8						; size = 4
_Channel$ = 12						; size = 1
_Rank$ = 16						; size = 1
_Strobe$ = 20						; size = 1
_FailingStrobes$ = 24					; size = 4
_ErrBitsPerStrobe$ = 28					; size = 4
_IsPairStrobeHealthy PROC				; COMDAT
; Line 4952
	mov	al, BYTE PTR _Strobe$[esp-4]
	cmp	al, 9
	jb	SHORT $LN5@IsPairStro
; Line 4953
	sub	al, 9
; Line 4954
	jmp	SHORT $LN4@IsPairStro
$LN5@IsPairStro:
; Line 4955
	add	al, 9
$LN4@IsPairStro:
; Line 4958
	movzx	ecx, al
	xor	eax, eax
	inc	eax
	mov	edx, eax
	shl	edx, cl
	test	DWORD PTR _FailingStrobes$[esp-4], edx
; Line 4959
	je	SHORT $LN1@IsPairStro
; Line 4961
	mov	eax, DWORD PTR _ErrBitsPerStrobe$[esp-4]
	add	ecx, eax
	push	ecx
	call	_CountOnes
	cmp	al, 3
	pop	ecx
	setb	al
$LN1@IsPairStro:
; Line 4967
	ret	0
_IsPairStrobeHealthy ENDP
_TEXT	ENDS
PUBLIC	_IsEccStrobe
; Function compile flags: /Ogspy
;	COMDAT _IsEccStrobe
_TEXT	SEGMENT
_MrcData$ = 8						; size = 4
_Channel$ = 12						; size = 1
_Strobe$ = 16						; size = 1
_IsEccStrobe PROC					; COMDAT
; Line 5417
	mov	cl, BYTE PTR _Strobe$[esp-4]
	mov	edx, DWORD PTR _MrcData$[esp-4]
	xor	eax, eax
	inc	eax
	shl	eax, cl
	movzx	ecx, BYTE PTR _Channel$[esp-4]
	test	eax, DWORD PTR [edx+ecx*4+55446]
	setne	al
; Line 5421
	ret	0
_IsEccStrobe ENDP
_TEXT	ENDS
PUBLIC	_IsStrobeValid
; Function compile flags: /Ogspy
;	COMDAT _IsStrobeValid
_TEXT	SEGMENT
_MrcData$ = 8						; size = 4
_Channel$ = 12						; size = 1
_Rank$ = 16						; size = 1
_Strobe$ = 20						; size = 1
_BitLevel$ = 24						; size = 1
_MaxBit$ = 28						; size = 4
_IsStrobeValid PROC					; COMDAT
; Line 5446
	push	ebp
	mov	ebp, esp
; Line 5452
	movzx	eax, BYTE PTR _Rank$[ebp]
	mov	ecx, DWORD PTR _Strobe$[ebp]
	push	ebx
	push	esi
	movzx	esi, BYTE PTR _Channel$[ebp]
	push	edi
	mov	edi, DWORD PTR _MrcData$[ebp]
	add	eax, edi
	lea	ebx, DWORD PTR [eax+esi*4]
	cmp	cl, BYTE PTR [ebx+55454]
	jae	SHORT $LN9@IsStrobeVa
	cmp	BYTE PTR [esi+edi+30686], 0
	jne	SHORT $LN10@IsStrobeVa
	push	ecx
	push	DWORD PTR _Channel$[ebp]
	push	edi
	call	_IsEccStrobe
	add	esp, 12					; 0000000cH
	test	al, al
	jne	SHORT $LN9@IsStrobeVa
	mov	ecx, DWORD PTR _Strobe$[ebp]
$LN10@IsStrobeVa:
; Line 5455
	mov	eax, DWORD PTR _MaxBit$[ebp]
	test	eax, eax
	je	SHORT $LN5@IsStrobeVa
; Line 5460
	cmp	BYTE PTR _BitLevel$[ebp], 0
	jne	SHORT $LN6@IsStrobeVa
; Line 5461
	mov	BYTE PTR [eax], 1
; Line 5462
	jmp	SHORT $LN5@IsStrobeVa
$LN6@IsStrobeVa:
; Line 5463
	mov	dl, BYTE PTR [ebx+55462]
	mov	BYTE PTR [eax], dl
$LN5@IsStrobeVa:
; Line 5466
	imul	esi, 4336				; 000010f0H
	cmp	DWORD PTR [esi+edi+56598], 1
	jne	SHORT $LN3@IsStrobeVa
	cmp	DWORD PTR [esi+edi+56602], 0
	jne	SHORT $LN3@IsStrobeVa
; Line 5467
	cmp	cl, 4
	jb	SHORT $LN1@IsStrobeVa
	cmp	cl, 7
	jbe	SHORT $LN9@IsStrobeVa
$LN1@IsStrobeVa:
	sub	cl, 13					; 0000000dH
	cmp	cl, 3
; Line 5468
	jbe	SHORT $LN9@IsStrobeVa
$LN3@IsStrobeVa:
; Line 5471
	mov	al, 1
	jmp	SHORT $LN8@IsStrobeVa
$LN9@IsStrobeVa:
; Line 5453
	xor	al, al
$LN8@IsStrobeVa:
	pop	edi
	pop	esi
	pop	ebx
; Line 5473
	pop	ebp
	ret	0
_IsStrobeValid ENDP
_TEXT	ENDS
PUBLIC	_SocOdtTraining
; Function compile flags: /Ogspy
;	COMDAT _SocOdtTraining
_TEXT	SEGMENT
_MrcData$ = 8						; size = 4
_CapsuleStartIndex$ = 12				; size = 2
_StringIndex$ = 16					; size = 2
_Channel$ = 20						; size = 1
_SocOdtTraining PROC					; COMDAT
; Line 6270
	xor	eax, eax
; Line 6271
	ret	0
_SocOdtTraining ENDP
_TEXT	ENDS
PUBLIC	_DimmOdtTraining
; Function compile flags: /Ogspy
;	COMDAT _DimmOdtTraining
_TEXT	SEGMENT
_MrcData$ = 8						; size = 4
_CapsuleStartIndex$ = 12				; size = 2
_StringIndex$ = 16					; size = 2
_Channel$ = 20						; size = 1
_DimmOdtTraining PROC					; COMDAT
; Line 6705
	xor	eax, eax
; Line 6706
	ret	0
_DimmOdtTraining ENDP
_TEXT	ENDS
PUBLIC	_GetLowHighMarginPerStrobe
EXTRN	_BreakStrobeLoop:PROC
; Function compile flags: /Ogspy
;	COMDAT _GetLowHighMarginPerStrobe
_TEXT	SEGMENT
_RmtMinLeftMargin$ = -12				; size = 2
_RmtMinRightMargin$ = -8				; size = 2
_Strobe$ = -4						; size = 1
tv302 = 8						; size = 4
_MrcData$ = 8						; size = 4
_Channel$ = 12						; size = 1
_Rank$ = 16						; size = 1
_Results$ = 20						; size = 4
_CurrentValue$ = 24					; size = 4
_DelaySignal$ = 28					; size = 2
_RmtLowDataOffset$ = 32					; size = 1
_RmtHighDataOffset$ = 36				; size = 1
_GetLowHighMarginPerStrobe PROC				; COMDAT
; Line 7131
	push	ebp
	mov	ebp, esp
	sub	esp, 12					; 0000000cH
	push	ebx
	push	esi
	push	edi
; Line 7154
	mov	edi, DWORD PTR _MrcData$[ebp]
	mov	DWORD PTR _RmtMinLeftMargin$[ebp], -32767 ; ffff8001H
	mov	DWORD PTR _RmtMinRightMargin$[ebp], 32767 ; 00007fffH
	mov	BYTE PTR _Strobe$[ebp], 0
$LL15@GetLowHigh:
; Line 7155
	push	0
	push	0
	push	DWORD PTR _Strobe$[ebp]
	push	DWORD PTR _Rank$[ebp]
	push	DWORD PTR _Channel$[ebp]
	push	edi
	call	_IsStrobeValid
	add	esp, 24					; 00000018H
	test	al, al
	je	$LN7@GetLowHigh
; Line 7159
	movzx	ecx, BYTE PTR _Channel$[ebp]
	movzx	esi, BYTE PTR _Strobe$[ebp]
	mov	edx, DWORD PTR _Results$[ebp]
	mov	eax, ecx
	imul	eax, 18					; 00000012H
	add	eax, esi
	shl	eax, 5
	add	eax, edx
	mov	edx, DWORD PTR _CurrentValue$[ebp]
	movzx	edx, WORD PTR [edx+esi*4]
	mov	bx, WORD PTR [eax]
	sub	bx, dx
	mov	DWORD PTR tv302[ebp], edx
	movzx	edx, bx
; Line 7160
	cmp	dx, WORD PTR _RmtMinLeftMargin$[ebp]
	jle	SHORT $LN4@GetLowHigh
; Line 7161
	movzx	ebx, dx
	mov	DWORD PTR _RmtMinLeftMargin$[ebp], ebx
$LN4@GetLowHigh:
; Line 7164
	mov	ax, WORD PTR [eax+2]
	sub	ax, WORD PTR tv302[ebp]
	movzx	eax, ax
; Line 7165
	cmp	ax, WORD PTR _RmtMinRightMargin$[ebp]
	jge	SHORT $LN3@GetLowHigh
; Line 7166
	movzx	ebx, ax
	mov	DWORD PTR _RmtMinRightMargin$[ebp], ebx
$LN3@GetLowHigh:
; Line 7168
	sub	eax, edx
	movzx	edx, BYTE PTR _Rank$[ebp]
	lea	edx, DWORD PTR [edx+ecx*4]
	imul	edx, 18					; 00000012H
	add	edx, esi
	mov	WORD PTR [edi+edx*2+65006], ax
; Line 7173
	cmp	BYTE PTR [ecx+edi+31272], 7
	jne	SHORT $LN13@GetLowHigh
	mov	eax, 57360				; 0000e010H
	cmp	WORD PTR _DelaySignal$[ebp], ax
	je	SHORT $LN7@GetLowHigh
$LN13@GetLowHigh:
; Line 7178
	lea	eax, DWORD PTR _Strobe$[ebp]
	push	eax
	push	DWORD PTR _DelaySignal$[ebp]
	push	edi
	call	_BreakStrobeLoop
	add	esp, 12					; 0000000cH
$LN7@GetLowHigh:
	inc	BYTE PTR _Strobe$[ebp]
	cmp	BYTE PTR _Strobe$[ebp], 18		; 00000012H
	jb	$LL15@GetLowHigh
; Line 7185
	movzx	ecx, BYTE PTR _Rank$[ebp]
	movzx	eax, BYTE PTR _Channel$[ebp]
	mov	dx, WORD PTR _RmtMinRightMargin$[ebp]
	lea	eax, DWORD PTR [ecx+eax*4]
	movzx	ecx, BYTE PTR _RmtHighDataOffset$[ebp]
	imul	eax, 14					; 0000000eH
	add	ecx, eax
	mov	WORD PTR [edi+ecx*2+64782], dx
; Line 7186
	movzx	ecx, BYTE PTR _RmtLowDataOffset$[ebp]
	add	ecx, eax
	mov	ax, WORD PTR _RmtMinLeftMargin$[ebp]
	mov	WORD PTR [edi+ecx*2+64782], ax
	pop	edi
	pop	esi
; Line 7188
	xor	eax, eax
	pop	ebx
; Line 7189
	leave
	ret	0
_GetLowHighMarginPerStrobe ENDP
_TEXT	ENDS
PUBLIC	_GetIndexBasedOnFastBootParameter
; Function compile flags: /Ogspy
;	COMDAT _GetIndexBasedOnFastBootParameter
_TEXT	SEGMENT
_inputParameter$ = 8					; size = 1
_GetIndexBasedOnFastBootParameter PROC			; COMDAT
; Line 7196
	movzx	eax, BYTE PTR _inputParameter$[esp-4]
	sub	eax, 0
	je	SHORT $LN6@GetIndexBa
	dec	eax
	je	SHORT $LN5@GetIndexBa
	dec	eax
	je	SHORT $LN4@GetIndexBa
	dec	eax
	je	SHORT $LN3@GetIndexBa
	dec	eax
	je	SHORT $LN2@GetIndexBa
; Line 7213
	mov	eax, 255				; 000000ffH
; Line 7215
	ret	0
$LN2@GetIndexBa:
; Line 7210
	mov	eax, 57360				; 0000e010H
; Line 7215
	ret	0
$LN3@GetIndexBa:
; Line 7207
	mov	eax, 16387				; 00004003H
; Line 7215
	ret	0
$LN4@GetIndexBa:
; Line 7204
	mov	eax, 57349				; 0000e005H
; Line 7215
	ret	0
$LN5@GetIndexBa:
; Line 7201
	mov	eax, 57347				; 0000e003H
; Line 7215
	ret	0
$LN6@GetIndexBa:
; Line 7198
	mov	eax, 57348				; 0000e004H
; Line 7215
	ret	0
_GetIndexBasedOnFastBootParameter ENDP
_TEXT	ENDS
PUBLIC	_PrintCommandLowHigh
; Function compile flags: /Ogspy
;	COMDAT _PrintCommandLowHigh
_TEXT	SEGMENT
_Command$ = 8						; size = 1
_LowValue$ = 12						; size = 4
_HighValue$ = 16					; size = 4
_DefaultValue$ = 20					; size = 4
_PrintCommandLowHigh PROC				; COMDAT
; Line 8428
	xor	eax, eax
; Line 8429
	ret	0
_PrintCommandLowHigh ENDP
_TEXT	ENDS
PUBLIC	_PhyViewTable
; Function compile flags: /Ogspy
;	COMDAT _PhyViewTable
_TEXT	SEGMENT
_MrcData$ = 8						; size = 4
_CapsuleStartIndex$ = 12				; size = 2
_StringIndex$ = 16					; size = 2
_Channel$ = 20						; size = 1
_PhyViewTable PROC					; COMDAT
; Line 9373
	xor	eax, eax
; Line 9374
	ret	0
_PhyViewTable ENDP
_TEXT	ENDS
PUBLIC	_PerformanceSetting
; Function compile flags: /Ogspy
;	COMDAT _PerformanceSetting
_TEXT	SEGMENT
_MrcData$ = 8						; size = 4
_CapsuleStartIndex$ = 12				; size = 2
_StringIndex$ = 16					; size = 2
_Channel$ = 20						; size = 1
_PerformanceSetting PROC				; COMDAT
; Line 9572
	xor	eax, eax
; Line 9573
	ret	0
_PerformanceSetting ENDP
_TEXT	ENDS
PUBLIC	_DisplayTrainingResultsHeader
; Function compile flags: /Ogspy
;	COMDAT _DisplayTrainingResultsHeader
_TEXT	SEGMENT
_MrcData$ = 8						; size = 4
_Channel$ = 12						; size = 1
_SignalNameLength$ = 16					; size = 1
_DisplayTrainingResultsHeader PROC			; COMDAT
; Line 9747
	xor	eax, eax
; Line 9748
	ret	0
_DisplayTrainingResultsHeader ENDP
_TEXT	ENDS
PUBLIC	_MmrcExecuteTask
EXTRN	_MspExecuteTask:PROC
; Function compile flags: /Ogspy
;	COMDAT _MmrcExecuteTask
_TEXT	SEGMENT
_MrcData$ = 8						; size = 4
_CapsuleStartIndex$ = 12				; size = 2
_StringIndex$ = 16					; size = 2
_Channel$ = 20						; size = 1
_MmrcExecuteTask PROC					; COMDAT
; Line 10124
	push	DWORD PTR _Channel$[esp-4]
	mov	eax, DWORD PTR _MrcData$[esp]
	push	DWORD PTR _StringIndex$[esp]
	add	eax, 55486				; 0000d8beH
	push	DWORD PTR _CapsuleStartIndex$[esp+4]
	push	0
	push	eax
	call	_MspExecuteTask
	add	esp, 20					; 00000014H
; Line 10125
	ret	0
_MmrcExecuteTask ENDP
_TEXT	ENDS
PUBLIC	_SpreadBitResults
; Function compile flags: /Ogspy
;	COMDAT _SpreadBitResults
_TEXT	SEGMENT
_MrcData$ = 8						; size = 4
_MaximumBits$ = 12					; size = 1
_PerBitSweep$ = 16					; size = 1
_Bit0Result$ = 20					; size = 4
_LowHighFlag$ = 20					; size = 1
_PassFailPerBit$ = 24					; size = 4
_Results$ = 28						; size = 4
_ResultsB0Backup$ = 32					; size = 4
_SpreadBitResults PROC					; COMDAT
; Line 10468
	push	ebp
	mov	ebp, esp
; Line 10472
	movzx	eax, BYTE PTR _LowHighFlag$[ebp]
	push	esi
	push	edi
	mov	edi, DWORD PTR _Results$[ebp]
	lea	edx, DWORD PTR [eax+eax]
	mov	cx, WORD PTR [edx+edi]
	lea	esi, DWORD PTR _Bit0Result$[ebp+edx]
	mov	WORD PTR [esi], cx
; Line 10474
	mov	cl, BYTE PTR _MaximumBits$[ebp]
	cmp	cl, 1
	jbe	SHORT $LN5@SpreadBitR
	push	ebx
	mov	ebx, DWORD PTR _PassFailPerBit$[ebp]
	add	ebx, 3
	dec	cl
	lea	eax, DWORD PTR [edi+eax*2+4]
	movzx	ecx, cl
$LL7@SpreadBitR:
; Line 10475
	cmp	BYTE PTR _PerBitSweep$[ebp], 0
	je	SHORT $LN4@SpreadBitR
; Line 10476
	cmp	BYTE PTR [ebx], 0
	jne	SHORT $LN6@SpreadBitR
$LN4@SpreadBitR:
; Line 10480
	mov	di, WORD PTR [esi]
	mov	WORD PTR [eax], di
$LN6@SpreadBitR:
	add	ebx, 3
	add	eax, 4
	dec	ecx
	jne	SHORT $LL7@SpreadBitR
	pop	ebx
$LN5@SpreadBitR:
; Line 10483
	mov	eax, DWORD PTR _PassFailPerBit$[ebp]
	cmp	BYTE PTR [eax], 0
	jne	SHORT $LN1@SpreadBitR
; Line 10484
	mov	ax, WORD PTR [esi]
	mov	ecx, DWORD PTR _ResultsB0Backup$[ebp]
	mov	WORD PTR [edx+ecx], ax
$LN1@SpreadBitR:
	pop	edi
	pop	esi
; Line 10486
	pop	ebp
	ret	0
_SpreadBitResults ENDP
_TEXT	ENDS
PUBLIC	_DeterminePassFailPerStrobe
; Function compile flags: /Ogspy
;	COMDAT _DeterminePassFailPerStrobe
_TEXT	SEGMENT
_PassFailPerStrobe$ = -1				; size = 1
_MrcData$ = 8						; size = 4
_MaximumBits$ = 12					; size = 1
_PerBitSweep$ = 16					; size = 1
_PassFailPerBit$ = 20					; size = 4
_SampleIndex$ = 24					; size = 1
_DeterminePassFailPerStrobe PROC			; COMDAT
; Line 10513
	push	ebp
	mov	ebp, esp
	push	ecx
; Line 10517
	cmp	BYTE PTR _PerBitSweep$[ebp], 0
	setne	BYTE PTR _PassFailPerStrobe$[ebp]
; Line 10522
	cmp	BYTE PTR _SampleIndex$[ebp], 2
	jne	SHORT $LN16@DetermineP
; Line 10523
	mov	BYTE PTR _PassFailPerStrobe$[ebp], 255	; 000000ffH
$LN16@DetermineP:
	push	ebx
; Line 10526
	xor	bl, bl
	cmp	BYTE PTR _MaximumBits$[ebp], bl
	jbe	SHORT $LN13@DetermineP
	mov	edx, DWORD PTR _PassFailPerBit$[ebp]
$LL28@DetermineP:
; Line 10527
	mov	al, BYTE PTR _SampleIndex$[ebp]
	test	al, al
	je	SHORT $LN11@DetermineP
	cmp	al, 1
	je	SHORT $LN11@DetermineP
; Line 10544
	cmp	al, 2
	jne	SHORT $LN14@DetermineP
; Line 10545
	movzx	eax, bl
	imul	eax, 3
	mov	cl, BYTE PTR [eax+edx+2]
	cmp	cl, 255					; 000000ffH
	je	SHORT $LN25@DetermineP
; Line 10547
	cmp	cl, BYTE PTR _PassFailPerStrobe$[ebp]
	jae	SHORT $LN14@DetermineP
; Line 10548
	mov	BYTE PTR _PassFailPerStrobe$[ebp], cl
	jmp	SHORT $LN14@DetermineP
$LN11@DetermineP:
; Line 10528
	movzx	ecx, bl
	imul	ecx, 3
	movzx	eax, al
	add	ecx, edx
	mov	cl, BYTE PTR [eax+ecx]
	test	cl, cl
	jne	SHORT $LN30@DetermineP
	cmp	BYTE PTR _PerBitSweep$[ebp], cl
	jne	SHORT $LN23@DetermineP
$LN30@DetermineP:
; Line 10534
	cmp	cl, 1
	jne	SHORT $LN8@DetermineP
	cmp	BYTE PTR _PerBitSweep$[ebp], 0
	je	SHORT $LN24@DetermineP
$LN8@DetermineP:
; Line 10540
	cmp	cl, 255					; 000000ffH
	je	SHORT $LN25@DetermineP
$LN14@DetermineP:
; Line 10526
	inc	bl
	cmp	bl, BYTE PTR _MaximumBits$[ebp]
	jb	SHORT $LL28@DetermineP
$LN13@DetermineP:
; Line 10552
	mov	al, BYTE PTR _PassFailPerStrobe$[ebp]
$LN19@DetermineP:
	pop	ebx
; Line 10553
	leave
	ret	0
$LN23@DetermineP:
; Line 10532
	mov	BYTE PTR _PassFailPerStrobe$[ebp], 0
	jmp	SHORT $LN13@DetermineP
$LN24@DetermineP:
; Line 10538
	mov	BYTE PTR _PassFailPerStrobe$[ebp], 1
	jmp	SHORT $LN13@DetermineP
$LN25@DetermineP:
; Line 10541
	or	al, 255					; 000000ffH
	jmp	SHORT $LN19@DetermineP
_DeterminePassFailPerStrobe ENDP
_TEXT	ENDS
PUBLIC	_FoundEdge
; Function compile flags: /Ogspy
;	COMDAT _FoundEdge
_TEXT	SEGMENT
tv534 = -8						; size = 4
_FoundAllEdges$ = -1					; size = 1
_MrcData$ = 8						; size = 4
_MaximumBits$ = 12					; size = 1
_PerBitSweep$ = 16					; size = 1
_PassFail$ = 20						; size = 4
_DitherVal$ = 24					; size = 1
_FoundEdge PROC						; COMDAT
; Line 11160
	push	ebp
	mov	ebp, esp
	push	ecx
	push	ecx
	push	ebx
; Line 11170
	mov	ebx, DWORD PTR _MaximumBits$[ebp]
	push	edi
	mov	edi, DWORD PTR _PassFail$[ebp]
	push	2
	push	edi
	push	DWORD PTR _PerBitSweep$[ebp]
	push	ebx
	push	DWORD PTR _MrcData$[ebp]
	call	_DeterminePassFailPerStrobe
	add	esp, 20					; 00000014H
	cmp	al, 255					; 000000ffH
	jne	SHORT $LN15@FoundEdge
; Line 11171
	test	bl, bl
	jbe	SHORT $LN12@FoundEdge
	lea	eax, DWORD PTR [edi+1]
	movzx	ecx, bl
$LL14@FoundEdge:
; Line 11176
	mov	dl, BYTE PTR [eax-1]
	mov	BYTE PTR [eax+1], 0
	mov	BYTE PTR [eax], dl
	add	eax, 3
	dec	ecx
	jne	SHORT $LL14@FoundEdge
$LN12@FoundEdge:
; Line 11178
	xor	al, al
	jmp	SHORT $LN16@FoundEdge
$LN15@FoundEdge:
	push	esi
; Line 11184
	mov	cl, 1
; Line 11185
	test	bl, bl
	jbe	SHORT $LN7@FoundEdge
	lea	eax, DWORD PTR [edi+2]
	movzx	esi, bl
$LL11@FoundEdge:
; Line 11186
	mov	dl, BYTE PTR [eax-1]
	cmp	dl, BYTE PTR [eax-2]
	jne	SHORT $LN10@FoundEdge
; Line 11187
	xor	cl, cl
	mov	BYTE PTR [eax], cl
$LN10@FoundEdge:
	add	eax, 3
	dec	esi
	jne	SHORT $LL11@FoundEdge
; Line 11191
	test	cl, cl
	jne	SHORT $LN7@FoundEdge
; Line 11192
	xor	al, al
	jmp	SHORT $LN26@FoundEdge
$LN7@FoundEdge:
; Line 11200
	mov	BYTE PTR _FoundAllEdges$[ebp], 0
; Line 11201
	test	bl, bl
	jbe	SHORT $LN4@FoundEdge
	movzx	eax, bl
	lea	esi, DWORD PTR [edi+2]
	mov	DWORD PTR tv534[ebp], eax
$LL6@FoundEdge:
; Line 11202
	mov	al, BYTE PTR [esi-1]
	cmp	al, BYTE PTR [esi-2]
	je	SHORT $LN5@FoundEdge
; Line 11203
	mov	al, BYTE PTR [esi]
	cmp	BYTE PTR _DitherVal$[ebp], al
	jbe	SHORT $LN2@FoundEdge
; Line 11204
	inc	al
	mov	BYTE PTR [esi], al
$LN2@FoundEdge:
; Line 11206
	push	2
	push	edi
	push	DWORD PTR _PerBitSweep$[ebp]
	push	ebx
	push	DWORD PTR _MrcData$[ebp]
	call	_DeterminePassFailPerStrobe
	add	esp, 20					; 00000014H
	cmp	al, BYTE PTR _DitherVal$[ebp]
	jb	SHORT $LN5@FoundEdge
; Line 11207
	mov	BYTE PTR _FoundAllEdges$[ebp], 1
$LN5@FoundEdge:
; Line 11201
	add	esi, 3
	dec	DWORD PTR tv534[ebp]
	jne	SHORT $LL6@FoundEdge
$LN4@FoundEdge:
; Line 11211
	mov	al, BYTE PTR _FoundAllEdges$[ebp]
$LN26@FoundEdge:
	pop	esi
$LN16@FoundEdge:
	pop	edi
	pop	ebx
; Line 11212
	leave
	ret	0
_FoundEdge ENDP
_TEXT	ENDS
PUBLIC	_PrechargeAll
EXTRN	_WriteDramCommandSideWrap:PROC
; Function compile flags: /Ogspy
;	COMDAT _PrechargeAll
_TEXT	SEGMENT
_MrcData$ = 8						; size = 4
_Channel$ = 12						; size = 1
_Rank$ = 16						; size = 1
_PrechargeAll PROC					; COMDAT
; Line 12323
	push	ebp
	mov	ebp, esp
; Line 12336
	movzx	eax, BYTE PTR _Channel$[ebp]
	push	ebx
	push	esi
	mov	esi, DWORD PTR _MrcData$[ebp]
	mov	bl, BYTE PTR [esi+55508]
	mov	BYTE PTR [esi+55508], 0
	cmp	BYTE PTR [eax+esi+31272], 3
; Line 12342
	movzx	eax, BYTE PTR _Rank$[ebp]
	ja	SHORT $LN2@PrechargeA
	and	eax, 3
	shl	eax, 22					; 00000016H
	or	eax, 65538				; 00010002H
; Line 12343
	jmp	SHORT $LN1@PrechargeA
$LN2@PrechargeA:
; Line 12354
	and	eax, 3
	shl	eax, 26					; 0000001aH
	or	eax, 262154				; 0004000aH
$LN1@PrechargeA:
; Line 12356
	push	eax
	push	DWORD PTR _Rank$[ebp]
	push	DWORD PTR _Channel$[ebp]
	push	esi
	call	_WriteDramCommandSideWrap
	add	esp, 16					; 00000010H
; Line 12358
	mov	BYTE PTR [esi+55508], bl
	pop	esi
; Line 12360
	xor	eax, eax
	pop	ebx
; Line 12361
	pop	ebp
	ret	0
_PrechargeAll ENDP
_TEXT	ENDS
PUBLIC	_NopCommands
; Function compile flags: /Ogspy
;	COMDAT _NopCommands
_TEXT	SEGMENT
_MrcData$ = 8						; size = 4
_Channel$ = 12						; size = 1
_Rank$ = 16						; size = 1
_NopCommands PROC					; COMDAT
; Line 12378
	push	ebp
	mov	ebp, esp
; Line 12391
	movzx	eax, BYTE PTR _Channel$[ebp]
	push	ebx
	push	esi
	mov	esi, DWORD PTR _MrcData$[ebp]
	mov	bl, BYTE PTR [esi+55508]
	mov	BYTE PTR [esi+55508], 0
	cmp	BYTE PTR [eax+esi+31272], 3
; Line 12397
	movzx	eax, BYTE PTR _Rank$[ebp]
	ja	SHORT $LN2@NopCommand
	and	eax, 3
	shl	eax, 22					; 00000016H
	or	eax, 7
; Line 12398
	jmp	SHORT $LN1@NopCommand
$LN2@NopCommand:
; Line 12409
	and	eax, 3
	shl	eax, 26					; 0000001aH
	or	eax, 15					; 0000000fH
$LN1@NopCommand:
; Line 12411
	push	eax
	push	DWORD PTR _Rank$[ebp]
	push	DWORD PTR _Channel$[ebp]
	push	esi
	call	_WriteDramCommandSideWrap
	add	esp, 16					; 00000010H
; Line 12413
	mov	BYTE PTR [esi+55508], bl
	pop	esi
; Line 12415
	xor	eax, eax
	pop	ebx
; Line 12416
	pop	ebp
	ret	0
_NopCommands ENDP
_TEXT	ENDS
PUBLIC	_ScrubMemory
EXTRN	_MemInitPerDimm:PROC
EXTRN	_IsAdrFlow:PROC
; Function compile flags: /Ogspy
;	COMDAT _ScrubMemory
_TEXT	SEGMENT
_MrcData$ = 8						; size = 4
_BackupEnable$ = 11					; size = 1
_CapsuleStartIndex$ = 12				; size = 2
_StringIndex$ = 16					; size = 2
_Channel$ = 20						; size = 1
_ScrubMemory PROC					; COMDAT
; Line 12938
	push	ebp
	mov	ebp, esp
	push	ebx
	push	esi
; Line 12943
	mov	esi, DWORD PTR _MrcData$[ebp]
	mov	al, BYTE PTR [esi+55509]
	push	edi
; Line 12944
	xor	ebx, ebx
	xor	edi, edi
	mov	BYTE PTR _BackupEnable$[ebp], al
; Line 12948
	cmp	BYTE PTR [esi+65479], bl
; Line 12950
	jne	SHORT $LN11@ScrubMemor
; Line 12951
	cmp	BYTE PTR [esi+65478], bl
	je	SHORT $LN6@ScrubMemor
	mov	al, BYTE PTR [esi+31274]
	cmp	al, 1
	je	SHORT $LN3@ScrubMemor
	cmp	al, 16					; 00000010H
; Line 12956
	je	SHORT $LN3@ScrubMemor
$LN6@ScrubMemor:
	test	BYTE PTR [esi+71008], 4
	jne	SHORT $LN3@ScrubMemor
	push	esi
	call	_IsAdrFlow
	pop	ecx
	test	al, al
	jne	SHORT $LN3@ScrubMemor
$LN11@ScrubMemor:
; Line 12961
	push	DWORD PTR _Channel$[ebp]
	push	esi
	call	_MemInitPerDimm
	pop	ecx
	mov	edi, eax
	pop	ecx
$LN3@ScrubMemor:
; Line 12963
	movzx	eax, BYTE PTR _Channel$[ebp]
; Line 12965
	push	DWORD PTR _Channel$[ebp]
	push	ebx
	cmp	BYTE PTR [eax+esi+30686], bl
	je	SHORT $LN2@ScrubMemor
	imul	eax, 4336				; 000010f0H
	push	11739					; 00002ddbH
	push	esi
	mov	DWORD PTR [eax+esi+56590], 3
	mov	DWORD PTR [eax+esi+56594], ebx
	call	_MmrcExecuteTask
; Line 12967
	push	DWORD PTR _Channel$[ebp]
	mov	BYTE PTR [esi+55509], 1
	push	ebx
	push	11754					; 00002deaH
	push	esi
	call	_MmrcExecuteTask
; Line 12968
	mov	al, BYTE PTR _BackupEnable$[ebp]
	add	esp, 32					; 00000020H
	mov	BYTE PTR [esi+55509], al
; Line 12971
	jmp	SHORT $LN1@ScrubMemor
$LN2@ScrubMemor:
; Line 12972
	imul	eax, 4336				; 000010f0H
; Line 12973
	push	7633					; 00001dd1H
	push	esi
	mov	DWORD PTR [eax+esi+56590], ebx
	mov	DWORD PTR [eax+esi+56594], ebx
	call	_MmrcExecuteTask
	add	esp, 16					; 00000010H
$LN1@ScrubMemor:
; Line 12975
	mov	eax, edi
	pop	edi
	pop	esi
	pop	ebx
; Line 12979
	pop	ebp
	ret	0
_ScrubMemory ENDP
_TEXT	ENDS
PUBLIC	_DisplayInformation
; Function compile flags: /Ogspy
;	COMDAT _DisplayInformation
_TEXT	SEGMENT
tv228 = -12						; size = 4
tv287 = -8						; size = 4
tv601 = -4						; size = 4
tv576 = 8						; size = 4
_MrcData$ = 8						; size = 4
_CapsuleStartIndex$ = 12				; size = 2
_StringIndex$ = 16					; size = 2
tv471 = 20						; size = 4
_Channel$ = 20						; size = 1
_DisplayInformation PROC				; COMDAT
; Line 13000
	push	ebp
	mov	ebp, esp
; Line 13010
	mov	edx, DWORD PTR _MrcData$[ebp]
	sub	esp, 12					; 0000000cH
	push	edi
	movzx	edi, BYTE PTR _Channel$[ebp]
	mov	al, BYTE PTR [edi+edx+31272]
	cmp	al, 3
	jbe	SHORT $LN22@DisplayInf
; Line 13013
	cmp	al, 7
	jne	$LN23@DisplayInf
$LN22@DisplayInf:
; Line 13061
	lea	eax, DWORD PTR [edx+edi*4+55438]
	mov	DWORD PTR tv601[ebp], eax
	mov	eax, edi
	imul	eax, 564				; 00000234H
	push	ebx
	mov	DWORD PTR tv576[ebp], OFFSET _MrsCommandIndex
	lea	eax, DWORD PTR [eax+edx+25988]
	mov	DWORD PTR tv228[ebp], 4
	push	esi
$LL36@DisplayInf:
; Line 13062
	mov	ecx, DWORD PTR tv601[ebp]
	cmp	BYTE PTR [ecx], 0
	je	SHORT $LN5@DisplayInf
; Line 13063
	mov	esi, DWORD PTR tv576[ebp]
	mov	ecx, edi
	mov	DWORD PTR tv471[ebp], esi
	imul	ecx, 542				; 0000021eH
	mov	BYTE PTR [eax], 1
	lea	esi, DWORD PTR [eax-140]
	mov	DWORD PTR tv287[ebp], 35		; 00000023H
$LL3@DisplayInf:
; Line 13070
	mov	ebx, DWORD PTR tv471[ebp]
	movzx	ebx, WORD PTR [ebx]
	add	DWORD PTR tv471[ebp], 2
	add	ebx, ecx
	mov	ebx, DWORD PTR [edx+ebx*8+55526]
	mov	DWORD PTR [esi], ebx
	add	esi, 4
	dec	DWORD PTR tv287[ebp]
	jne	SHORT $LL3@DisplayInf
; Line 13073
	jmp	SHORT $LN7@DisplayInf
$LN5@DisplayInf:
; Line 13065
	mov	BYTE PTR [eax], 0
$LN7@DisplayInf:
; Line 13061
	add	DWORD PTR tv576[ebp], 70		; 00000046H
	add	eax, 141				; 0000008dH
	inc	DWORD PTR tv601[ebp]
	dec	DWORD PTR tv228[ebp]
	jne	SHORT $LL36@DisplayInf
	pop	esi
	pop	ebx
$LN23@DisplayInf:
; Line 13017
	xor	eax, eax
	pop	edi
; Line 13077
	leave
	ret	0
_DisplayInformation ENDP
_TEXT	ENDS
PUBLIC	_SaveMrcHostStructureAddress
; Function compile flags: /Ogspy
;	COMDAT _SaveMrcHostStructureAddress
_TEXT	SEGMENT
_MrcDataAddress$ = 8					; size = 4
_SaveMrcHostStructureAddress PROC			; COMDAT
; Line 13179
	movd	mm3, DWORD PTR _MrcDataAddress$[esp-4]
; Line 13183
	ret	0
_SaveMrcHostStructureAddress ENDP
_TEXT	ENDS
PUBLIC	_GetMrcHostStructureAddress
; Function compile flags: /Ogspy
;	COMDAT _GetMrcHostStructureAddress
_TEXT	SEGMENT
_MrcData$ = -4						; size = 4
_GetMrcHostStructureAddress PROC			; COMDAT
; Line 13193
	push	ecx
; Line 13207
	movd	DWORD PTR _MrcData$[esp+4], mm3
; Line 13210
	mov	eax, DWORD PTR _MrcData$[esp+4]
; Line 13212
	pop	ecx
	ret	0
_GetMrcHostStructureAddress ENDP
_TEXT	ENDS
PUBLIC	_PrintMemoryErrorCode
; Function compile flags: /Ogspy
;	COMDAT _PrintMemoryErrorCode
_TEXT	SEGMENT
_PostCode$ = 8						; size = 1
_IndexError$ = 12					; size = 1
_PrintMemoryErrorCode PROC				; COMDAT
; Line 13229
	ret	0
_PrintMemoryErrorCode ENDP
_TEXT	ENDS
PUBLIC	_MrcDeadLoop
EXTRN	_OemMemoryErrorCode:PROC
; Function compile flags: /Ogspy
;	COMDAT _MrcDeadLoop
_TEXT	SEGMENT
_DeadLoopVar$ = -8					; size = 4
_MrcData$41767 = -4					; size = 4
_MrcDeadLoop PROC					; COMDAT
; Line 13233
	push	ebp
	mov	ebp, esp
	push	ecx
	push	ecx
; Line 13240
	mov	DWORD PTR _DeadLoopVar$[ebp], 1
; Line 13241
	movd	DWORD PTR _MrcData$41767[ebp], mm3
	mov	eax, DWORD PTR _MrcData$41767[ebp]
; Line 13242
	mov	BYTE PTR [eax+55508], 0
; Line 13264
	movzx	eax, BYTE PTR [eax+65333]
	push	eax
	call	_OemMemoryErrorCode
	pop	ecx
$LL2@MrcDeadLoo:
; Line 13273
	mov	eax, DWORD PTR _DeadLoopVar$[ebp]
	test	eax, eax
	jne	SHORT $LL2@MrcDeadLoo
; Line 13274
	leave
	ret	0
_MrcDeadLoop ENDP
_TEXT	ENDS
PUBLIC	_EarlyCommandTraining
; Function compile flags: /Ogspy
;	COMDAT _EarlyCommandTraining
_TEXT	SEGMENT
_MrcData$ = 8						; size = 4
_CapsuleStartIndex$ = 12				; size = 2
_StringIndex$ = 16					; size = 2
_Channel$ = 20						; size = 1
_EarlyCommandTraining PROC				; COMDAT
; Line 13455
	xor	eax, eax
; Line 13456
	ret	0
_EarlyCommandTraining ENDP
_TEXT	ENDS
PUBLIC	_memcpy
; Function compile flags: /Ogspy
;	COMDAT _memcpy
_TEXT	SEGMENT
_dst$ = 8						; size = 4
_src$ = 12						; size = 4
_cnt$ = 16						; size = 4
_memcpy	PROC						; COMDAT
; Line 13667
	push	ebp
	mov	ebp, esp
; Line 13670
	cmp	DWORD PTR _cnt$[ebp], 0
	mov	eax, DWORD PTR _dst$[ebp]
	je	SHORT $LN6@memcpy
	mov	ecx, DWORD PTR _src$[ebp]
	sub	ecx, eax
$LL2@memcpy:
; Line 13671
	mov	dl, BYTE PTR [ecx+eax]
	dec	DWORD PTR _cnt$[ebp]
	mov	BYTE PTR [eax], dl
	inc	eax
	cmp	DWORD PTR _cnt$[ebp], 0
	jne	SHORT $LL2@memcpy
$LN6@memcpy:
; Line 13673
	mov	eax, DWORD PTR _dst$[ebp]
; Line 13674
	pop	ebp
	ret	0
_memcpy	ENDP
_TEXT	ENDS
PUBLIC	_memset
; Function compile flags: /Ogspy
;	COMDAT _memset
_TEXT	SEGMENT
_dst$ = 8						; size = 4
_value$ = 12						; size = 1
_cnt$ = 16						; size = 4
_memset	PROC						; COMDAT
; Line 13679
	mov	ecx, DWORD PTR _cnt$[esp-4]
	test	ecx, ecx
	je	SHORT $LN2@memset
	mov	al, BYTE PTR _value$[esp-4]
	movzx	eax, al
	imul	eax, 16843009				; 01010101H
	mov	edx, ecx
	push	ebx
	push	edi
	mov	edi, DWORD PTR _dst$[esp+4]
	shr	ecx, 2
	rep stosd
	mov	ecx, edx
	and	ecx, 3
	rep stosb
	pop	edi
	pop	ebx
$LN2@memset:
; Line 13682
	mov	eax, DWORD PTR _dst$[esp-4]
; Line 13683
	ret	0
_memset	ENDP
_TEXT	ENDS
PUBLIC	__allshl
; Function compile flags: /Ogspy
;	COMDAT __allshl
_TEXT	SEGMENT
__allshl PROC						; COMDAT
; Line 13722
	cmp	cl, 32					; 00000020H
; Line 13723
	jae	SHORT $ShiftLowDword$39195
; Line 13724
	shld	edx, eax, cl
; Line 13725
	shl	eax, cl
; Line 13726
	jmp	SHORT $exitFunction$39196
$ShiftLowDword$39195:
; Line 13728
	mov	edx, eax
; Line 13729
	xor	eax, eax
; Line 13730
	sub	cl, 32					; 00000020H
; Line 13731
	shl	edx, cl
$exitFunction$39196:
; Line 13735
	ret	0
__allshl ENDP
_TEXT	ENDS
PUBLIC	__aullshr
; Function compile flags: /Ogspy
;	COMDAT __aullshr
_TEXT	SEGMENT
__aullshr PROC						; COMDAT
; Line 13769
	cmp	cl, 32					; 00000020H
; Line 13770
	jae	SHORT $ShiftHighDword$39200
; Line 13771
	shrd	eax, edx, cl
; Line 13772
	shr	edx, cl
; Line 13773
	jmp	SHORT $exitFunction$39201
$ShiftHighDword$39200:
; Line 13775
	mov	eax, edx
; Line 13776
	xor	edx, edx
; Line 13777
	sub	cl, 32					; 00000020H
; Line 13778
	shr	eax, cl
$exitFunction$39201:
; Line 13782
	ret	0
__aullshr ENDP
_TEXT	ENDS
PUBLIC	_PrintRmtLaneStatus
; Function compile flags: /Ogspy
;	COMDAT _PrintRmtLaneStatus
_TEXT	SEGMENT
_MrcData$ = 8						; size = 4
_Channel$ = 12						; size = 1
_Rank$ = 16						; size = 1
_StrobeSweep$ = 20					; size = 1
_Strobe$ = 20						; size = 1
_MaximumBits$ = 24					; size = 1
_PerBitSweep$ = 28					; size = 1
_LaneErrorVector$ = 32					; size = 4
_PrintRmtLaneStatus PROC				; COMDAT
; Line 13899
	push	ebp
	mov	ebp, esp
	push	ebx
; Line 13904
	mov	bl, BYTE PTR _Strobe$[ebp]
	jmp	SHORT $LN18@PrintRmtLa
$LL10@PrintRmtLa:
; Line 13905
	push	0
	push	DWORD PTR _PerBitSweep$[ebp]
	push	DWORD PTR _StrobeSweep$[ebp]
	push	DWORD PTR _Rank$[ebp]
	push	DWORD PTR _Channel$[ebp]
	push	DWORD PTR _MrcData$[ebp]
	call	_IsStrobeValid
	add	esp, 24					; 00000018H
$LN18@PrintRmtLa:
	dec	bl
	mov	BYTE PTR _StrobeSweep$[ebp], bl
	jns	SHORT $LL10@PrintRmtLa
; Line 13921
	xor	eax, eax
	pop	ebx
; Line 13922
	pop	ebp
	ret	0
_PrintRmtLaneStatus ENDP
_TEXT	ENDS
PUBLIC	_PrintRmtSummaryPerBit
; Function compile flags: /Ogspy
;	COMDAT _PrintRmtSummaryPerBit
_TEXT	SEGMENT
_LaneErrorVector$ = -68					; size = 18
tv693 = -48						; size = 4
tv928 = -44						; size = 4
tv490 = -40						; size = 4
tv516 = -36						; size = 4
_MaximumBits$ = -32					; size = 1
tv908 = -28						; size = 4
tv766 = -24						; size = 4
_StrobeMinOffset$ = -20					; size = 2
tv525 = -16						; size = 4
_IndexStrobe$ = -12					; size = 2
_StrobeMaxOffset$ = -12					; size = 2
_StrobeSweep$ = -8					; size = 1
tv514 = -4						; size = 1
_Knob$ = -3						; size = 1
_BitSweep$ = -2						; size = 1
_HighLowFlag$ = -1					; size = 1
_MrcData$ = 8						; size = 4
_Channel$ = 12						; size = 1
_Rank$ = 16						; size = 1
_Strobe$ = 20						; size = 4
_Dim1Knobs$ = 24					; size = 1
_Dim1Start$ = 28					; size = 4
_StepSize$ = 32						; size = 1
_Results$ = 36						; size = 4
_PerBitSweep$ = 40					; size = 1
_PrintRmtSummaryPerBit PROC				; COMDAT
; Line 13936
	push	ebp
	mov	ebp, esp
	sub	esp, 68					; 00000044H
	push	ebx
; Line 13948
	mov	ebx, DWORD PTR _MrcData$[ebp]
	mov	al, BYTE PTR [ebx+55506]
	mov	BYTE PTR tv514[ebp], al
; Line 13949
	or	al, 1
	mov	BYTE PTR [ebx+55506], al
; Line 13951
	movzx	eax, BYTE PTR _Rank$[ebp]
	push	esi
	push	edi
	movzx	edi, BYTE PTR _Channel$[ebp]
	add	eax, ebx
; Line 13953
	cmp	BYTE PTR _Dim1Knobs$[ebp], 0
	mov	al, BYTE PTR [eax+edi*4+55462]
	mov	DWORD PTR tv516[ebp], edi
	mov	BYTE PTR _MaximumBits$[ebp], al
	jbe	SHORT $LN100@PrintRmtSu
	mov	eax, DWORD PTR _Strobe$[ebp]
	movzx	eax, BYTE PTR [edi+eax]
	movzx	esi, BYTE PTR _Dim1Knobs$[ebp]
$LL46@PrintRmtSu:
; Line 13955
	mov	BYTE PTR _StrobeSweep$[ebp], 0
	test	eax, eax
	jle	SHORT $LN45@PrintRmtSu
$LL99@PrintRmtSu:
; Line 13956
	push	0
	push	DWORD PTR _PerBitSweep$[ebp]
	push	DWORD PTR _StrobeSweep$[ebp]
	push	DWORD PTR _Rank$[ebp]
	push	DWORD PTR _Channel$[ebp]
	push	ebx
	call	_IsStrobeValid
	mov	eax, DWORD PTR _Strobe$[ebp]
	movzx	eax, BYTE PTR [edi+eax]
	add	esp, 24					; 00000018H
	inc	BYTE PTR _StrobeSweep$[ebp]
	movsx	ecx, BYTE PTR _StrobeSweep$[ebp]
	cmp	ecx, eax
	jl	SHORT $LL99@PrintRmtSu
$LN45@PrintRmtSu:
; Line 13953
	dec	esi
	jne	SHORT $LL46@PrintRmtSu
$LN100@PrintRmtSu:
; Line 13964
	mov	BYTE PTR _HighLowFlag$[ebp], 1
$LL39@PrintRmtSu:
; Line 13965
	cmp	BYTE PTR _Dim1Knobs$[ebp], 0
	mov	BYTE PTR _Knob$[ebp], 0
	jbe	$LN38@PrintRmtSu
	mov	eax, DWORD PTR _Strobe$[ebp]
; Line 13972
	add	edi, eax
	mov	DWORD PTR tv525[ebp], edi
$LL108@PrintRmtSu:
	cmp	BYTE PTR _HighLowFlag$[ebp], 1
	lea	edi, DWORD PTR _LaneErrorVector$[ebp]
	jne	SHORT $LN33@PrintRmtSu
; Line 13967
	or	eax, -1
; Line 13968
	jmp	SHORT $LN109@PrintRmtSu
$LN33@PrintRmtSu:
; Line 13969
	xor	eax, eax
$LN109@PrintRmtSu:
	stosd
	stosd
	stosd
	stosd
	stosw
; Line 13974
	mov	eax, DWORD PTR tv525[ebp]
	xor	esi, esi
	cmp	BYTE PTR [eax], 0
	mov	DWORD PTR _StrobeMinOffset$[ebp], 255	; 000000ffH
	mov	DWORD PTR _StrobeMaxOffset$[ebp], esi
	mov	BYTE PTR _StrobeSweep$[ebp], 0
	jbe	$LN29@PrintRmtSu
$LL101@PrintRmtSu:
; Line 13975
	push	0
	push	DWORD PTR _PerBitSweep$[ebp]
	push	DWORD PTR _StrobeSweep$[ebp]
	push	DWORD PTR _Rank$[ebp]
	push	DWORD PTR _Channel$[ebp]
	push	ebx
	call	_IsStrobeValid
	add	esp, 24					; 00000018H
	test	al, al
	je	SHORT $LN30@PrintRmtSu
; Line 13978
	movzx	ecx, BYTE PTR _MaximumBits$[ebp]
	mov	BYTE PTR _BitSweep$[ebp], 0
	test	ecx, ecx
	jle	SHORT $LN30@PrintRmtSu
	xor	eax, eax
$LL27@PrintRmtSu:
; Line 13979
	cmp	BYTE PTR _StrobeSweep$[ebp], 18		; 00000012H
	jge	SHORT $LN26@PrintRmtSu
; Line 13980
	movzx	edx, BYTE PTR _Knob$[ebp]
	add	edx, DWORD PTR tv516[ebp]
	imul	edx, 18					; 00000012H
	add	edx, esi
	lea	eax, DWORD PTR [eax+edx*8]
	movsx	edx, BYTE PTR _HighLowFlag$[ebp]
	lea	eax, DWORD PTR [edx+eax*2]
	mov	edx, DWORD PTR _Results$[ebp]
	movzx	eax, WORD PTR [edx+eax*2]
	cmp	ax, WORD PTR _StrobeMinOffset$[ebp]
	jae	SHORT $LN23@PrintRmtSu
; Line 13981
	movzx	edx, ax
	mov	DWORD PTR _StrobeMinOffset$[ebp], edx
$LN23@PrintRmtSu:
; Line 13983
	cmp	ax, WORD PTR _StrobeMaxOffset$[ebp]
	jbe	SHORT $LN26@PrintRmtSu
; Line 13984
	movzx	eax, ax
	mov	DWORD PTR _StrobeMaxOffset$[ebp], eax
$LN26@PrintRmtSu:
	inc	BYTE PTR _BitSweep$[ebp]
	movsx	eax, BYTE PTR _BitSweep$[ebp]
	cmp	eax, ecx
	jl	SHORT $LL27@PrintRmtSu
$LN30@PrintRmtSu:
; Line 13974
	inc	BYTE PTR _StrobeSweep$[ebp]
	mov	eax, DWORD PTR tv525[ebp]
	movsx	esi, BYTE PTR _StrobeSweep$[ebp]
	movzx	eax, BYTE PTR [eax]
	cmp	esi, eax
	jl	SHORT $LL101@PrintRmtSu
$LN29@PrintRmtSu:
; Line 13990
	cmp	BYTE PTR _HighLowFlag$[ebp], 1
	jne	SHORT $LN21@PrintRmtSu
; Line 13991
	inc	DWORD PTR _StrobeMaxOffset$[ebp]
$LN21@PrintRmtSu:
; Line 13996
	mov	eax, DWORD PTR _StrobeMaxOffset$[ebp]
	movzx	ecx, ax
	mov	DWORD PTR _IndexStrobe$[ebp], ecx
	cmp	WORD PTR _StrobeMinOffset$[ebp], ax
	ja	$LN35@PrintRmtSu
	mov	ecx, DWORD PTR tv516[ebp]
	movzx	edx, BYTE PTR _Dim1Knobs$[ebp]
	imul	ecx, 18					; 00000012H
	mov	DWORD PTR tv928[ebp], ecx
	mov	DWORD PTR tv693[ebp], edx
	jmp	SHORT $LN20@PrintRmtSu
$LL104@PrintRmtSu:
	mov	ecx, DWORD PTR tv928[ebp]
	mov	edx, DWORD PTR tv693[ebp]
$LN20@PrintRmtSu:
; Line 13997
	cmp	BYTE PTR _HighLowFlag$[ebp], 1
; Line 13999
	lea	edi, DWORD PTR _LaneErrorVector$[ebp]
	jne	SHORT $LN17@PrintRmtSu
	or	eax, -1
; Line 14000
	jmp	SHORT $LN110@PrintRmtSu
$LN17@PrintRmtSu:
; Line 14002
	xor	eax, eax
$LN110@PrintRmtSu:
	stosd
	stosd
	stosd
	stosd
	stosw
; Line 14005
	mov	DWORD PTR tv908[ebp], ecx
	mov	DWORD PTR tv490[ebp], edx
	mov	BYTE PTR _Knob$[ebp], dl
$LL15@PrintRmtSu:
; Line 14006
	mov	eax, DWORD PTR tv525[ebp]
	mov	al, BYTE PTR [eax]
	dec	al
	mov	BYTE PTR _StrobeSweep$[ebp], al
	js	$LN14@PrintRmtSu
	movsx	esi, al
$LL105@PrintRmtSu:
; Line 14007
	push	0
	push	DWORD PTR _PerBitSweep$[ebp]
	push	DWORD PTR _StrobeSweep$[ebp]
	push	DWORD PTR _Rank$[ebp]
	push	DWORD PTR _Channel$[ebp]
	push	ebx
	call	_IsStrobeValid
	add	esp, 24					; 00000018H
	test	al, al
	je	SHORT $LN11@PrintRmtSu
; Line 14010
	mov	al, BYTE PTR _MaximumBits$[ebp]
	dec	al
	mov	BYTE PTR _BitSweep$[ebp], al
	js	SHORT $LN11@PrintRmtSu
	movsx	ecx, al
	mov	eax, DWORD PTR tv908[ebp]
	add	eax, esi
	lea	eax, DWORD PTR [ecx+eax*8]
	lea	edx, DWORD PTR [eax+eax]
	mov	DWORD PTR tv766[ebp], edx
	mov	edx, DWORD PTR _Results$[ebp]
	lea	eax, DWORD PTR [edx+eax*4+2]
$LL8@PrintRmtSu:
; Line 14011
	cmp	BYTE PTR _HighLowFlag$[ebp], 1
	jne	SHORT $LN5@PrintRmtSu
; Line 14012
	mov	dx, WORD PTR _IndexStrobe$[ebp]
	cmp	WORD PTR [eax], dx
	jb	SHORT $LN7@PrintRmtSu
; Line 14013
	mov	dl, 1
	shl	dl, cl
	not	dl
	and	BYTE PTR _LaneErrorVector$[ebp+esi], dl
; Line 14015
	jmp	SHORT $LN7@PrintRmtSu
$LN5@PrintRmtSu:
; Line 14016
	movsx	edx, BYTE PTR _HighLowFlag$[ebp]
	add	edx, DWORD PTR tv766[ebp]
	mov	ebx, DWORD PTR _Results$[ebp]
	mov	di, WORD PTR _IndexStrobe$[ebp]
	cmp	WORD PTR [ebx+edx*2], di
; Line 14017
	mov	ebx, DWORD PTR _MrcData$[ebp]
	jbe	SHORT $LN7@PrintRmtSu
	mov	dl, 1
	shl	dl, cl
	or	BYTE PTR _LaneErrorVector$[ebp+esi], dl
$LN7@PrintRmtSu:
	dec	BYTE PTR _BitSweep$[ebp]
	sub	DWORD PTR tv766[ebp], 2
	dec	ecx
	sub	eax, 4
	cmp	BYTE PTR _BitSweep$[ebp], 0
	jge	SHORT $LL8@PrintRmtSu
$LN11@PrintRmtSu:
; Line 14006
	dec	BYTE PTR _StrobeSweep$[ebp]
	dec	esi
	cmp	BYTE PTR _StrobeSweep$[ebp], 0
	jge	$LL105@PrintRmtSu
$LN14@PrintRmtSu:
; Line 14005
	add	DWORD PTR tv908[ebp], 18		; 00000012H
	dec	DWORD PTR tv490[ebp]
	jne	$LL15@PrintRmtSu
; Line 14026
	lea	eax, DWORD PTR _LaneErrorVector$[ebp]
	push	eax
	push	DWORD PTR _PerBitSweep$[ebp]
	mov	eax, DWORD PTR tv525[ebp]
	push	DWORD PTR _MaximumBits$[ebp]
	movzx	eax, BYTE PTR [eax]
	push	eax
	push	DWORD PTR _Rank$[ebp]
	push	DWORD PTR _Channel$[ebp]
	push	ebx
	call	_PrintRmtLaneStatus
	add	esp, 28					; 0000001cH
; Line 14029
	cmp	WORD PTR _IndexStrobe$[ebp], 0
	je	SHORT $LN35@PrintRmtSu
	movzx	ax, BYTE PTR _StepSize$[ebp]
	sub	WORD PTR _IndexStrobe$[ebp], ax
	mov	ax, WORD PTR _StrobeMinOffset$[ebp]
	cmp	ax, WORD PTR _IndexStrobe$[ebp]
	jbe	$LL104@PrintRmtSu
$LN35@PrintRmtSu:
; Line 13965
	inc	BYTE PTR _Knob$[ebp]
	mov	al, BYTE PTR _Knob$[ebp]
	cmp	al, BYTE PTR _Dim1Knobs$[ebp]
	jb	$LL108@PrintRmtSu
	mov	edi, DWORD PTR tv516[ebp]
$LN38@PrintRmtSu:
; Line 13964
	dec	BYTE PTR _HighLowFlag$[ebp]
	jns	$LL39@PrintRmtSu
; Line 14036
	mov	al, BYTE PTR tv514[ebp]
	pop	edi
	mov	BYTE PTR [ebx+55506], al
	pop	esi
; Line 14037
	xor	eax, eax
	pop	ebx
; Line 14038
	leave
	ret	0
_PrintRmtSummaryPerBit ENDP
_TEXT	ENDS
PUBLIC	_GetSignalInfoIndex
EXTRN	_NumberAlgosGenerated:BYTE
; Function compile flags: /Ogspy
;	COMDAT _GetSignalInfoIndex
_TEXT	SEGMENT
_MrcData$41876 = -4					; size = 4
_Signal$ = 8						; size = 2
_GetSignalInfoIndex PROC				; COMDAT
; Line 14052
	push	ecx
; Line 14054
	movd	DWORD PTR _MrcData$41876[esp+4], mm3
; Line 14056
	mov	eax, DWORD PTR _Signal$[esp]
	mov	ecx, 8192				; 00002000H
	cmp	ax, cx
	jb	SHORT $LN6@GetSignalI
; Line 14057
	add	eax, -8192				; ffffe000H
; Line 14065
	pop	ecx
	ret	0
$LN6@GetSignalI:
; Line 14058
	mov	ecx, 4096				; 00001000H
	cmp	ax, cx
	jb	SHORT $LN4@GetSignalI
; Line 14059
	add	eax, -4096				; fffff000H
; Line 14065
	pop	ecx
	ret	0
$LN4@GetSignalI:
; Line 14060
	movzx	ecx, BYTE PTR _NumberOfElementsPerAlgoGenerated
	push	esi
	movzx	esi, BYTE PTR _NumberAlgosGenerated
	movzx	edx, ax
	mov	eax, esi
	imul	eax, ecx
	cmp	edx, eax
	jge	SHORT $LN2@GetSignalI
; Line 14061
	mov	eax, edx
	cdq
	idiv	ecx
	jmp	SHORT $LN11@GetSignalI
$LN2@GetSignalI:
; Line 14063
	xor	eax, eax
	inc	eax
	sub	eax, ecx
	imul	eax, esi
	add	eax, edx
$LN11@GetSignalI:
	pop	esi
; Line 14065
	pop	ecx
	ret	0
_GetSignalInfoIndex ENDP
_TEXT	ENDS
PUBLIC	_GetOffsetIndex
EXTRN	_UniqueIndexToOffsetLayerGenerated:BYTE
EXTRN	_GroupIndexToOffsetLayerGenerated:TBYTE
EXTRN	_DelayIndexToOffsetLayerGenerated:BYTE
EXTRN	_GsmGtToMmrcDefine:BYTE
EXTRN	_GsmCsnToMmrcDefine:BYTE
; Function compile flags: /Ogspy
;	COMDAT _GetOffsetIndex
_TEXT	SEGMENT
_MrcData$ = 8						; size = 4
_Type$ = 12						; size = 2
_GetOffsetIndex PROC					; COMDAT
; Line 14086
	mov	eax, DWORD PTR _Type$[esp-4]
	mov	ecx, 61440				; 0000f000H
	cmp	ax, cx
	jb	SHORT $LN10@GetOffsetI
; Line 14087
	movzx	eax, ax
	movzx	eax, WORD PTR _GsmCsnToMmrcDefine[eax*2-122880]
$LN15@GetOffsetI:
; Line 14088
	mov	ecx, 255				; 000000ffH
	cmp	ax, cx
	jne	SHORT $LN6@GetOffsetI
; Line 14089
	mov	eax, 65535				; 0000ffffH
; Line 14108
	ret	0
$LN10@GetOffsetI:
; Line 14091
	mov	ecx, 57344				; 0000e000H
	cmp	ax, cx
	jb	SHORT $LN6@GetOffsetI
; Line 14092
	movzx	eax, ax
	movzx	eax, WORD PTR _GsmGtToMmrcDefine[eax*2-114688]
; Line 14094
	jmp	SHORT $LN15@GetOffsetI
$LN6@GetOffsetI:
; Line 14097
	mov	ecx, 12288				; 00003000H
	cmp	ax, cx
	mov	ecx, 16384				; 00004000H
	jb	SHORT $LN5@GetOffsetI
	cmp	ax, cx
	jae	SHORT $LN14@GetOffsetI
; Line 14098
	add	eax, -12288				; ffffd000H
; Line 14099
	movzx	eax, ax
	movzx	eax, WORD PTR _DelayIndexToOffsetLayerGenerated[eax*2]
; Line 14108
	ret	0
$LN5@GetOffsetI:
; Line 14100
	cmp	ax, cx
	jb	SHORT $LN3@GetOffsetI
$LN14@GetOffsetI:
	mov	ecx, 20480				; 00005000H
	cmp	ax, cx
	jae	SHORT $LN13@GetOffsetI
; Line 14101
	add	eax, -16384				; ffffc000H
; Line 14102
	movzx	eax, ax
	movzx	eax, WORD PTR _GroupIndexToOffsetLayerGenerated[eax*2]
; Line 14108
	ret	0
$LN3@GetOffsetI:
; Line 14103
	mov	ecx, 20480				; 00005000H
	cmp	ax, cx
	jb	SHORT $LN11@GetOffsetI
$LN13@GetOffsetI:
; Line 14104
	add	eax, -20480				; ffffb000H
; Line 14105
	movzx	eax, ax
	movzx	eax, WORD PTR _UniqueIndexToOffsetLayerGenerated[eax*2]
$LN11@GetOffsetI:
; Line 14108
	ret	0
_GetOffsetIndex ENDP
_TEXT	ENDS
PUBLIC	_ConvertPfctAndIoLevelToBlueprint
EXTRN	_PfctAndIoLevelToBlueprint:BYTE
; Function compile flags: /Ogspy
;	COMDAT _ConvertPfctAndIoLevelToBlueprint
_TEXT	SEGMENT
tv200 = -8						; size = 4
_i$ = -1						; size = 1
_MrcData$ = 8						; size = 4
_Channel$ = 12						; size = 1
_IoLevel$ = 16						; size = 1
_Blueprint$ = 20					; size = 4
_ConvertPfctAndIoLevelToBlueprint PROC			; COMDAT
; Line 14127
	push	ebp
	mov	ebp, esp
	push	ecx
	push	ecx
; Line 14135
	movzx	edx, BYTE PTR _Channel$[ebp]
	push	ebx
	xor	ebx, ebx
	push	esi
	mov	esi, DWORD PTR _MrcData$[ebp]
	mov	cl, BYTE PTR [esi+edx*2+55490]
	inc	ebx
	mov	DWORD PTR tv200[ebp], ebx
	shl	DWORD PTR tv200[ebp], cl
	push	edi
	mov	BYTE PTR _i$[ebp], 0
$LL10@ConvertPfc@2:
; Line 14141
	movzx	eax, BYTE PTR _i$[ebp]
	mov	edi, DWORD PTR tv200[ebp]
	imul	eax, 10					; 0000000aH
	movzx	ecx, WORD PTR _PfctAndIoLevelToBlueprint[eax]
	test	ecx, edi
	je	SHORT $LN4@ConvertPfc@2
	mov	cl, BYTE PTR [esi+edx*2+55494]
	mov	edi, ebx
	shl	edi, cl
	movzx	ecx, WORD PTR _PfctAndIoLevelToBlueprint[eax+2]
	test	edi, ecx
	je	SHORT $LN4@ConvertPfc@2
	mov	cl, BYTE PTR [esi+edx*2+55498]
	mov	edi, ebx
	shl	edi, cl
	movzx	ecx, WORD PTR _PfctAndIoLevelToBlueprint[eax+4]
	test	edi, ecx
	je	SHORT $LN4@ConvertPfc@2
	mov	cl, BYTE PTR [esi+edx*2+55502]
	mov	edi, ebx
	shl	edi, cl
	movzx	ecx, WORD PTR _PfctAndIoLevelToBlueprint[eax+6]
	test	edi, ecx
	je	SHORT $LN4@ConvertPfc@2
	mov	cl, BYTE PTR _IoLevel$[ebp]
	cmp	cl, BYTE PTR _PfctAndIoLevelToBlueprint[eax+8]
	je	SHORT $LN1@ConvertPfc@2
	cmp	cl, 255					; 000000ffH
	je	SHORT $LN1@ConvertPfc@2
$LN4@ConvertPfc@2:
; Line 14135
	inc	BYTE PTR _i$[ebp]
	cmp	BYTE PTR _i$[ebp], bl
	jb	SHORT $LL10@ConvertPfc@2
; Line 14147
	push	31					; 0000001fH
	pop	eax
$LN6@ConvertPfc@2:
	pop	edi
	pop	esi
	pop	ebx
; Line 14148
	leave
	ret	0
$LN1@ConvertPfc@2:
; Line 14143
	movzx	eax, BYTE PTR _i$[ebp]
	mov	ecx, DWORD PTR _Blueprint$[ebp]
	imul	eax, 10					; 0000000aH
	mov	al, BYTE PTR _PfctAndIoLevelToBlueprint[eax+9]
	mov	BYTE PTR [ecx], al
; Line 14144
	xor	eax, eax
	jmp	SHORT $LN6@ConvertPfc@2
_ConvertPfctAndIoLevelToBlueprint ENDP
_TEXT	ENDS
PUBLIC	_RunOnThisChannel
; Function compile flags: /Ogspy
;	COMDAT _RunOnThisChannel
_TEXT	SEGMENT
_MrcData$ = 8						; size = 4
_Channel$ = 12						; size = 1
_Rank$ = 16						; size = 1
_RunOnThisChannel PROC					; COMDAT
; Line 14169
	movzx	eax, BYTE PTR _Channel$[esp-4]
	push	esi
	mov	esi, DWORD PTR _MrcData$[esp]
	push	edi
	movzx	edi, BYTE PTR _Rank$[esp+4]
	lea	edx, DWORD PTR [eax+esi]
	mov	ecx, eax
	add	edi, esi
	imul	ecx, 4336				; 000010f0H
	mov	al, BYTE PTR [edi+eax*4+55438]
	and	al, BYTE PTR [edx+55511]
	lea	ecx, DWORD PTR [ecx+esi+58406]
	and	al, BYTE PTR [edx+28608]
	pop	edi
	movzx	eax, al
	cdq
	mov	DWORD PTR [ecx], eax
; Line 14170
	or	eax, edx
	mov	DWORD PTR [ecx+4], edx
	pop	esi
	jne	SHORT $LN1@RunOnThisC
; Line 14171
	xor	al, al
; Line 14174
	ret	0
$LN1@RunOnThisC:
; Line 14173
	mov	al, 1
; Line 14174
	ret	0
_RunOnThisChannel ENDP
_TEXT	ENDS
PUBLIC	_SetMspData
EXTRN	_FillUpMspDataStructure:PROC
; Function compile flags: /Ogspy
;	COMDAT _SetMspData
_TEXT	SEGMENT
_i$ = -4						; size = 1
_MspData$ = 8						; size = 4
_InputStructure$ = 12					; size = 4
_SetMspData PROC					; COMDAT
; Line 14181
	push	ebp
	mov	ebp, esp
	push	ecx
	push	ebx
; Line 14187
	mov	ebx, DWORD PTR _InputStructure$[ebp]
	push	esi
	push	edi
	mov	edi, DWORD PTR _MspData$[ebp]
	mov	BYTE PTR _i$[ebp], 0
	add	ebx, 28608				; 00006fc0H
	lea	esi, DWORD PTR [edi+8]
$LL8@SetMspData:
; Line 14199
	mov	eax, DWORD PTR _InputStructure$[ebp]
	push	DWORD PTR [eax+65441]
	movzx	eax, BYTE PTR [edi+27]
	push	eax
	movzx	eax, BYTE PTR [edi+22]
	push	eax
	movzx	eax, BYTE PTR [edi+20]
	push	eax
	movzx	eax, WORD PTR [esi+8]
	push	eax
	movzx	eax, WORD PTR [esi]
	push	eax
	movzx	eax, WORD PTR [esi-4]
	push	eax
	movzx	eax, BYTE PTR [ebx]
	push	eax
	push	DWORD PTR _i$[ebp]
	push	edi
	call	_FillUpMspDataStructure
	add	esp, 40					; 00000028H
	inc	BYTE PTR _i$[ebp]
	inc	esi
	inc	esi
	inc	ebx
	cmp	BYTE PTR _i$[ebp], 2
	jb	SHORT $LL8@SetMspData
	pop	edi
	pop	esi
	pop	ebx
; Line 14201
	leave
	ret	0
_SetMspData ENDP
_TEXT	ENDS
PUBLIC	_ConvertRange
; Function compile flags: /Ogspy
;	COMDAT _ConvertRange
_TEXT	SEGMENT
_MrcData$ = 8						; size = 4
_Channel$ = 12						; size = 1
_InputData$ = 16					; size = 2
_ConvertRange PROC					; COMDAT
; Line 14683
	push	ebp
	mov	ebp, esp
; Line 14692
	movzx	eax, WORD PTR _InputData$[ebp]
	sub	eax, 250				; 000000faH
	je	SHORT $LN2@ConvertRan
	dec	eax
	je	SHORT $LN3@ConvertRan
	dec	eax
	je	SHORT $LN4@ConvertRan
	dec	eax
	je	SHORT $LN5@ConvertRan
	dec	eax
	je	SHORT $LN6@ConvertRan
	dec	eax
	je	SHORT $LN7@ConvertRan
; Line 14733
	movzx	eax, WORD PTR _InputData$[ebp]
; Line 14736
	pop	ebp
	ret	0
$LN7@ConvertRan:
; Line 14697
	push	DWORD PTR _Channel$[ebp]
	push	DWORD PTR _MrcData$[ebp]
	call	_GetHalfClk
	add	ax, ax
; Line 14698
	jmp	SHORT $LN12@ConvertRan
$LN6@ConvertRan:
; Line 14703
	push	DWORD PTR _Channel$[ebp]
	push	DWORD PTR _MrcData$[ebp]
	call	_GetHalfClk
; Line 14704
	jmp	SHORT $LN12@ConvertRan
$LN5@ConvertRan:
; Line 14709
	push	DWORD PTR _Channel$[ebp]
	push	DWORD PTR _MrcData$[ebp]
	call	_GetHalfClk
	shr	ax, 1
; Line 14710
	jmp	SHORT $LN12@ConvertRan
$LN4@ConvertRan:
; Line 14715
	push	DWORD PTR _Channel$[ebp]
	push	DWORD PTR _MrcData$[ebp]
	call	_GetHalfClk
	shr	ax, 2
; Line 14716
	jmp	SHORT $LN12@ConvertRan
$LN3@ConvertRan:
; Line 14721
	push	DWORD PTR _Channel$[ebp]
	push	DWORD PTR _MrcData$[ebp]
	call	_GetHalfClk
	shr	ax, 3
; Line 14722
	jmp	SHORT $LN12@ConvertRan
$LN2@ConvertRan:
; Line 14727
	push	DWORD PTR _Channel$[ebp]
	push	DWORD PTR _MrcData$[ebp]
	call	_GetHalfClk
	shr	ax, 4
$LN12@ConvertRan:
	pop	ecx
	movzx	eax, ax
	pop	ecx
; Line 14736
	pop	ebp
	ret	0
_ConvertRange ENDP
_TEXT	ENDS
PUBLIC	_CheckCount
; Function compile flags: /Ogspy
;	COMDAT _CheckCount
_TEXT	SEGMENT
_MrcData$ = 8						; size = 4
_Range$ = 12						; size = 4
_Ch$ = 16						; size = 1
_Rn$ = 20						; size = 1
_Kn$ = 24						; size = 1
_St$ = 28						; size = 1
_Bi$ = 32						; size = 1
_Timing$ = 36						; size = 1
_Param$ = 40						; size = 4
_CheckCount PROC					; COMDAT
; Line 14989
	xor	eax, eax
; Line 14990
	ret	0
_CheckCount ENDP
_TEXT	ENDS
PUBLIC	_CopyResults
; Function compile flags: /Ogspy
;	COMDAT _CopyResults
_TEXT	SEGMENT
tv397 = -4						; size = 4
_MrcData$ = 8						; size = 4
_Range$ = 12						; size = 4
_Channel$ = 16						; size = 1
_index2$ = 19						; size = 1
_Rank$ = 20						; size = 1
_Knob$ = 24						; size = 1
_Strobe$ = 28						; size = 1
_Bit$ = 32						; size = 1
tv399 = 36						; size = 4
_Timing$ = 36						; size = 1
_index$ = 39						; size = 1
tv428 = 40						; size = 4
_Param$ = 40						; size = 4
_CopyResults PROC					; COMDAT
; Line 15021
	push	ebp
	mov	ebp, esp
	push	ecx
; Line 15028
	movzx	ecx, BYTE PTR _Timing$[ebp]
	push	ebx
	mov	eax, DWORD PTR _Param$[ebp]
	push	esi
	movzx	esi, BYTE PTR _Channel$[ebp]
	push	edi
	movzx	edi, BYTE PTR _Knob$[ebp]
	mov	dl, BYTE PTR [eax+12]
	lea	ebx, DWORD PTR [esi+ecx*2]
	lea	ebx, DWORD PTR [edi+ebx*4]
	movzx	edi, BYTE PTR _Rank$[ebp]
	add	ebx, edi
	movzx	edi, BYTE PTR _Strobe$[ebp]
	imul	ebx, 18					; 00000012H
	add	ebx, edi
	movzx	edi, BYTE PTR _Bit$[ebp]
	lea	ebx, DWORD PTR [edi+ebx*8]
	mov	edi, DWORD PTR [eax+8]
	cmp	BYTE PTR [ebx+edi], dl
	je	$LN5@CopyResult
; Line 15033
	mov	BYTE PTR _index$[ebp], 1
$LL7@CopyResult:
; Line 15034
	movzx	edi, BYTE PTR _index$[ebp]
	lea	edi, DWORD PTR [ecx+edi*2]
	lea	ebx, DWORD PTR [esi+edi*2]
	movzx	edi, BYTE PTR _Knob$[ebp]
	lea	ebx, DWORD PTR [edi+ebx*4]
	movzx	edi, BYTE PTR _Rank$[ebp]
	add	ebx, edi
	movzx	edi, BYTE PTR _Strobe$[ebp]
	imul	ebx, 18					; 00000012H
	add	ebx, edi
	movzx	edi, BYTE PTR _Bit$[ebp]
	lea	ebx, DWORD PTR [edi+ebx*8]
	mov	edi, DWORD PTR [eax+8]
	cmp	BYTE PTR [ebx+edi], dl
	je	SHORT $LN13@CopyResult
	inc	BYTE PTR _index$[ebp]
	cmp	BYTE PTR _index$[ebp], 2
	jb	SHORT $LL7@CopyResult
	jmp	$LN5@CopyResult
$LN13@CopyResult:
; Line 15037
	mov	BYTE PTR _index2$[ebp], 0
	test	dl, dl
	jbe	$LN5@CopyResult
	movzx	edi, BYTE PTR _index$[ebp]
	imul	edi, 5
	mov	DWORD PTR tv397[ebp], edi
	jmp	SHORT $LN3@CopyResult
$LL16@CopyResult:
	mov	edi, DWORD PTR tv397[ebp]
$LN3@CopyResult:
; Line 15038
	movzx	edx, BYTE PTR _index2$[ebp]
	add	edi, edx
	lea	edx, DWORD PTR [ecx+edx*2]
	mov	DWORD PTR tv399[ebp], edi
	lea	edi, DWORD PTR [esi+edx*2]
	movzx	edx, BYTE PTR _Knob$[ebp]
	lea	ebx, DWORD PTR [edx+edi*4]
	movzx	edi, BYTE PTR _Rank$[ebp]
	add	ebx, edi
	movzx	edi, BYTE PTR _Strobe$[ebp]
	imul	ebx, 18					; 00000012H
	add	ebx, edi
	movzx	edi, BYTE PTR _Bit$[ebp]
	lea	ebx, DWORD PTR [edi+ebx*8]
	shl	ebx, 2
	mov	DWORD PTR tv428[ebp], ebx
	mov	ebx, DWORD PTR tv399[ebp]
	lea	ebx, DWORD PTR [ecx+ebx*2]
	lea	ebx, DWORD PTR [esi+ebx*2]
	lea	ebx, DWORD PTR [edx+ebx*4]
	movzx	edx, BYTE PTR _Rank$[ebp]
	add	ebx, edx
	movzx	edx, BYTE PTR _Strobe$[ebp]
	imul	ebx, 18					; 00000012H
	add	ebx, edx
	lea	edx, DWORD PTR [edi+ebx*8]
	mov	edi, DWORD PTR [eax+4]
	mov	dx, WORD PTR [edi+edx*4-46078]
	mov	ebx, DWORD PTR [eax]
	mov	edi, DWORD PTR tv428[ebp]
	mov	WORD PTR [edi+ebx+2], dx
; Line 15039
	mov	edx, DWORD PTR tv399[ebp]
	lea	edx, DWORD PTR [ecx+edx*2-10]
	lea	edi, DWORD PTR [esi+edx*2]
	movzx	edx, BYTE PTR _Knob$[ebp]
	lea	edi, DWORD PTR [edx+edi*4]
	movzx	edx, BYTE PTR _Rank$[ebp]
	add	edi, edx
	movzx	edx, BYTE PTR _Strobe$[ebp]
	imul	edi, 18					; 00000012H
	mov	ebx, DWORD PTR [eax]
	add	edi, edx
	movzx	edx, BYTE PTR _Bit$[ebp]
	inc	BYTE PTR _index2$[ebp]
	lea	edx, DWORD PTR [edx+edi*8]
	mov	edi, DWORD PTR [eax+4]
	mov	dx, WORD PTR [edi+edx*4]
	mov	edi, DWORD PTR tv428[ebp]
	mov	WORD PTR [edi+ebx], dx
	mov	dl, BYTE PTR _index2$[ebp]
	cmp	dl, BYTE PTR [eax+12]
	jb	$LL16@CopyResult
$LN5@CopyResult:
	pop	edi
	pop	esi
; Line 15044
	xor	eax, eax
	pop	ebx
; Line 15045
	leave
	ret	0
_CopyResults ENDP
_TEXT	ENDS
PUBLIC	_GenericPrint2
; Function compile flags: /Ogspy
;	COMDAT _GenericPrint2
_TEXT	SEGMENT
_MrcData$ = 8						; size = 4
_Range$ = 12						; size = 4
_Channel$ = 16						; size = 1
_Rank$ = 20						; size = 1
_Knob$ = 24						; size = 1
_Strobe$ = 28						; size = 1
_Bit$ = 32						; size = 1
_Timing$ = 36						; size = 1
_Param$ = 40						; size = 4
_GenericPrint2 PROC					; COMDAT
; Line 15927
	xor	eax, eax
; Line 15928
	ret	0
_GenericPrint2 ENDP
_TEXT	ENDS
PUBLIC	_FinalCalculateCenter2
; Function compile flags: /Ogspy
;	COMDAT _FinalCalculateCenter2
_TEXT	SEGMENT
tv769 = -36						; size = 4
_EyeWidthAtCenter$ = -32				; size = 4
tv856 = -28						; size = 4
tv773 = -24						; size = 4
_SumWeights$ = -24					; size = 4
tv837 = -20						; size = 4
tv915 = -16						; size = 4
_SumLR$ = -12						; size = 4
tv776 = -8						; size = 4
tv800 = -4						; size = 2
_Loop$ = -1						; size = 1
_MrcData$ = 8						; size = 4
_Range$ = 12						; size = 4
_Channel$ = 16						; size = 1
_Rank$ = 20						; size = 1
_Knob$ = 24						; size = 1
_Strobe$ = 28						; size = 1
_Bit$ = 32						; size = 1
_Timing$ = 36						; size = 1
_Param$ = 40						; size = 4
_FinalCalculateCenter2 PROC				; COMDAT
; Line 15958
	push	ebp
	mov	ebp, esp
	sub	esp, 36					; 00000024H
	push	esi
; Line 15968
	mov	esi, DWORD PTR _Param$[ebp]
	movzx	eax, WORD PTR [esi+12]
; Line 15970
	cmp	ax, 1
	jne	SHORT $LN6@FinalCalcu
; Line 15973
	movzx	ecx, BYTE PTR _Channel$[ebp]
	movzx	eax, BYTE PTR _Timing$[ebp]
	lea	eax, DWORD PTR [ecx+eax*2]
	movzx	ecx, BYTE PTR _Rank$[ebp]
	lea	eax, DWORD PTR [ecx+eax*4]
	movzx	ecx, BYTE PTR _Knob$[ebp]
	add	eax, ecx
	movzx	ecx, BYTE PTR _Strobe$[ebp]
	imul	eax, 18					; 00000012H
	add	eax, ecx
	movzx	ecx, BYTE PTR _Bit$[ebp]
	lea	ecx, DWORD PTR [ecx+eax*8]
	mov	eax, DWORD PTR [esi+8]
	lea	edx, DWORD PTR [eax+ecx*4]
	movzx	eax, WORD PTR [edx+2]
	movzx	edx, WORD PTR [edx]
	add	eax, edx
	cdq
	sub	eax, edx
	mov	edx, DWORD PTR [esi+4]
	sar	eax, 1
	mov	WORD PTR [edx+ecx*2], ax
; Line 15974
	jmp	$LN13@FinalCalcu
$LN6@FinalCalcu:
; Line 15980
	movzx	edx, BYTE PTR _Timing$[ebp]
	movzx	esi, BYTE PTR _Channel$[ebp]
	movzx	ecx, BYTE PTR _Rank$[ebp]
	movzx	eax, ax
	shr	eax, 1
	mov	DWORD PTR tv776[ebp], eax
	lea	eax, DWORD PTR [edx+eax*2]
	lea	eax, DWORD PTR [esi+eax*2]
	push	ebx
	movzx	ebx, BYTE PTR _Bit$[ebp]
	push	edi
	movzx	edi, BYTE PTR _Knob$[ebp]
	lea	eax, DWORD PTR [edi+eax*4]
	add	eax, ecx
	imul	eax, 18					; 00000012H
	mov	ecx, eax
	movzx	eax, BYTE PTR _Strobe$[ebp]
	add	ecx, eax
	lea	eax, DWORD PTR [ebx+ecx*8]
	mov	ecx, DWORD PTR _Param$[ebp]
	mov	ecx, DWORD PTR [ecx+8]
	lea	eax, DWORD PTR [ecx+eax*4]
	movzx	ecx, WORD PTR [eax+2]
	movzx	eax, WORD PTR [eax]
	sub	ecx, eax
; Line 15984
	xor	eax, eax
	mov	DWORD PTR _SumLR$[ebp], eax
; Line 15985
	mov	DWORD PTR _SumWeights$[ebp], eax
; Line 15990
	mov	BYTE PTR _Loop$[ebp], al
	mov	eax, DWORD PTR _Param$[ebp]
	movzx	eax, WORD PTR [eax+12]
	mov	DWORD PTR _EyeWidthAtCenter$[ebp], ecx
	shr	ax, 1
	xor	ecx, ecx
	mov	WORD PTR tv800[ebp], ax
	cmp	cx, ax
	jae	$LN12@FinalCalcu
	lea	eax, DWORD PTR [esi+edx*2]
	lea	ecx, DWORD PTR [edi+eax*4]
	movzx	eax, BYTE PTR _Rank$[ebp]
	add	ecx, eax
	movzx	eax, BYTE PTR _Strobe$[ebp]
	imul	ecx, 18					; 00000012H
	add	ecx, eax
	mov	eax, DWORD PTR _Param$[ebp]
	mov	eax, DWORD PTR [eax]
	lea	ebx, DWORD PTR [ebx+ecx*8]
	add	ebx, ebx
	movzx	eax, WORD PTR [ebx+eax]
	mov	DWORD PTR tv769[ebp], ebx
	mov	DWORD PTR tv856[ebp], eax
$LL11@FinalCalcu:
; Line 15994
	movzx	ecx, BYTE PTR _Loop$[ebp]
	mov	eax, DWORD PTR tv776[ebp]
	sub	eax, ecx
	lea	eax, DWORD PTR [edx+eax*2]
	lea	eax, DWORD PTR [esi+eax*2]
	lea	ebx, DWORD PTR [edi+eax*4]
	movzx	eax, BYTE PTR _Rank$[ebp]
	add	ebx, eax
	movzx	eax, BYTE PTR _Strobe$[ebp]
	imul	ebx, 18					; 00000012H
	add	ebx, eax
	movzx	eax, BYTE PTR _Bit$[ebp]
	lea	ebx, DWORD PTR [eax+ebx*8]
	mov	eax, DWORD PTR _Param$[ebp]
	mov	eax, DWORD PTR [eax+8]
	lea	eax, DWORD PTR [eax+ebx*4]
	mov	DWORD PTR tv915[ebp], eax
	mov	eax, DWORD PTR tv776[ebp]
	add	eax, ecx
	lea	eax, DWORD PTR [edx+eax*2]
	lea	eax, DWORD PTR [esi+eax*2]
	lea	ebx, DWORD PTR [edi+eax*4]
	movzx	eax, BYTE PTR _Rank$[ebp]
	add	ebx, eax
	movzx	eax, BYTE PTR _Strobe$[ebp]
	imul	ebx, 18					; 00000012H
	add	ebx, eax
	movzx	eax, BYTE PTR _Bit$[ebp]
	lea	ebx, DWORD PTR [eax+ebx*8]
	mov	eax, DWORD PTR _Param$[ebp]
	mov	eax, DWORD PTR [eax+8]
	lea	eax, DWORD PTR [eax+ebx*4]
	mov	DWORD PTR tv837[ebp], eax
	mov	eax, DWORD PTR tv776[ebp]
	mov	ebx, DWORD PTR tv837[ebp]
	movzx	ebx, WORD PTR [ebx+2]
	sub	eax, ecx
	imul	ecx, DWORD PTR _EyeWidthAtCenter$[ebp]
	imul	eax, DWORD PTR tv856[ebp]
	add	ecx, eax
	mov	eax, DWORD PTR tv915[ebp]
	movzx	eax, WORD PTR [eax+2]
	add	eax, ebx
	mov	ebx, DWORD PTR tv915[ebp]
	movzx	ebx, WORD PTR [ebx]
	add	eax, ebx
	mov	ebx, DWORD PTR tv837[ebp]
	movzx	ebx, WORD PTR [ebx]
	add	eax, ebx
	imul	eax, ecx
	add	DWORD PTR _SumLR$[ebp], eax
; Line 15995
	mov	eax, DWORD PTR _SumWeights$[ebp]
	inc	BYTE PTR _Loop$[ebp]
	lea	ecx, DWORD PTR [eax+ecx*2]
	movzx	ax, BYTE PTR _Loop$[ebp]
	mov	DWORD PTR _SumWeights$[ebp], ecx
	cmp	ax, WORD PTR tv800[ebp]
	jb	$LL11@FinalCalcu
; Line 16000
	test	ecx, ecx
	je	SHORT $LN12@FinalCalcu
; Line 16001
	mov	eax, DWORD PTR _SumLR$[ebp]
	xor	edx, edx
	div	ecx
	mov	ecx, DWORD PTR _Param$[ebp]
	mov	ecx, DWORD PTR [ecx+4]
	mov	edx, DWORD PTR tv769[ebp]
	shr	eax, 1
	mov	WORD PTR [edx+ecx], ax
; Line 16002
	jmp	SHORT $LN1@FinalCalcu
$LN12@FinalCalcu:
; Line 16003
	lea	eax, DWORD PTR [esi+edx*2]
	lea	ecx, DWORD PTR [edi+eax*4]
	movzx	eax, BYTE PTR _Rank$[ebp]
	add	ecx, eax
	movzx	eax, BYTE PTR _Strobe$[ebp]
	imul	ecx, 18					; 00000012H
	add	ecx, eax
	movzx	eax, BYTE PTR _Bit$[ebp]
	lea	eax, DWORD PTR [eax+ecx*8]
	mov	ecx, DWORD PTR _Param$[ebp]
	mov	ecx, DWORD PTR [ecx+4]
	xor	edx, edx
	mov	WORD PTR [ecx+eax*2], dx
$LN1@FinalCalcu:
	pop	edi
	pop	ebx
$LN13@FinalCalcu:
; Line 16006
	xor	eax, eax
	pop	esi
; Line 16007
	leave
	ret	0
_FinalCalculateCenter2 ENDP
_TEXT	ENDS
PUBLIC	_FindMaxMinEW
; Function compile flags: /Ogspy
;	COMDAT _FindMaxMinEW
_TEXT	SEGMENT
_MrcData$ = 8						; size = 4
_Range$ = 12						; size = 4
_Ch$ = 16						; size = 1
_Rn$ = 20						; size = 1
_Kn$ = 24						; size = 1
_St$ = 28						; size = 1
_Bi$ = 32						; size = 1
_Timing$ = 36						; size = 1
_Param$ = 40						; size = 4
_FindMaxMinEW PROC					; COMDAT
; Line 16037
	push	ebp
	mov	ebp, esp
; Line 16043
	mov	eax, DWORD PTR _Range$[ebp]
	movzx	ecx, WORD PTR [eax+2]
	movzx	eax, WORD PTR [eax]
	mov	edx, ecx
	sub	edx, eax
; Line 16044
	cmp	ax, cx
; Line 16045
	movzx	ecx, BYTE PTR _Ch$[ebp]
	movzx	eax, BYTE PTR _Timing$[ebp]
	lea	eax, DWORD PTR [ecx+eax*2]
	movzx	ecx, BYTE PTR _Rn$[ebp]
	lea	eax, DWORD PTR [ecx+eax*4]
	movzx	ecx, BYTE PTR _Kn$[ebp]
	movzx	edx, dx
	jbe	SHORT $LN3@FindMaxMin
	add	eax, ecx
	movzx	ecx, BYTE PTR _St$[ebp]
	imul	eax, 18					; 00000012H
	add	eax, ecx
	movzx	ecx, BYTE PTR _Bi$[ebp]
	lea	eax, DWORD PTR [ecx+eax*8]
	mov	ecx, DWORD PTR _Param$[ebp]
	mov	ecx, DWORD PTR [ecx+4]
	xor	edx, edx
	mov	WORD PTR [ecx+eax*2], dx
; Line 16046
	jmp	SHORT $LN1@FindMaxMin
$LN3@FindMaxMin:
; Line 16051
	add	eax, ecx
	movzx	ecx, BYTE PTR _St$[ebp]
	imul	eax, 18					; 00000012H
	add	eax, ecx
	movzx	ecx, BYTE PTR _Bi$[ebp]
	push	ebx
	push	esi
	mov	esi, DWORD PTR _Param$[ebp]
	lea	eax, DWORD PTR [ecx+eax*8]
	mov	ecx, DWORD PTR [esi+4]
	add	eax, eax
	add	ecx, eax
	movzx	ebx, WORD PTR [ecx]
	push	edi
	movsx	edi, dx
	cmp	ebx, edi
	jge	SHORT $LN2@FindMaxMin
	test	dx, dx
	jle	SHORT $LN2@FindMaxMin
; Line 16052
	mov	WORD PTR [ecx], dx
$LN2@FindMaxMin:
; Line 16057
	mov	ecx, DWORD PTR [esi]
	add	eax, ecx
	movzx	ecx, WORD PTR [eax]
	cmp	ecx, edi
	pop	edi
	pop	esi
	pop	ebx
	jle	SHORT $LN1@FindMaxMin
; Line 16058
	mov	WORD PTR [eax], dx
$LN1@FindMaxMin:
; Line 16061
	xor	eax, eax
; Line 16062
	pop	ebp
	ret	0
_FindMaxMinEW ENDP
_TEXT	ENDS
PUBLIC	_FindCommonMaxMinEW
; Function compile flags: /Ogspy
;	COMDAT _FindCommonMaxMinEW
_TEXT	SEGMENT
_MrcData$ = 8						; size = 4
_Range$ = 12						; size = 4
_Ch$ = 16						; size = 1
_Rn$ = 20						; size = 1
_Kn$ = 24						; size = 1
_St$ = 28						; size = 1
_Bi$ = 32						; size = 1
_Tim$ = 36						; size = 1
_Param$ = 40						; size = 4
_FindCommonMaxMinEW PROC				; COMDAT
; Line 16075
	push	ebp
	mov	ebp, esp
; Line 16080
	movzx	ecx, BYTE PTR _Rn$[ebp]
	movzx	eax, BYTE PTR _Ch$[ebp]
	mov	edx, DWORD PTR _Param$[ebp]
	lea	eax, DWORD PTR [ecx+eax*8]
	movzx	ecx, BYTE PTR _Kn$[ebp]
	add	ecx, eax
	lea	eax, DWORD PTR [ecx+4]
	imul	ecx, 18					; 00000012H
	imul	eax, 18					; 00000012H
	push	ebx
	movzx	ebx, BYTE PTR _St$[ebp]
	push	esi
	movzx	esi, BYTE PTR _Bi$[ebp]
	add	ecx, ebx
	add	eax, ebx
	lea	ecx, DWORD PTR [esi+ecx*8]
	lea	eax, DWORD PTR [esi+eax*8]
	push	edi
	mov	edi, DWORD PTR [edx+4]
	add	ecx, ecx
	mov	si, WORD PTR [ecx+edi]
	add	eax, eax
	cmp	si, WORD PTR [edi+eax]
; Line 16081
	mov	esi, edi
	jae	SHORT $LN4@FindCommon
	mov	di, WORD PTR [esi+eax]
	mov	WORD PTR [esi+ecx], di
; Line 16082
	jmp	SHORT $LN3@FindCommon
$LN4@FindCommon:
; Line 16083
	mov	di, WORD PTR [esi+ecx]
	mov	WORD PTR [esi+eax], di
$LN3@FindCommon:
; Line 16088
	mov	edx, DWORD PTR [edx]
	add	eax, edx
	movzx	esi, WORD PTR [eax]
	add	ecx, edx
	movzx	edx, WORD PTR [ecx]
	cmp	dx, si
	jbe	SHORT $LN2@FindCommon
; Line 16089
	mov	WORD PTR [ecx], si
; Line 16090
	jmp	SHORT $LN1@FindCommon
$LN2@FindCommon:
; Line 16091
	mov	WORD PTR [eax], dx
$LN1@FindCommon:
	pop	edi
	pop	esi
; Line 16094
	xor	eax, eax
	pop	ebx
; Line 16095
	pop	ebp
	ret	0
_FindCommonMaxMinEW ENDP
_TEXT	ENDS
PUBLIC	_ApplyMaxMinEWWeight
; Function compile flags: /Ogspy
;	COMDAT _ApplyMaxMinEWWeight
_TEXT	SEGMENT
_MrcData$ = 8						; size = 4
_Width$ = 12						; size = 2
_Range$ = 12						; size = 4
tv754 = 16						; size = 4
_Ch$ = 16						; size = 1
_Rn$ = 20						; size = 1
_Kn$ = 24						; size = 1
_St$ = 28						; size = 1
_Bi$ = 32						; size = 1
_Timing$ = 36						; size = 1
_Param$ = 40						; size = 4
_ApplyMaxMinEWWeight PROC				; COMDAT
; Line 16126
	push	ebp
	mov	ebp, esp
; Line 16132
	mov	edx, DWORD PTR _Range$[ebp]
; Line 16133
	movzx	ecx, BYTE PTR _Ch$[ebp]
	push	ebx
	push	esi
	movzx	esi, WORD PTR [edx]
	push	edi
	movzx	edi, WORD PTR [edx+2]
	mov	eax, edi
	sub	eax, esi
	movzx	eax, ax
	mov	DWORD PTR _Width$[ebp], eax
	movzx	eax, BYTE PTR _Timing$[ebp]
	lea	eax, DWORD PTR [ecx+eax*2]
	movzx	ecx, BYTE PTR _Rn$[ebp]
	lea	eax, DWORD PTR [ecx+eax*4]
	movzx	ecx, BYTE PTR _Kn$[ebp]
	add	eax, ecx
	movzx	ecx, BYTE PTR _St$[ebp]
	imul	eax, 18					; 00000012H
	add	eax, ecx
	movzx	ecx, BYTE PTR _Bi$[ebp]
	shl	eax, 3
	add	ecx, eax
	mov	DWORD PTR tv754[ebp], eax
	movzx	eax, si
	mov	esi, DWORD PTR _Param$[ebp]
	mov	ebx, DWORD PTR [esi+4]
	add	ecx, ecx
	movzx	ebx, WORD PTR [ebx+ecx]
	movzx	edi, di
	sub	edi, eax
	cmp	edi, ebx
	jne	SHORT $LN6@ApplyMaxMi
; Line 16137
	movzx	eax, BYTE PTR _Bi$[ebp]
	mov	edi, DWORD PTR [esi+12]
	add	edi, eax
	mov	eax, DWORD PTR tv754[ebp]
	add	eax, edi
	add	BYTE PTR [eax], 5
; Line 16138
	mov	eax, DWORD PTR [esi+8]
	lea	edi, DWORD PTR [eax+ecx]
	movzx	eax, WORD PTR [edx+2]
	movzx	edx, WORD PTR [edx]
	add	eax, edx
	imul	eax, 5
	jmp	SHORT $LN10@ApplyMaxMi
$LN6@ApplyMaxMi:
; Line 16142
	mov	edi, DWORD PTR [esi]
	movzx	ebx, WORD PTR [edx+2]
	movzx	edi, WORD PTR [ecx+edi]
	sub	ebx, eax
	cmp	ebx, edi
	jne	SHORT $LN4@ApplyMaxMi
; Line 16146
	movzx	eax, BYTE PTR _Bi$[ebp]
	mov	edi, DWORD PTR [esi+12]
	add	edi, eax
	mov	eax, DWORD PTR tv754[ebp]
	add	eax, edi
	add	BYTE PTR [eax], 2
; Line 16147
	mov	eax, DWORD PTR [esi+8]
	lea	edi, DWORD PTR [eax+ecx]
	movzx	eax, WORD PTR [edx+2]
	movzx	edx, WORD PTR [edx]
	add	eax, edx
	add	eax, eax
	jmp	SHORT $LN10@ApplyMaxMi
$LN4@ApplyMaxMi:
; Line 16151
	cmp	WORD PTR _Width$[ebp], 0
	jle	SHORT $LN9@ApplyMaxMi
; Line 16155
	movzx	eax, BYTE PTR _Bi$[ebp]
	mov	edi, DWORD PTR [esi+12]
	add	edi, eax
	mov	eax, DWORD PTR tv754[ebp]
	add	eax, edi
	add	BYTE PTR [eax], 3
; Line 16156
	mov	eax, DWORD PTR [esi+8]
	lea	edi, DWORD PTR [eax+ecx]
	movzx	eax, WORD PTR [edx+2]
	movzx	edx, WORD PTR [edx]
	add	eax, edx
	imul	eax, 3
$LN10@ApplyMaxMi:
	cdq
	sub	eax, edx
	sar	eax, 1
	add	WORD PTR [edi], ax
$LN9@ApplyMaxMi:
; Line 16161
	movzx	eax, BYTE PTR _Timing$[ebp]
	cmp	BYTE PTR [eax+esi+16], 1
	jne	SHORT $LN1@ApplyMaxMi
; Line 16162
	mov	eax, DWORD PTR [esi+8]
	mov	edx, DWORD PTR [esi+12]
	add	ecx, eax
	movzx	eax, BYTE PTR _Bi$[ebp]
	add	edx, eax
	mov	eax, DWORD PTR tv754[ebp]
	movzx	esi, BYTE PTR [edx+eax]
	movzx	eax, WORD PTR [ecx]
	cdq
	idiv	esi
	mov	WORD PTR [ecx], ax
$LN1@ApplyMaxMi:
	pop	edi
	pop	esi
; Line 16164
	xor	eax, eax
	pop	ebx
; Line 16165
	pop	ebp
	ret	0
_ApplyMaxMinEWWeight ENDP
_TEXT	ENDS
PUBLIC	_TestNonLinearPBForDone
; Function compile flags: /Ogspy
;	COMDAT _TestNonLinearPBForDone
_TEXT	SEGMENT
_MrcData$ = 8						; size = 4
_Range$ = 12						; size = 4
tv466 = 16						; size = 4
_Channel$ = 16						; size = 1
_Rank$ = 20						; size = 1
_Knob$ = 24						; size = 1
_Strobe$ = 28						; size = 1
_Bit$ = 32						; size = 1
_Timing$ = 36						; size = 1
_Param$ = 40						; size = 4
_TestNonLinearPBForDone PROC				; COMDAT
; Line 16236
	push	ebp
	mov	ebp, esp
; Line 16238
	movzx	edx, BYTE PTR _Channel$[ebp]
	movzx	eax, BYTE PTR _Rank$[ebp]
	movzx	ecx, BYTE PTR _Strobe$[ebp]
	push	ebx
	push	esi
	movzx	esi, BYTE PTR _Knob$[ebp]
	push	edi
	movzx	edi, BYTE PTR _Timing$[ebp]
	lea	edi, DWORD PTR [edx+edi*2]
	lea	edi, DWORD PTR [esi+edi*4]
	add	edi, eax
	mov	eax, DWORD PTR _Param$[ebp]
	imul	edi, 18					; 00000012H
	mov	ebx, DWORD PTR [eax+8]
	add	edi, ecx
	mov	ecx, edi
	movzx	edi, BYTE PTR _Bit$[ebp]
	shl	ecx, 3
	add	ebx, edi
	add	ebx, ecx
	cmp	BYTE PTR [ebx], 0
	mov	DWORD PTR tv466[ebp], ebx
	jne	SHORT $LN1@TestNonLin
; Line 16242
	mov	ebx, DWORD PTR [eax+44]
; Line 16244
	lea	esi, DWORD PTR [esi+edx*4]
	movzx	edx, BYTE PTR _Rank$[ebp]
	add	esi, edx
	movzx	edx, BYTE PTR _Strobe$[ebp]
	imul	esi, 18					; 00000012H
	add	ecx, edi
	mov	edi, DWORD PTR [eax+4]
	add	esi, edx
	mov	edx, DWORD PTR [eax+40]
	movzx	edx, WORD PTR [edx+esi*2]
	mov	esi, DWORD PTR [eax]
	add	ecx, ecx
	movzx	edi, WORD PTR [ecx+edi]
	movzx	ecx, WORD PTR [ecx+esi]
	cmp	BYTE PTR [ebx+39], 0
	mov	ebx, DWORD PTR _Range$[ebp]
	movzx	esi, di
	jne	SHORT $LN6@TestNonLin
	movzx	ebx, WORD PTR [ebx+2]
	sub	edx, ecx
	movzx	ecx, bx
	sub	ecx, esi
	cmp	ecx, edx
	jl	SHORT $LN2@TestNonLin
	cmp	bx, di
	ja	SHORT $LN10@TestNonLin
$LN2@TestNonLin:
; Line 16257
	mov	BYTE PTR [eax+36], 0
$LN1@TestNonLin:
	pop	edi
	pop	esi
; Line 16261
	xor	eax, eax
	pop	ebx
; Line 16262
	pop	ebp
	ret	0
$LN6@TestNonLin:
; Line 16254
	movzx	ebx, WORD PTR [ebx]
	sub	ecx, edx
	movzx	edx, bx
	sub	esi, edx
	cmp	esi, ecx
	jl	SHORT $LN2@TestNonLin
	cmp	bx, di
	jae	SHORT $LN2@TestNonLin
$LN10@TestNonLin:
; Line 16255
	mov	eax, DWORD PTR tv466[ebp]
	mov	BYTE PTR [eax], 1
; Line 16256
	jmp	SHORT $LN1@TestNonLin
_TestNonLinearPBForDone ENDP
_TEXT	ENDS
PUBLIC	_SplitByteResultsPerNibble
; Function compile flags: /Ogspy
;	COMDAT _SplitByteResultsPerNibble
_TEXT	SEGMENT
tv528 = -24						; size = 4
tv516 = -24						; size = 4
tv257 = -20						; size = 4
tv180 = -16						; size = 4
tv499 = -12						; size = 4
_Ch$ = -8						; size = 1
_Rk$ = -4						; size = 1
_MrcData$ = 8						; size = 4
_PBFlags$ = 12						; size = 2
_Data$ = 16						; size = 4
_DataHL$ = 20						; size = 4
_SplitByteResultsPerNibble PROC				; COMDAT
; Line 16285
	push	ebp
	mov	ebp, esp
	sub	esp, 24					; 00000018H
; Line 16291
	and	DWORD PTR tv499[ebp], 0
	push	ebx
	push	esi
	mov	DWORD PTR tv257[ebp], 2
	push	edi
$LL27@SplitByteR:
; Line 16292
	mov	BYTE PTR _Ch$[ebp], 0
	xor	ebx, ebx
$LL28@SplitByteR:
; Line 16293
	mov	BYTE PTR _Rk$[ebp], 0
	xor	esi, esi
$LL10@SplitByteR:
; Line 16294
	push	DWORD PTR _Rk$[ebp]
	mov	edi, DWORD PTR _MrcData$[ebp]
	push	DWORD PTR _Ch$[ebp]
	push	edi
	call	_RunOnThisChannel
	add	esp, 12					; 0000000cH
	test	al, al
	je	$LN9@SplitByteR
; Line 16297
	lea	eax, DWORD PTR [esi+ebx*4]
	cmp	BYTE PTR [eax+edi+55470], 9
	jne	$LN9@SplitByteR
	test	DWORD PTR _PBFlags$[ebp], 1024		; 00000400H
	je	$LN9@SplitByteR
; Line 16298
	xor	edi, edi
	mov	DWORD PTR tv180[ebp], 9
$LL5@SplitByteR:
; Line 16299
	mov	ecx, DWORD PTR _Data$[ebp]
	test	ecx, ecx
	je	SHORT $LN2@SplitByteR
; Line 16307
	mov	eax, DWORD PTR tv499[ebp]
	add	eax, ebx
	lea	eax, DWORD PTR [esi+eax*4]
	imul	eax, 18					; 00000012H
	add	eax, edi
	mov	edx, eax
	add	eax, 9
	shl	edx, 4
	lea	edx, DWORD PTR [edx+ecx+8]
	push	8
	shl	eax, 4
	push	edx
	add	eax, ecx
	push	eax
	mov	DWORD PTR tv516[ebp], edx
	call	_MmrcMemCopy
; Line 16315
	push	8
	push	-1
	push	DWORD PTR tv516[ebp]
	call	_MmrcMemset
	add	esp, 24					; 00000018H
$LN2@SplitByteR:
; Line 16317
	mov	ecx, DWORD PTR _DataHL$[ebp]
	test	ecx, ecx
	je	SHORT $LN4@SplitByteR
; Line 16325
	mov	eax, DWORD PTR tv499[ebp]
	add	eax, ebx
	lea	eax, DWORD PTR [esi+eax*4]
	imul	eax, 18					; 00000012H
	add	eax, edi
	mov	edx, eax
	add	eax, 9
	shl	edx, 5
	lea	edx, DWORD PTR [edx+ecx+16]
	push	16					; 00000010H
	shl	eax, 5
	push	edx
	add	eax, ecx
	push	eax
	mov	DWORD PTR tv528[ebp], edx
	call	_MmrcMemCopy
; Line 16333
	push	16					; 00000010H
	push	-1
	push	DWORD PTR tv528[ebp]
	call	_MmrcMemset
	add	esp, 24					; 00000018H
$LN4@SplitByteR:
	inc	edi
	dec	DWORD PTR tv180[ebp]
	jne	$LL5@SplitByteR
$LN9@SplitByteR:
; Line 16293
	inc	BYTE PTR _Rk$[ebp]
	inc	esi
	cmp	BYTE PTR _Rk$[ebp], 4
	jb	$LL10@SplitByteR
	inc	BYTE PTR _Ch$[ebp]
	inc	ebx
	cmp	BYTE PTR _Ch$[ebp], 2
	jb	$LL28@SplitByteR
	add	DWORD PTR tv499[ebp], 2
	dec	DWORD PTR tv257[ebp]
	jne	$LL27@SplitByteR
	pop	edi
	pop	esi
; Line 16341
	xor	eax, eax
	pop	ebx
; Line 16342
	leave
	ret	0
_SplitByteResultsPerNibble ENDP
_TEXT	ENDS
PUBLIC	_DetermineStrobeVal
; Function compile flags: /Ogspy
;	COMDAT _DetermineStrobeVal
_TEXT	SEGMENT
tv398 = -8						; size = 4
_MaxBit$ = -1						; size = 1
_MrcData$ = 8						; size = 4
_Range$ = 12						; size = 4
_Channel$ = 16						; size = 1
_Rank$ = 20						; size = 1
_Knob$ = 24						; size = 1
_Strobe$ = 28						; size = 1
_Bit$ = 32						; size = 1
_Timing$ = 36						; size = 1
tv393 = 40						; size = 4
_Param$ = 40						; size = 4
_DetermineStrobeVal PROC				; COMDAT
; Line 16356
	push	ebp
	mov	ebp, esp
	push	ecx
	push	ecx
	push	ebx
	push	esi
	push	edi
; Line 16360
	lea	eax, DWORD PTR _MaxBit$[ebp]
	push	eax
	push	1
	push	DWORD PTR _Strobe$[ebp]
	push	DWORD PTR _Rank$[ebp]
	push	DWORD PTR _Channel$[ebp]
	push	DWORD PTR _MrcData$[ebp]
	call	_IsStrobeValid
; Line 16361
	mov	esi, DWORD PTR _Param$[ebp]
	mov	eax, DWORD PTR [esi+44]
; Line 16366
	movzx	ecx, BYTE PTR _Channel$[ebp]
	movzx	edx, BYTE PTR _Rank$[ebp]
	movzx	edi, BYTE PTR _Knob$[ebp]
	movzx	ebx, BYTE PTR _Strobe$[ebp]
	add	esp, 24					; 00000018H
	cmp	BYTE PTR [eax+39], 1
	mov	DWORD PTR tv393[ebp], edx
	mov	DWORD PTR tv398[ebp], ebx
	lea	eax, DWORD PTR [edi+ecx*4]
	jne	SHORT $LN13@DetermineS
	add	eax, edx
	mov	edx, DWORD PTR [esi+40]
	imul	eax, 18					; 00000012H
	add	eax, ebx
	add	eax, eax
; Line 16367
	cmp	BYTE PTR _MaxBit$[ebp], 0
	mov	ebx, 65535				; 0000ffffH
	mov	WORD PTR [eax+edx], bx
	jbe	SHORT $LN5@DetermineS
	movzx	edx, BYTE PTR _Timing$[ebp]
	movzx	ebx, BYTE PTR _MaxBit$[ebp]
	lea	ecx, DWORD PTR [ecx+edx*2]
	lea	ecx, DWORD PTR [edi+ecx*4]
	add	ecx, DWORD PTR tv393[ebp]
	imul	ecx, 18					; 00000012H
	add	ecx, DWORD PTR tv398[ebp]
	shl	ecx, 4
$LL12@DetermineS:
; Line 16368
	mov	edi, DWORD PTR [esi]
	mov	edx, DWORD PTR [esi+40]
	movzx	edi, WORD PTR [ecx+edi]
	add	edx, eax
	cmp	di, WORD PTR [edx]
	jae	SHORT $LN11@DetermineS
; Line 16369
	mov	WORD PTR [edx], di
$LN11@DetermineS:
; Line 16367
	inc	ecx
	inc	ecx
	dec	ebx
	jne	SHORT $LL12@DetermineS
; Line 16372
	jmp	SHORT $LN5@DetermineS
$LN13@DetermineS:
; Line 16377
	add	eax, edx
	mov	edx, DWORD PTR [esi+40]
	imul	eax, 18					; 00000012H
	add	eax, ebx
	xor	ebx, ebx
	add	eax, eax
	mov	WORD PTR [eax+edx], bx
; Line 16378
	cmp	BYTE PTR _MaxBit$[ebp], bl
	jbe	SHORT $LN5@DetermineS
	movzx	edx, BYTE PTR _Timing$[ebp]
	movzx	ebx, BYTE PTR _MaxBit$[ebp]
	lea	ecx, DWORD PTR [ecx+edx*2]
	lea	ecx, DWORD PTR [edi+ecx*4]
	add	ecx, DWORD PTR tv393[ebp]
	imul	ecx, 18					; 00000012H
	add	ecx, DWORD PTR tv398[ebp]
	shl	ecx, 4
$LL7@DetermineS:
; Line 16379
	mov	edi, DWORD PTR [esi]
	mov	edx, DWORD PTR [esi+40]
	movzx	edi, WORD PTR [ecx+edi]
	add	edx, eax
	cmp	di, WORD PTR [edx]
	jbe	SHORT $LN6@DetermineS
; Line 16380
	mov	WORD PTR [edx], di
$LN6@DetermineS:
; Line 16378
	inc	ecx
	inc	ecx
	dec	ebx
	jne	SHORT $LL7@DetermineS
$LN5@DetermineS:
	pop	edi
	pop	esi
; Line 16395
	xor	eax, eax
	pop	ebx
; Line 16396
	leave
	ret	0
_DetermineStrobeVal ENDP
_TEXT	ENDS
PUBLIC	_CopyToLow
; Function compile flags: /Ogspy
;	COMDAT _CopyToLow
_TEXT	SEGMENT
_MrcData$ = 8						; size = 4
_Range$ = 12						; size = 4
tv276 = 16						; size = 4
_Channel$ = 16						; size = 1
_Rank$ = 20						; size = 1
_Knob$ = 24						; size = 1
_Strobe$ = 28						; size = 1
_Bit$ = 32						; size = 1
_Timing$ = 36						; size = 1
_Param$ = 40						; size = 4
_CopyToLow PROC						; COMDAT
; Line 16410
	push	ebp
	mov	ebp, esp
; Line 16413
	movzx	ecx, BYTE PTR _Channel$[ebp]
	movzx	edx, BYTE PTR _Knob$[ebp]
	push	ebx
	movzx	ebx, BYTE PTR _Timing$[ebp]
	push	esi
	mov	esi, DWORD PTR _Param$[ebp]
	mov	eax, DWORD PTR [esi+44]
	cmp	BYTE PTR [eax+39], 0
	movzx	eax, BYTE PTR _Rank$[ebp]
	lea	ebx, DWORD PTR [ecx+ebx*2]
	push	edi
	movzx	edi, BYTE PTR _Strobe$[ebp]
	lea	ebx, DWORD PTR [edx+ebx*4]
	jne	SHORT $LN4@CopyToLow
	add	ebx, eax
	imul	ebx, 18					; 00000012H
	add	ebx, edi
	mov	edi, ebx
	mov	ebx, DWORD PTR _Range$[ebp]
	mov	bx, WORD PTR [ebx+2]
; Line 16414
	jmp	SHORT $LN7@CopyToLow
$LN4@CopyToLow:
; Line 16415
	add	ebx, eax
	imul	ebx, 18					; 00000012H
	add	ebx, edi
	mov	edi, ebx
	mov	ebx, DWORD PTR _Range$[ebp]
	mov	bx, WORD PTR [ebx]
$LN7@CopyToLow:
	movzx	eax, BYTE PTR _Bit$[ebp]
; Line 16417
	lea	edx, DWORD PTR [edx+ecx*4]
	movzx	ecx, BYTE PTR _Rank$[ebp]
	add	edx, ecx
	movzx	ecx, BYTE PTR _Strobe$[ebp]
	imul	edx, 18					; 00000012H
	shl	edi, 3
	add	eax, edi
	add	eax, eax
	mov	DWORD PTR tv276[ebp], edi
	mov	edi, DWORD PTR [esi+4]
	mov	WORD PTR [eax+edi], bx
	add	edx, ecx
	mov	ecx, DWORD PTR [esi+40]
	movzx	ecx, WORD PTR [ecx+edx*2]
	mov	edx, DWORD PTR [esi]
	movzx	eax, WORD PTR [eax+edx]
	sub	eax, ecx
	jne	SHORT $LN2@CopyToLow
; Line 16418
	movzx	eax, BYTE PTR _Bit$[ebp]
	mov	ecx, DWORD PTR [esi+8]
	add	ecx, eax
	mov	eax, DWORD PTR tv276[ebp]
	mov	BYTE PTR [ecx+eax], 1
; Line 16419
	jmp	SHORT $LN1@CopyToLow
$LN2@CopyToLow:
; Line 16420
	mov	BYTE PTR [esi+36], 0
$LN1@CopyToLow:
	pop	edi
	pop	esi
; Line 16422
	xor	eax, eax
	pop	ebx
; Line 16423
	pop	ebp
	ret	0
_CopyToLow ENDP
_TEXT	ENDS
PUBLIC	_FillSignalIndexArray
; Function compile flags: /Ogspy
;	COMDAT _FillSignalIndexArray
_TEXT	SEGMENT
_Index$ = 8						; size = 4
_ControlKnobs$ = 12					; size = 4
_IdxArrayFlag$ = 16					; size = 1
_FillSignalIndexArray PROC				; COMDAT
; Line 16650
	mov	eax, DWORD PTR _ControlKnobs$[esp-4]
	mov	cl, BYTE PTR [eax+43]
	xor	dl, dl
	test	cl, cl
	jbe	SHORT $LN7@FillSignal
	push	ebx
	movzx	ebx, BYTE PTR _IdxArrayFlag$[esp]
	push	esi
	mov	esi, DWORD PTR _Index$[esp+4]
	push	edi
$LL9@FillSignal:
; Line 16651
	mov	edi, ebx
	sub	edi, 0
	je	SHORT $LN3@FillSignal
	dec	edi
	je	SHORT $LN2@FillSignal
	sub	edi, 254				; 000000feH
; Line 16662
	movzx	ecx, dl
; Line 16663
	jne	SHORT $LN14@FillSignal
; Line 16653
	mov	edi, 65535				; 0000ffffH
; Line 16654
	jmp	SHORT $LN15@FillSignal
$LN2@FillSignal:
; Line 16659
	movzx	ecx, cl
	imul	ecx, 45					; 0000002dH
	mov	cx, WORD PTR [ecx+eax]
	movzx	edi, dl
	mov	WORD PTR [esi+edi*2], cx
; Line 16660
	jmp	SHORT $LN8@FillSignal
$LN3@FillSignal:
; Line 16656
	movzx	ecx, dl
$LN14@FillSignal:
	mov	edi, ecx
	imul	edi, 45					; 0000002dH
	mov	di, WORD PTR [edi+eax]
$LN15@FillSignal:
	mov	WORD PTR [esi+ecx*2], di
$LN8@FillSignal:
; Line 16650
	mov	cl, BYTE PTR [eax+43]
	inc	dl
	cmp	dl, cl
	jb	SHORT $LL9@FillSignal
	pop	edi
	pop	esi
	pop	ebx
$LN7@FillSignal:
; Line 16666
	ret	0
_FillSignalIndexArray ENDP
_TEXT	ENDS
PUBLIC	??_C@_0BO@LFJFNKGJ@Supportx4withByteLevelSignals?$AA@ ; `string'
PUBLIC	_Supportx4withByteLevelSignals
EXTRN	_CheckX4Support:PROC
;	COMDAT ??_C@_0BO@LFJFNKGJ@Supportx4withByteLevelSignals?$AA@
CONST	SEGMENT
??_C@_0BO@LFJFNKGJ@Supportx4withByteLevelSignals?$AA@ DB 'Supportx4withBy'
	DB	'teLevelSignals', 00H			; `string'
; Function compile flags: /Ogspy
CONST	ENDS
;	COMDAT _Supportx4withByteLevelSignals
_TEXT	SEGMENT
_MrcData$ = 8						; size = 4
_Index$ = 12						; size = 2
_SharedFlags$ = 16					; size = 2
_Channel$ = 20						; size = 1
_Rank$ = 24						; size = 1
_NumberElements$ = 28					; size = 4
_Supportx4withByteLevelSignals PROC			; COMDAT
; Line 17257
	push	ebp
	mov	ebp, esp
	push	ebx
	push	esi
; Line 17261
	mov	esi, DWORD PTR _NumberElements$[ebp]
	xor	ebx, ebx
	push	edi
	mov	edi, DWORD PTR _MrcData$[ebp]
	mov	BYTE PTR _Channel$[ebp], bl
$LL6@Supportx4w:
; Line 17262
	push	DWORD PTR _Rank$[ebp]
	push	DWORD PTR _Channel$[ebp]
	push	edi
	call	_RunOnThisChannel
	add	esp, 12					; 0000000cH
	test	al, al
	je	SHORT $LN5@Supportx4w
; Line 17263
	test	BYTE PTR _SharedFlags$[ebp], 128	; 00000080H
	je	SHORT $LN11@Supportx4w
	movzx	eax, BYTE PTR _Rank$[ebp]
	add	eax, ebx
	add	eax, edi
	cmp	BYTE PTR [eax+55454], 18		; 00000012H
	jne	SHORT $LN11@Supportx4w
; Line 17266
	push	17266					; 00004372H
	push	OFFSET ??_C@_0BO@LFJFNKGJ@Supportx4withByteLevelSignals?$AA@
	mov	BYTE PTR [esi], 9
	push	edi
	mov	BYTE PTR [eax+55462], 8
	call	_CheckX4Support
	add	esp, 12					; 0000000cH
; Line 17267
	jmp	SHORT $LN5@Supportx4w
$LN11@Supportx4w:
; Line 17268
	movzx	eax, BYTE PTR _Rank$[ebp]
	add	eax, ebx
	mov	al, BYTE PTR [eax+edi+55454]
	mov	BYTE PTR [esi], al
$LN5@Supportx4w:
	inc	BYTE PTR _Channel$[ebp]
	add	ebx, 4
	inc	esi
	cmp	BYTE PTR _Channel$[ebp], 2
	jb	SHORT $LL6@Supportx4w
	pop	edi
	pop	esi
; Line 17271
	xor	eax, eax
	pop	ebx
; Line 17272
	pop	ebp
	ret	0
_Supportx4withByteLevelSignals ENDP
_TEXT	ENDS
PUBLIC	??_C@_0BO@JCOMMCBM@Restorex4withByteLevelSignals?$AA@ ; `string'
PUBLIC	_Restorex4withByteLevelSignals
;	COMDAT ??_C@_0BO@JCOMMCBM@Restorex4withByteLevelSignals?$AA@
CONST	SEGMENT
??_C@_0BO@JCOMMCBM@Restorex4withByteLevelSignals?$AA@ DB 'Restorex4withBy'
	DB	'teLevelSignals', 00H			; `string'
; Function compile flags: /Ogspy
CONST	ENDS
;	COMDAT _Restorex4withByteLevelSignals
_TEXT	SEGMENT
_MrcData$ = 8						; size = 4
_Index$ = 12						; size = 2
_SharedFlags$ = 16					; size = 2
_Channel$ = 20						; size = 1
_Rank$ = 24						; size = 1
_Restorex4withByteLevelSignals PROC			; COMDAT
; Line 17281
	push	ebp
	mov	ebp, esp
	push	esi
; Line 17285
	mov	esi, DWORD PTR _MrcData$[ebp]
	push	edi
	mov	BYTE PTR _Channel$[ebp], 0
	xor	edi, edi
$LL5@Restorex4w:
; Line 17286
	push	DWORD PTR _Rank$[ebp]
	push	DWORD PTR _Channel$[ebp]
	push	esi
	call	_RunOnThisChannel
	add	esp, 12					; 0000000cH
	test	al, al
	je	SHORT $LN4@Restorex4w
; Line 17287
	test	BYTE PTR _SharedFlags$[ebp], 128	; 00000080H
	je	SHORT $LN4@Restorex4w
	movzx	eax, BYTE PTR _Rank$[ebp]
	add	eax, edi
	add	eax, esi
	cmp	BYTE PTR [eax+55454], 18		; 00000012H
	jne	SHORT $LN4@Restorex4w
; Line 17289
	push	17289					; 00004389H
	push	OFFSET ??_C@_0BO@JCOMMCBM@Restorex4withByteLevelSignals?$AA@
	push	esi
	mov	BYTE PTR [eax+55462], 4
	call	_CheckX4Support
	add	esp, 12					; 0000000cH
$LN4@Restorex4w:
	inc	BYTE PTR _Channel$[ebp]
	add	edi, 4
	cmp	BYTE PTR _Channel$[ebp], 2
	jb	SHORT $LL5@Restorex4w
	pop	edi
; Line 17292
	xor	eax, eax
	pop	esi
; Line 17293
	pop	ebp
	ret	0
_Restorex4withByteLevelSignals ENDP
_TEXT	ENDS
PUBLIC	_GetMaxElements
; Function compile flags: /Ogspy
;	COMDAT _GetMaxElements
_TEXT	SEGMENT
_ch$ = -9						; size = 1
_rk$ = -5						; size = 1
_MaxElements$ = -1					; size = 1
_MrcData$ = 8						; size = 4
_GetMaxElements PROC					; COMDAT
; Line 17555
	push	ebp
	mov	ebp, esp
	sub	esp, 12					; 0000000cH
	push	ebx
; Line 17559
	mov	ebx, DWORD PTR _MrcData$[ebp]
	push	esi
	push	edi
	mov	BYTE PTR _MaxElements$[ebp], 0
; Line 17560
	mov	BYTE PTR _ch$[ebp], 0
	xor	edi, edi
$LL16@GetMaxElem:
; Line 17561
	mov	BYTE PTR _rk$[ebp], 0
	xor	esi, esi
$LL4@GetMaxElem:
; Line 17562
	push	DWORD PTR _rk$[ebp]
	push	DWORD PTR _ch$[ebp]
	push	ebx
	call	_RunOnThisChannel
	add	esp, 12					; 0000000cH
	test	al, al
	je	SHORT $LN3@GetMaxElem
; Line 17563
	mov	cl, BYTE PTR _MaxElements$[ebp]
	lea	eax, DWORD PTR [edi+esi]
	mov	al, BYTE PTR [eax+ebx+55454]
	mov	BYTE PTR _MaxElements$[ebp], cl
	cmp	cl, al
	ja	SHORT $LN3@GetMaxElem
	mov	BYTE PTR _MaxElements$[ebp], al
$LN3@GetMaxElem:
; Line 17561
	inc	BYTE PTR _rk$[ebp]
	inc	esi
	cmp	BYTE PTR _rk$[ebp], 4
	jb	SHORT $LL4@GetMaxElem
	inc	BYTE PTR _ch$[ebp]
	add	edi, 4
	cmp	BYTE PTR _ch$[ebp], 2
	jb	SHORT $LL16@GetMaxElem
; Line 17567
	mov	al, BYTE PTR _MaxElements$[ebp]
	pop	edi
	pop	esi
	pop	ebx
; Line 17568
	leave
	ret	0
_GetMaxElements ENDP
_TEXT	ENDS
PUBLIC	_GetMaxBits
; Function compile flags: /Ogspy
;	COMDAT _GetMaxBits
_TEXT	SEGMENT
_ch$ = -9						; size = 1
_rk$ = -5						; size = 1
_MaxBits$ = -1						; size = 1
_MrcData$ = 8						; size = 4
_GetMaxBits PROC					; COMDAT
; Line 17574
	push	ebp
	mov	ebp, esp
	sub	esp, 12					; 0000000cH
	push	ebx
; Line 17578
	mov	ebx, DWORD PTR _MrcData$[ebp]
	push	esi
	push	edi
	mov	BYTE PTR _MaxBits$[ebp], 0
; Line 17579
	mov	BYTE PTR _ch$[ebp], 0
	xor	edi, edi
$LL16@GetMaxBits:
; Line 17580
	mov	BYTE PTR _rk$[ebp], 0
	xor	esi, esi
$LL4@GetMaxBits:
; Line 17581
	push	DWORD PTR _rk$[ebp]
	push	DWORD PTR _ch$[ebp]
	push	ebx
	call	_RunOnThisChannel
	add	esp, 12					; 0000000cH
	test	al, al
	je	SHORT $LN3@GetMaxBits
; Line 17582
	mov	cl, BYTE PTR _MaxBits$[ebp]
	lea	eax, DWORD PTR [edi+esi]
	mov	al, BYTE PTR [eax+ebx+55462]
	mov	BYTE PTR _MaxBits$[ebp], cl
	cmp	cl, al
	ja	SHORT $LN3@GetMaxBits
	mov	BYTE PTR _MaxBits$[ebp], al
$LN3@GetMaxBits:
; Line 17580
	inc	BYTE PTR _rk$[ebp]
	inc	esi
	cmp	BYTE PTR _rk$[ebp], 4
	jb	SHORT $LL4@GetMaxBits
	inc	BYTE PTR _ch$[ebp]
	add	edi, 4
	cmp	BYTE PTR _ch$[ebp], 2
	jb	SHORT $LL16@GetMaxBits
; Line 17586
	mov	al, BYTE PTR _MaxBits$[ebp]
	pop	edi
	pop	esi
	pop	ebx
; Line 17587
	leave
	ret	0
_GetMaxBits ENDP
_TEXT	ENDS
PUBLIC	_MmrcWriteMsr
; Function compile flags: /Ogspy
;	COMDAT _MmrcWriteMsr
_TEXT	SEGMENT
_MrcData$ = 8						; size = 4
_MsrAddress$ = 12					; size = 4
_MsrDataLow$ = 16					; size = 4
_MsrDataHigh$ = 20					; size = 4
_MmrcWriteMsr PROC					; COMDAT
; Line 17613
	mov	edx, DWORD PTR _MsrDataHigh$[esp-4]
; Line 17614
	mov	eax, DWORD PTR _MsrDataLow$[esp-4]
; Line 17615
	mov	ecx, DWORD PTR _MsrAddress$[esp-4]
; Line 17616
	wrmsr
; Line 17619
	xor	eax, eax
; Line 17620
	ret	0
_MmrcWriteMsr ENDP
_TEXT	ENDS
PUBLIC	_MmrcReadMsr
; Function compile flags: /Ogspy
;	COMDAT _MmrcReadMsr
_TEXT	SEGMENT
_MrcData$ = 8						; size = 4
_MsrAddress$ = 12					; size = 4
_MmrcReadMsr PROC					; COMDAT
; Line 17645
	mov	ecx, DWORD PTR _MsrAddress$[esp-4]
; Line 17646
	rdmsr
; Line 17650
	ret	0
_MmrcReadMsr ENDP
_TEXT	ENDS
PUBLIC	_PrintTaskNameType
; Function compile flags: /Ogspy
;	COMDAT _PrintTaskNameType
_TEXT	SEGMENT
_j$ = 8							; size = 4
_PrintTaskNameType PROC					; COMDAT
; Line 230
	ret	0
_PrintTaskNameType ENDP
_TEXT	ENDS
PUBLIC	_CheckAdvConstrains
; Function compile flags: /Ogspy
;	COMDAT _CheckAdvConstrains
_TEXT	SEGMENT
_MrcData$ = 8						; size = 4
_Str$ = 12						; size = 4
_function$ = 16						; size = 4
_line$ = 20						; size = 4
_CheckAdvConstrains PROC				; COMDAT
; Line 259
	mov	eax, DWORD PTR _MrcData$[esp-4]
	mov	DWORD PTR [eax+65333], 40		; 00000028H
; Line 260
	call	_MrcDeadLoop
; Line 261
	or	eax, -1
; Line 262
	ret	0
_CheckAdvConstrains ENDP
_TEXT	ENDS
PUBLIC	??_C@_0BF@FECKJEFM@ReInitializeFunction?$AA@	; `string'
PUBLIC	_MmrcEntry
EXTRN	_Mmio32Read:PROC
EXTRN	_CapsuleStrings:BYTE
EXTRN	_HandleCheckpoint:PROC
EXTRN	_InitTasks:BYTE
EXTRN	_LockMspDataStructure:PROC
;	COMDAT ??_C@_0BF@FECKJEFM@ReInitializeFunction?$AA@
CONST	SEGMENT
??_C@_0BF@FECKJEFM@ReInitializeFunction?$AA@ DB 'ReInitializeFunction', 00H ; `string'
; Function compile flags: /Ogspy
CONST	ENDS
;	COMDAT _MmrcEntry
_TEXT	SEGMENT
tv712 = -16						; size = 4
_Channel$ = -12						; size = 1
_Status$ = -8						; size = 4
_BackupMessage$ = -1					; size = 1
_MrcData$ = 8						; size = 4
_ChannelBackup$ = 12					; size = 2
_Action$ = 12						; size = 4
_Parameters$ = 16					; size = 4
_MmrcEntry PROC						; COMDAT
; Line 368
	push	ebp
	mov	ebp, esp
	sub	esp, 16					; 00000010H
	push	esi
; Line 380
	mov	esi, DWORD PTR _MrcData$[ebp]
	mov	al, BYTE PTR [esi+55506]
	push	edi
	xor	edi, edi
; Line 384
	push	esi
	mov	DWORD PTR _Status$[ebp], edi
	mov	BYTE PTR _BackupMessage$[ebp], al
	call	_ConvertPfctFromBitXToX
	pop	ecx
; Line 388
	call	_LockMspDataStructure
; Line 392
	cmp	DWORD PTR _Action$[ebp], edi
	je	SHORT $LN56@MmrcEntry
	cmp	DWORD PTR _Action$[ebp], 5
	jne	SHORT $LN3@MmrcEntry
; Line 553
	mov	eax, DWORD PTR _Parameters$[ebp]
	cmp	BYTE PTR [eax+2], 0
	jne	SHORT $LN4@MmrcEntry
; Line 554
	mov	BYTE PTR [eax+1], 254			; 000000feH
$LN4@MmrcEntry:
; Line 556
	mov	ecx, DWORD PTR [eax+4]
	cmp	ecx, edi
	je	SHORT $LN3@MmrcEntry
; Line 557
	movzx	eax, BYTE PTR [eax+1]
	push	eax
	push	esi
	call	ecx
	pop	ecx
	pop	ecx
	jmp	$LN59@MmrcEntry
$LN3@MmrcEntry:
; Line 569
	xor	eax, eax
	jmp	$LN59@MmrcEntry
$LN56@MmrcEntry:
; Line 395
	mov	eax, DWORD PTR _Parameters$[ebp]
	push	ebx
	mov	ebx, OFFSET _InitTasks
	cmp	eax, edi
	je	SHORT $LN54@MmrcEntry
; Line 396
	cmp	BYTE PTR [eax+2], 0
	je	SHORT $LN54@MmrcEntry
; Line 397
	mov	al, BYTE PTR [eax+1]
	mov	BYTE PTR _InitTasks+11, al
$LN54@MmrcEntry:
; Line 400
	cmp	DWORD PTR _InitTasks+4, edi
	je	$LN51@MmrcEntry
$LL53@MmrcEntry:
; Line 401
	mov	al, BYTE PTR [ebx+1]
	test	al, BYTE PTR [esi+31274]
	je	$LN52@MmrcEntry
; Line 402
	mov	al, BYTE PTR [ebx]
	mov	BYTE PTR [esi+65332], al
; Line 403
	movzx	eax, BYTE PTR [ebx]
	push	eax
	push	esi
	call	_HandleCheckpoint
; Line 408
	push	ebx
	push	esi
	call	_CreateChannelMask
; Line 409
	mov	al, BYTE PTR [ebx+11]
	add	esp, 16					; 00000010H
	cmp	al, 255					; 000000ffH
	je	$LN48@MmrcEntry
	cmp	al, 224					; 000000e0H
	jne	SHORT $LN32@MmrcEntry
	cmp	BYTE PTR [esi+65552], 0
	je	$LN48@MmrcEntry
; Line 456
	cmp	al, al
	jne	SHORT $LN32@MmrcEntry
; Line 460
	mov	BYTE PTR [esi+55508], 1
; Line 461
	push	edi
; Line 464
	jmp	$LN157@MmrcEntry
$LN32@MmrcEntry:
; Line 465
	cmp	al, 254					; 000000feH
	jne	$LN28@MmrcEntry
; Line 466
	mov	eax, 254				; 000000feH
	cmp	WORD PTR [ebx+8], ax
	jne	SHORT $LN25@MmrcEntry
; Line 468
	movzx	eax, BYTE PTR [ebx+10]
	push	20					; 00000014H
	push	OFFSET ??_C@_0BF@FECKJEFM@ReInitializeFunction?$AA@
	push	DWORD PTR _CapsuleStrings[eax*4]
	call	_MmrcStringCompare
	add	esp, 12					; 0000000cH
	test	al, al
	je	SHORT $LN25@MmrcEntry
; Line 469
	mov	al, BYTE PTR [esi+55506]
	test	al, al
	je	SHORT $LN25@MmrcEntry
; Line 470
	or	al, 15					; 0000000fH
	mov	BYTE PTR [esi+55506], al
$LN25@MmrcEntry:
; Line 479
	push	ebx
	push	esi
	call	_CreateChannelMask
	pop	ecx
	lea	eax, DWORD PTR [esi+55511]
	pop	ecx
	lea	edi, DWORD PTR _ChannelBackup$[ebp]
	mov	ecx, eax
	mov	DWORD PTR tv712[ebp], 2
$LL24@MmrcEntry:
; Line 487
	cmp	BYTE PTR [ecx], 0
	mov	dl, BYTE PTR [ecx-2]
	mov	BYTE PTR [edi], dl
	je	SHORT $LN23@MmrcEntry
; Line 488
	mov	BYTE PTR [eax], 1
; Line 489
	mov	BYTE PTR [esi+55509], 1
$LN23@MmrcEntry:
	inc	edi
	inc	ecx
	dec	DWORD PTR tv712[ebp]
	jne	SHORT $LL24@MmrcEntry
; Line 494
	mov	BYTE PTR [esi+55512], 0
; Line 495
	mov	BYTE PTR [esi+55510], 0
; Line 501
	lea	edi, DWORD PTR [esi+55509]
; Line 502
	lea	esi, DWORD PTR _ChannelBackup$[ebp]
	movsw
; Line 508
	cmp	BYTE PTR [eax], 0
	je	$LN152@MmrcEntry
; Line 511
	movzx	eax, WORD PTR [ebx+12]
	mov	ecx, 542				; 0000021eH
	cmp	ax, cx
	jae	SHORT $LN12@MmrcEntry
; Line 513
	mov	ecx, DWORD PTR _MrcData$[ebp]
	movzx	eax, ax
	mov	edx, DWORD PTR [ecx+eax*8+55526]
	or	edx, DWORD PTR [ecx+eax*8+55530]
	je	$LN152@MmrcEntry
$LN12@MmrcEntry:
; Line 517
	mov	esi, DWORD PTR _MrcData$[ebp]
	mov	BYTE PTR [esi+55508], 0
; Line 518
	movzx	ax, BYTE PTR [ebx+10]
	movzx	eax, ax
	push	0
	push	eax
	movzx	eax, WORD PTR [ebx+8]
	push	eax
	push	esi
	call	DWORD PTR [ebx+4]
	mov	DWORD PTR _Status$[ebp], eax
; Line 519
	movzx	eax, BYTE PTR [ebx+10]
	push	20					; 00000014H
	push	OFFSET ??_C@_0BF@FECKJEFM@ReInitializeFunction?$AA@
	push	DWORD PTR _CapsuleStrings[eax*4]
	call	_MmrcStringCompare
	add	esp, 28					; 0000001cH
	test	al, al
	je	SHORT $LN11@MmrcEntry
; Line 520
	mov	al, BYTE PTR _BackupMessage$[ebp]
	mov	BYTE PTR [esi+55506], al
$LN11@MmrcEntry:
; Line 522
	cmp	DWORD PTR _Status$[ebp], 0
	jne	$LN51@MmrcEntry
; Line 525
	jmp	$LN52@MmrcEntry
$LN28@MmrcEntry:
; Line 532
	movzx	eax, al
	add	eax, esi
	cmp	BYTE PTR [eax+28608], 0
	je	$LN52@MmrcEntry
	cmp	BYTE PTR [eax+55511], 0
	je	$LN52@MmrcEntry
; Line 533
	mov	BYTE PTR [esi+55508], 0
; Line 534
	movzx	eax, BYTE PTR [ebx+11]
	push	eax
$LN157@MmrcEntry:
	movzx	ax, BYTE PTR [ebx+10]
	movzx	eax, ax
	push	eax
	movzx	eax, WORD PTR [ebx+8]
	push	eax
	push	esi
	call	DWORD PTR [ebx+4]
	add	esp, 16					; 00000010H
	mov	DWORD PTR _Status$[ebp], eax
; Line 535
	cmp	eax, edi
	jne	$LN155@MmrcEntry
	jmp	$LN52@MmrcEntry
$LN48@MmrcEntry:
; Line 410
	mov	BYTE PTR _Channel$[ebp], 0
$LL47@MmrcEntry:
; Line 415
	push	ebx
	push	esi
	call	_CreateChannelMask
; Line 416
	movzx	eax, BYTE PTR _Channel$[ebp]
	lea	edi, DWORD PTR [eax+esi]
	cmp	BYTE PTR [edi+28608], 0
	pop	ecx
	pop	ecx
	je	$LN46@MmrcEntry
	cmp	BYTE PTR [edi+55511], 0
	je	$LN46@MmrcEntry
; Line 419
	movzx	ecx, WORD PTR [ebx+12]
	mov	edx, 542				; 0000021eH
	cmp	cx, dx
	je	SHORT $LN41@MmrcEntry
; Line 421
	imul	eax, 542				; 0000021eH
	movzx	ecx, cx
	add	eax, ecx
	mov	ecx, DWORD PTR [esi+eax*8+55526]
	or	ecx, DWORD PTR [esi+eax*8+55530]
	je	$LN46@MmrcEntry
$LN41@MmrcEntry:
; Line 425
	mov	eax, 254				; 000000feH
	cmp	WORD PTR [ebx+8], ax
	jne	SHORT $LN151@MmrcEntry
; Line 427
	movzx	eax, BYTE PTR [ebx+10]
	push	20					; 00000014H
	push	OFFSET ??_C@_0BF@FECKJEFM@ReInitializeFunction?$AA@
	push	DWORD PTR _CapsuleStrings[eax*4]
	call	_MmrcStringCompare
	add	esp, 12					; 0000000cH
	test	al, al
	je	SHORT $LN151@MmrcEntry
; Line 428
	mov	al, BYTE PTR [esi+55506]
	test	al, al
	je	SHORT $LN151@MmrcEntry
; Line 429
	or	al, 15					; 0000000fH
	mov	BYTE PTR [esi+55506], al
$LN151@MmrcEntry:
; Line 438
	push	2
	lea	eax, DWORD PTR [esi+55511]
	push	0
	push	eax
	mov	BYTE PTR [esi+55508], 0
	call	_MmrcMemset
; Line 439
	mov	al, BYTE PTR [edi+28608]
	mov	BYTE PTR [edi+55511], al
; Line 440
	mov	edi, -19922704				; fed000f0H
	push	edi
	call	_Mmio32Read
; Line 441
	movzx	ax, BYTE PTR [ebx+10]
	push	DWORD PTR _Channel$[ebp]
	movzx	eax, ax
	push	eax
	movzx	eax, WORD PTR [ebx+8]
	push	eax
	push	esi
	call	DWORD PTR [ebx+4]
; Line 442
	push	edi
	mov	DWORD PTR _Status$[ebp], eax
	call	_Mmio32Read
; Line 449
	movzx	eax, BYTE PTR [ebx+10]
	push	20					; 00000014H
	push	OFFSET ??_C@_0BF@FECKJEFM@ReInitializeFunction?$AA@
	push	DWORD PTR _CapsuleStrings[eax*4]
	call	_MmrcStringCompare
	add	esp, 48					; 00000030H
	test	al, al
	je	SHORT $LN35@MmrcEntry
; Line 450
	mov	al, BYTE PTR _BackupMessage$[ebp]
	mov	BYTE PTR [esi+55506], al
$LN35@MmrcEntry:
; Line 452
	cmp	DWORD PTR _Status$[ebp], 0
	jne	SHORT $LN51@MmrcEntry
$LN46@MmrcEntry:
; Line 410
	inc	BYTE PTR _Channel$[ebp]
	cmp	BYTE PTR _Channel$[ebp], 2
	jb	$LL47@MmrcEntry
	jmp	SHORT $LN52@MmrcEntry
$LN152@MmrcEntry:
	mov	esi, DWORD PTR _MrcData$[ebp]
$LN52@MmrcEntry:
; Line 400
	add	ebx, 24					; 00000018H
	xor	edi, edi
	cmp	DWORD PTR [ebx+4], edi
	jne	$LL53@MmrcEntry
$LN51@MmrcEntry:
; Line 542
	mov	eax, DWORD PTR _Status$[ebp]
$LN155@MmrcEntry:
	pop	ebx
$LN59@MmrcEntry:
	pop	edi
	pop	esi
; Line 570
	leave
	ret	0
_MmrcEntry ENDP
_TEXT	ENDS
PUBLIC	_GetCacheIndexArray
; Function compile flags: /Ogspy
;	COMDAT _GetCacheIndexArray
_TEXT	SEGMENT
_MrcData$ = 8						; size = 4
_CacheIndex$ = 12					; size = 2
_GetCacheIndexArray PROC				; COMDAT
; Line 2781
	mov	eax, DWORD PTR _CacheIndex$[esp-4]
	push	ebx
	xor	bl, bl
	and	eax, 192				; 000000c0H
$LL5@GetCacheIn:
; Line 2782
	movzx	ecx, bl
	movzx	cx, BYTE PTR _CacheTypePrefix[ecx]
	cmp	ax, cx
	je	SHORT $LN9@GetCacheIn
	inc	bl
	cmp	bl, 4
	jb	SHORT $LL5@GetCacheIn
$LN9@GetCacheIn:
; Line 2787
	cmp	bl, 4
	jne	SHORT $LN1@GetCacheIn
; Line 2788
	mov	eax, DWORD PTR _MrcData$[esp]
	mov	DWORD PTR [eax+65333], 43		; 0000002bH
; Line 2789
	call	_MrcDeadLoop
$LN1@GetCacheIn:
; Line 2792
	mov	al, bl
	pop	ebx
; Line 2793
	ret	0
_GetCacheIndexArray ENDP
_TEXT	ENDS
PUBLIC	_GetSetCache
; Function compile flags: /Ogspy
;	COMDAT _GetSetCache
_TEXT	SEGMENT
_MrcData$ = 8						; size = 4
_Channel$ = 12						; size = 1
_Rank$ = 16						; size = 1
_Strobe$ = 20						; size = 1
_Bit$ = 24						; size = 1
_CacheIndex$ = 28					; size = 1
_Cmd$ = 32						; size = 1
_Value$ = 36						; size = 4
_GetSetCache PROC					; COMDAT
; Line 2821
	push	ebp
	mov	ebp, esp
	push	ebx
; Line 2824
	mov	bl, BYTE PTR _CacheIndex$[ebp]
	movzx	ax, bl
	movzx	eax, ax
	push	esi
	mov	esi, DWORD PTR _MrcData$[ebp]
	push	eax
	push	esi
	call	_GetCacheIndexArray
	pop	ecx
; Line 2828
	and	bl, 63					; 0000003fH
; Line 2830
	test	BYTE PTR _Cmd$[ebp], 2
	pop	ecx
	je	$LN18@GetSetCach
; Line 2831
	movzx	eax, al
	sub	eax, 0
	je	$LN15@GetSetCach
	dec	eax
	je	SHORT $LN14@GetSetCach
	dec	eax
	je	SHORT $LN13@GetSetCach
	dec	eax
	je	SHORT $LN12@GetSetCach
$LN22@GetSetCach:
; Line 2845
	mov	DWORD PTR [esi+65333], 43		; 0000002bH
; Line 2847
	jmp	$LN21@GetSetCach
$LN12@GetSetCach:
; Line 2842
	movzx	eax, BYTE PTR _Channel$[ebp]
	movzx	ecx, bl
	add	eax, ecx
	movzx	ecx, BYTE PTR _Rank$[ebp]
	lea	eax, DWORD PTR [ecx+eax*4]
	movzx	ecx, BYTE PTR _Strobe$[ebp]
	imul	eax, 18					; 00000012H
	add	eax, ecx
	movzx	ecx, BYTE PTR _Bit$[ebp]
	lea	eax, DWORD PTR [ecx+eax*8]
	mov	eax, DWORD PTR [esi+eax*4+50296]
; Line 2843
	jmp	SHORT $LN23@GetSetCach
$LN13@GetSetCach:
; Line 2839
	movzx	eax, BYTE PTR _Channel$[ebp]
	imul	eax, 33					; 00000021H
	movzx	ecx, bl
	add	eax, ecx
	movzx	ecx, BYTE PTR _Rank$[ebp]
	lea	eax, DWORD PTR [ecx+eax*4]
	movzx	ecx, BYTE PTR _Strobe$[ebp]
	imul	eax, 18					; 00000012H
	add	eax, ecx
	mov	eax, DWORD PTR [esi+eax*4+31288]
; Line 2840
	jmp	SHORT $LN23@GetSetCach
$LN14@GetSetCach:
; Line 2836
	movzx	eax, BYTE PTR _Channel$[ebp]
	movzx	ecx, bl
	lea	eax, DWORD PTR [ecx+eax*2]
	movzx	ecx, BYTE PTR _Rank$[ebp]
	lea	eax, DWORD PTR [ecx+eax*4]
	movzx	ecx, BYTE PTR _Strobe$[ebp]
	imul	eax, 18					; 00000012H
	add	eax, ecx
	movzx	ecx, BYTE PTR _Bit$[ebp]
	lea	eax, DWORD PTR [ecx+eax*8]
	mov	eax, DWORD PTR [esi+eax*4+16632]
; Line 2837
	jmp	SHORT $LN23@GetSetCach
$LN15@GetSetCach:
; Line 2833
	movzx	eax, BYTE PTR _Channel$[ebp]
	imul	eax, 17					; 00000011H
	movzx	ecx, bl
	add	eax, ecx
	movzx	ecx, BYTE PTR _Rank$[ebp]
	lea	eax, DWORD PTR [ecx+eax*4+95]
	movzx	ecx, BYTE PTR _Strobe$[ebp]
	imul	eax, 18					; 00000012H
	add	eax, ecx
	mov	eax, DWORD PTR [esi+eax*4]
$LN23@GetSetCach:
	mov	ecx, DWORD PTR _Value$[ebp]
	mov	DWORD PTR [ecx], eax
; Line 2849
	jmp	$LN1@GetSetCach
$LN18@GetSetCach:
	test	BYTE PTR _Cmd$[ebp], 16			; 00000010H
	je	$LN9@GetSetCach
; Line 2850
	movzx	eax, al
	sub	eax, 0
	je	$LN6@GetSetCach
	dec	eax
	je	SHORT $LN5@GetSetCach
	dec	eax
	je	SHORT $LN4@GetSetCach
	dec	eax
; Line 2866
	jne	$LN22@GetSetCach
	movzx	eax, BYTE PTR _Channel$[ebp]
	movzx	ecx, bl
	add	eax, ecx
	movzx	ecx, BYTE PTR _Rank$[ebp]
	lea	eax, DWORD PTR [ecx+eax*4]
	movzx	ecx, BYTE PTR _Strobe$[ebp]
	imul	eax, 18					; 00000012H
	add	eax, ecx
	movzx	ecx, BYTE PTR _Bit$[ebp]
	lea	eax, DWORD PTR [ecx+eax*8]
	mov	ecx, DWORD PTR _Value$[ebp]
	mov	ecx, DWORD PTR [ecx]
	mov	DWORD PTR [esi+eax*4+50296], ecx
	jmp	$LN1@GetSetCach
$LN4@GetSetCach:
; Line 2858
	movzx	eax, BYTE PTR _Channel$[ebp]
	imul	eax, 33					; 00000021H
	movzx	ecx, bl
	add	eax, ecx
	movzx	ecx, BYTE PTR _Rank$[ebp]
	lea	eax, DWORD PTR [ecx+eax*4]
	movzx	ecx, BYTE PTR _Strobe$[ebp]
	imul	eax, 18					; 00000012H
	add	eax, ecx
	mov	ecx, DWORD PTR _Value$[ebp]
	mov	ecx, DWORD PTR [ecx]
	mov	DWORD PTR [esi+eax*4+31288], ecx
; Line 2859
	jmp	SHORT $LN1@GetSetCach
$LN5@GetSetCach:
; Line 2855
	movzx	eax, BYTE PTR _Channel$[ebp]
	movzx	ecx, bl
	lea	eax, DWORD PTR [ecx+eax*2]
	movzx	ecx, BYTE PTR _Rank$[ebp]
	lea	eax, DWORD PTR [ecx+eax*4]
	movzx	ecx, BYTE PTR _Strobe$[ebp]
	imul	eax, 18					; 00000012H
	add	eax, ecx
	movzx	ecx, BYTE PTR _Bit$[ebp]
	lea	eax, DWORD PTR [ecx+eax*8]
	mov	ecx, DWORD PTR _Value$[ebp]
	mov	ecx, DWORD PTR [ecx]
	mov	DWORD PTR [esi+eax*4+16632], ecx
; Line 2856
	jmp	SHORT $LN1@GetSetCach
$LN6@GetSetCach:
; Line 2852
	movzx	eax, BYTE PTR _Channel$[ebp]
	imul	eax, 17					; 00000011H
	movzx	ecx, bl
	add	eax, ecx
	movzx	ecx, BYTE PTR _Rank$[ebp]
	lea	eax, DWORD PTR [ecx+eax*4+95]
	movzx	ecx, BYTE PTR _Strobe$[ebp]
	imul	eax, 18					; 00000012H
	add	eax, ecx
	mov	ecx, DWORD PTR _Value$[ebp]
	mov	ecx, DWORD PTR [ecx]
	mov	DWORD PTR [esi+eax*4], ecx
; Line 2868
	jmp	SHORT $LN1@GetSetCach
$LN9@GetSetCach:
; Line 2869
	mov	DWORD PTR [esi+65333], 42		; 0000002aH
$LN21@GetSetCach:
; Line 2870
	call	_MrcDeadLoop
$LN1@GetSetCach:
	pop	esi
; Line 2873
	xor	eax, eax
	pop	ebx
; Line 2874
	pop	ebp
	ret	0
_GetSetCache ENDP
_TEXT	ENDS
EXTRN	_MspDelay:PROC
EXTRN	_ConvertLinearToPhysicalValue:PROC
EXTRN	_MemFieldRead:PROC
EXTRN	_ConvertPhysicalToLinearValue:PROC
EXTRN	_ExternalFunctions:BYTE
EXTRN	_SignalInfoGenerated:BYTE
EXTRN	_FloorPlanGenerated:BYTE
EXTRN	__allshl:PROC
; Function compile flags: /Ogspy
;	COMDAT _GetSetDdrioGroup
_TEXT	SEGMENT
_Register$ = -68					; size = 24
_CurrentValue$ = -44					; size = 4
_WaitTime$ = -40					; size = 4
_PhysicalChannel$ = -36					; size = 1
tv903 = -32						; size = 4
_Instance$ = -32					; size = 1
_CacheValue$ = -28					; size = 4
tv934 = -24						; size = 4
tv905 = -24						; size = 4
tv896 = -20						; size = 4
tv939 = -16						; size = 4
_Type$ = -12						; size = 2
_MaxLimit$ = -12					; size = 4
_NewValue$ = -8						; size = 4
_EndingBit$ = -3					; size = 1
_TempBlueprint$ = -2					; size = 1
tv956 = -1						; size = 1
_i$ = -1						; size = 1
tv851 = 8						; size = 4
_PhysicalStrobe$ = 8					; size = 1
_MrcData$ = 8						; size = 4
_ThisGroup$ = 11					; size = 1
_StartingBit$ = 11					; size = 1
_Socket$ = 12						; size = 1
_Channel$ = 16						; size = 1
_Dimm$ = 20						; size = 1
_Rank$ = 24						; size = 1
_Strobe$ = 28						; size = 1
_Bit$ = 32						; size = 1
_FrequencyIndex$ = 36					; size = 1
_IoLevel$ = 40						; size = 1
_Element$ = 44						; size = 2
_Cmd$ = 48						; size = 1
_Value$ = 52						; size = 4
_GetSetDdrioGroup PROC					; COMDAT
; Line 2963
	push	ebp
	mov	ebp, esp
	sub	esp, 68					; 00000044H
; Line 2985
	and	DWORD PTR _WaitTime$[ebp], 0
; Line 2986
	and	DWORD PTR _CacheValue$[ebp], 0
	push	ebx
; Line 2987
	mov	ebx, DWORD PTR _MrcData$[ebp]
	push	esi
	lea	esi, DWORD PTR [ebx+55513]
	mov	al, BYTE PTR [esi]
	push	edi
	mov	DWORD PTR tv896[ebp], esi
	mov	BYTE PTR _TempBlueprint$[ebp], al
; Line 2989
	call	_GetMspHostStructureAddress
; Line 2997
	push	esi
	push	DWORD PTR _IoLevel$[ebp]
	push	DWORD PTR _Channel$[ebp]
	push	ebx
	call	_ConvertPfctAndIoLevelToBlueprint
; Line 2999
	push	DWORD PTR _Element$[ebp]
	mov	edx, eax
	push	ebx
	call	_GetOffsetIndex
	movzx	edi, ax
	add	esp, 24					; 00000018H
	mov	DWORD PTR _Type$[ebp], edi
; Line 3001
	test	edx, edx
	je	SHORT $LN42@GetSetDdri
	push	31					; 0000001fH
$LN60@GetSetDdri:
	pop	eax
$LN47@GetSetDdri:
; Line 3002
	mov	cl, BYTE PTR _TempBlueprint$[ebp]
	mov	BYTE PTR [esi], cl
; Line 3006
	jmp	$LN43@GetSetDdri
$LN42@GetSetDdri:
; Line 3009
	mov	dx, WORD PTR _Type$[ebp]
	mov	eax, 255				; 000000ffH
	cmp	dx, ax
	jne	SHORT $LN41@GetSetDdri
$LN61@GetSetDdri:
	push	2
	jmp	SHORT $LN60@GetSetDdri
$LN41@GetSetDdri:
; Line 3012
	mov	eax, 65535				; 0000ffffH
	cmp	dx, ax
	jne	SHORT $LN39@GetSetDdri
; Line 3013
	push	2
	jmp	$LN63@GetSetDdri
$LN39@GetSetDdri:
; Line 3018
	movzx	eax, BYTE PTR _Channel$[ebp]
	movzx	ecx, BYTE PTR _Strobe$[ebp]
	mov	DWORD PTR tv903[ebp], eax
	imul	eax, 18					; 00000012H
	add	eax, ecx
	add	eax, eax
	mov	DWORD PTR tv905[ebp], ecx
	mov	cl, BYTE PTR _FloorPlanGenerated[eax]
; Line 3019
	mov	al, BYTE PTR _FloorPlanGenerated[eax+1]
	mov	BYTE PTR _PhysicalStrobe$[ebp], al
; Line 3026
	mov	eax, 4096				; 00001000H
	mov	BYTE PTR _PhysicalChannel$[ebp], cl
	cmp	dx, ax
	jae	$LN38@GetSetDdri
; Line 3033
	push	edi
	call	_GetSignalInfoIndex
	movzx	eax, ax
	imul	eax, 12					; 0000000cH
	pop	ecx
	mov	cl, BYTE PTR _FrequencyIndex$[ebp]
	cmp	cl, BYTE PTR _SignalInfoGenerated[eax+1]
	jae	$LN37@GetSetDdri
; Line 3034
	mov	al, BYTE PTR _NumberOfElementsPerAlgoGenerated
	movzx	edx, BYTE PTR _NumberAlgosGenerated
	movzx	edi, al
	imul	edx, edi
	movzx	edi, WORD PTR _Type$[ebp]
	cmp	edi, edx
	jge	SHORT $LN36@GetSetDdri
; Line 3035
	movzx	ax, al
	movzx	cx, cl
	imul	ax, cx
; Line 3036
	jmp	SHORT $LN64@GetSetDdri
$LN36@GetSetDdri:
; Line 3037
	movzx	ax, cl
$LN64@GetSetDdri:
	add	WORD PTR _Type$[ebp], ax
; Line 3054
	movzx	edi, WORD PTR _Type$[ebp]
	mov	ecx, DWORD PTR _Rank$[ebp]
	mov	eax, edi
	imul	eax, 11					; 0000000bH
	movzx	edx, cl
	add	eax, edx
	shl	eax, 2
	mov	DWORD PTR tv934[ebp], eax
	movzx	eax, WORD PTR _ElementsGenerated[eax+2]
	mov	edx, 255				; 000000ffH
	cmp	ax, dx
	je	$LN61@GetSetDdri
; Line 3058
	imul	edi, 44					; 0000002cH
	test	BYTE PTR _ElementsGenerated[edi+20], 1
	mov	DWORD PTR tv939[ebp], edi
	je	SHORT $LN32@GetSetDdri
	cmp	BYTE PTR _ElementsGenerated[edi], 254	; 000000feH
	jne	SHORT $LN32@GetSetDdri
; Line 3060
	push	DWORD PTR _Value$[ebp]
	movzx	eax, ax
	push	DWORD PTR _Cmd$[ebp]
	push	DWORD PTR _IoLevel$[ebp]
	push	DWORD PTR _FrequencyIndex$[ebp]
	push	DWORD PTR _Bit$[ebp]
	push	DWORD PTR _Strobe$[ebp]
	push	ecx
	push	DWORD PTR _Dimm$[ebp]
	push	DWORD PTR _Channel$[ebp]
	push	DWORD PTR _Socket$[ebp]
	push	ebx
	call	DWORD PTR _ExternalFunctions[eax*4]
	add	esp, 44					; 0000002cH
$LN66@GetSetDdri:
; Line 3061
	xor	eax, eax
	jmp	$LN43@GetSetDdri
$LN32@GetSetDdri:
; Line 3066
	test	BYTE PTR _Cmd$[ebp], 2
	je	$LN31@GetSetDdri
	test	BYTE PTR _Cmd$[ebp], 1
	jne	$LN31@GetSetDdri
; Line 3067
	mov	esi, DWORD PTR _Value$[ebp]
	movzx	eax, BYTE PTR _ElementsGenerated[edi+18]
	push	esi
	push	2
	push	eax
	push	DWORD PTR _Bit$[ebp]
	push	DWORD PTR _Strobe$[ebp]
	push	ecx
	push	DWORD PTR _Channel$[ebp]
	push	ebx
	call	_GetSetCache
	add	esp, 32					; 00000020H
; Line 3068
	cmp	BYTE PTR _ElementsGenerated[edi], 254	; 000000feH
	je	SHORT $LN30@GetSetDdri
; Line 3070
	mov	edi, DWORD PTR tv934[ebp]
	movzx	ecx, BYTE PTR _ElementsGenerated[edi+5]
	xor	eax, eax
	inc	ecx
	inc	eax
	xor	edx, edx
	call	__allshl
	movzx	ecx, BYTE PTR _ElementsGenerated[edi+4]
	mov	DWORD PTR tv851[ebp], eax
	xor	eax, eax
	inc	eax
	xor	edx, edx
	call	__allshl
	mov	ecx, DWORD PTR tv851[ebp]
	sub	ecx, eax
	and	DWORD PTR [esi], ecx
	mov	eax, DWORD PTR [esi]
; Line 3071
	mov	ecx, edi
	mov	cl, BYTE PTR _ElementsGenerated[ecx+4]
	shr	eax, cl
	mov	DWORD PTR [esi], eax
$LN30@GetSetDdri:
; Line 3073
	push	DWORD PTR [esi]
	push	DWORD PTR _Element$[ebp]
	push	DWORD PTR _Channel$[ebp]
	push	ebx
	call	_ConvertPhysicalToLinearValue
	add	esp, 16					; 00000010H
	mov	DWORD PTR [esi], eax
	xor	eax, eax
$LN62@GetSetDdri:
	mov	esi, DWORD PTR tv896[ebp]
	jmp	$LN47@GetSetDdri
$LN31@GetSetDdri:
; Line 3080
	lea	edi, DWORD PTR _ElementsGenerated[edi]
	movzx	eax, BYTE PTR [edi]
	shl	eax, 4
	mov	dl, 1
	cmp	dl, BYTE PTR _InstancePortMapGenerated[eax+1]
; Line 3089
	mov	esi, edi
	sbb	al, al
	and	al, BYTE PTR _PhysicalStrobe$[ebp]
	and	DWORD PTR _Register$[ebp], 0
	mov	BYTE PTR _Instance$[ebp], al
	lea	eax, DWORD PTR _EndingBit$[ebp]
	push	eax
	lea	eax, DWORD PTR _StartingBit$[ebp]
	push	eax
	lea	eax, DWORD PTR _Register$[ebp]
	push	eax
	lea	eax, DWORD PTR _Instance$[ebp]
	push	eax
	push	DWORD PTR _Bit$[ebp]
	push	DWORD PTR _PhysicalStrobe$[ebp]
	push	ecx
	push	DWORD PTR _PhysicalChannel$[ebp]
	sub	esp, 44					; 0000002cH
	push	11					; 0000000bH
	pop	ecx
	mov	edi, esp
	push	ebx
	rep movsd
	call	_GetLocation
; Line 3090
	mov	edi, DWORD PTR _Value$[ebp]
; Line 3095
	mov	al, BYTE PTR _Cmd$[ebp]
	mov	esi, DWORD PTR [edi]
	add	esp, 80					; 00000050H
	and	al, 1
	mov	DWORD PTR _NewValue$[ebp], esi
	mov	BYTE PTR tv956[ebp], al
	je	$LN52@GetSetDdri
; Line 3096
	mov	eax, DWORD PTR tv939[ebp]
	lea	eax, DWORD PTR _ElementsGenerated[eax]
	cmp	BYTE PTR [eax], 254			; 000000feH
	jne	SHORT $LN26@GetSetDdri
; Line 3098
	push	edi
	mov	eax, DWORD PTR tv934[ebp]
	movzx	eax, WORD PTR _ElementsGenerated[eax+2]
	push	1
	push	DWORD PTR _IoLevel$[ebp]
	push	DWORD PTR _FrequencyIndex$[ebp]
	push	DWORD PTR _Bit$[ebp]
	push	DWORD PTR _Strobe$[ebp]
	push	DWORD PTR _Rank$[ebp]
	push	DWORD PTR _Dimm$[ebp]
	push	DWORD PTR _Channel$[ebp]
	push	DWORD PTR _Socket$[ebp]
	push	ebx
	call	DWORD PTR _ExternalFunctions[eax*4]
	add	esp, 44					; 0000002cH
; Line 3100
	jmp	SHORT $LN25@GetSetDdri
$LN26@GetSetDdri:
; Line 3101
	movzx	ecx, BYTE PTR _EndingBit$[ebp]
	xor	eax, eax
	inc	ecx
	inc	eax
	xor	edx, edx
	call	__allshl
	movzx	ecx, BYTE PTR _StartingBit$[ebp]
	mov	esi, eax
	xor	eax, eax
	mov	edi, edx
	inc	eax
	xor	edx, edx
	call	__allshl
	sub	esi, eax
; Line 3102
	mov	al, BYTE PTR _StartingBit$[ebp]
	sbb	edi, edx
; Line 3103
	sub	esp, 24					; 00000018H
	push	6
	mov	BYTE PTR _Register$[ebp+16], al
	mov	eax, DWORD PTR tv939[ebp]
	pop	ecx
	mov	DWORD PTR _Register$[ebp+12], edi
	mov	edi, esp
	push	DWORD PTR _Instance$[ebp]
	lea	eax, DWORD PTR _ElementsGenerated[eax]
	movzx	eax, BYTE PTR [eax]
	push	DWORD PTR _PhysicalChannel$[ebp]
	mov	DWORD PTR _Register$[ebp+8], esi
	lea	esi, DWORD PTR _Register$[ebp]
	push	eax
	rep movsd
	call	_MemFieldRead
	mov	ecx, DWORD PTR _Value$[ebp]
	add	esp, 36					; 00000024H
	mov	DWORD PTR [ecx], eax
	mov	edi, ecx
$LN25@GetSetDdri:
; Line 3108
	push	DWORD PTR [edi]
	push	DWORD PTR _Element$[ebp]
	push	DWORD PTR _Channel$[ebp]
	push	ebx
	call	_ConvertPhysicalToLinearValue
; Line 3109
	mov	esi, eax
	add	esp, 16					; 00000010H
	mov	DWORD PTR [edi], eax
	mov	DWORD PTR _NewValue$[ebp], esi
$LN52@GetSetDdri:
; Line 3114
	test	BYTE PTR _Cmd$[ebp], 8
	je	$LN54@GetSetDdri
; Line 3119
	test	BYTE PTR _Cmd$[ebp], 4
	je	SHORT $LN53@GetSetDdri
; Line 3123
	lea	eax, DWORD PTR _CurrentValue$[ebp]
	push	eax
	push	2
	push	DWORD PTR _Element$[ebp]
	push	DWORD PTR _IoLevel$[ebp]
	push	DWORD PTR _FrequencyIndex$[ebp]
	push	DWORD PTR _Bit$[ebp]
	push	DWORD PTR _Strobe$[ebp]
	push	DWORD PTR _Rank$[ebp]
	push	DWORD PTR _Dimm$[ebp]
	push	DWORD PTR _Channel$[ebp]
	push	DWORD PTR _Socket$[ebp]
	push	ebx
	call	_GetSetDdrioGroup
; Line 3124
	mov	esi, DWORD PTR [edi]
	add	esp, 48					; 00000030H
	add	esi, DWORD PTR _CurrentValue$[ebp]
	mov	DWORD PTR _NewValue$[ebp], esi
$LN53@GetSetDdri:
; Line 3129
	lea	eax, DWORD PTR _WaitTime$[ebp]
	push	eax
	lea	eax, DWORD PTR _MaxLimit$[ebp]
	push	eax
	push	DWORD PTR _Type$[ebp]
	push	DWORD PTR _IoLevel$[ebp]
	push	DWORD PTR _Dimm$[ebp]
	push	DWORD PTR _Channel$[ebp]
	push	DWORD PTR _Socket$[ebp]
	push	ebx
	call	_GetDdrioGroupLimits
	add	esp, 32					; 00000020H
; Line 3130
	test	eax, eax
	jne	$LN21@GetSetDdri
	cmp	esi, DWORD PTR _MaxLimit$[ebp]
	ja	$LN21@GetSetDdri
; Line 3148
	push	esi
	push	DWORD PTR _Element$[ebp]
	push	DWORD PTR _Channel$[ebp]
	push	ebx
	call	_ConvertLinearToPhysicalValue
	mov	DWORD PTR _NewValue$[ebp], eax
; Line 3150
	mov	eax, DWORD PTR tv939[ebp]
	lea	eax, DWORD PTR _ElementsGenerated[eax]
	add	esp, 16					; 00000010H
	cmp	BYTE PTR [eax], 254			; 000000feH
	jne	SHORT $LN20@GetSetDdri
; Line 3152
	mov	eax, DWORD PTR tv934[ebp]
	movzx	eax, WORD PTR _ElementsGenerated[eax+2]
	lea	ecx, DWORD PTR _NewValue$[ebp]
	push	ecx
	push	8
	push	DWORD PTR _IoLevel$[ebp]
	push	DWORD PTR _FrequencyIndex$[ebp]
	push	DWORD PTR _Bit$[ebp]
	push	DWORD PTR _Strobe$[ebp]
	push	DWORD PTR _Rank$[ebp]
	push	DWORD PTR _Dimm$[ebp]
	push	DWORD PTR _Channel$[ebp]
	push	DWORD PTR _Socket$[ebp]
	push	ebx
	call	DWORD PTR _ExternalFunctions[eax*4]
	add	esp, 44					; 0000002cH
; Line 3153
	jmp	SHORT $LN19@GetSetDdri
$LN20@GetSetDdri:
; Line 3154
	movzx	ecx, BYTE PTR _EndingBit$[ebp]
	xor	eax, eax
	inc	ecx
	inc	eax
	xor	edx, edx
	call	__allshl
	movzx	ecx, BYTE PTR _StartingBit$[ebp]
	mov	esi, eax
	xor	eax, eax
	mov	edi, edx
	inc	eax
	xor	edx, edx
	call	__allshl
; Line 3156
	push	15					; 0000000fH
	sub	esi, eax
	mov	al, BYTE PTR _StartingBit$[ebp]
	push	0
	push	DWORD PTR _NewValue$[ebp]
	sbb	edi, edx
	sub	esp, 24					; 00000018H
	push	6
	mov	BYTE PTR _Register$[ebp+16], al
	mov	eax, DWORD PTR tv939[ebp]
	pop	ecx
	mov	DWORD PTR _Register$[ebp+12], edi
	mov	edi, esp
	push	DWORD PTR _Instance$[ebp]
	lea	eax, DWORD PTR _ElementsGenerated[eax]
	movzx	eax, BYTE PTR [eax]
	push	DWORD PTR _PhysicalChannel$[ebp]
	mov	DWORD PTR _Register$[ebp+8], esi
	lea	esi, DWORD PTR _Register$[ebp]
	push	eax
	rep movsd
	call	_MemRegWrite
	add	esp, 48					; 00000030H
$LN19@GetSetDdri:
; Line 3161
	cmp	DWORD PTR _WaitTime$[ebp], 0
	je	SHORT $LN51@GetSetDdri
; Line 3165
	push	DWORD PTR _WaitTime$[ebp]
	push	2
	call	_MspDelay
	pop	ecx
	pop	ecx
$LN51@GetSetDdri:
; Line 3073
	mov	esi, DWORD PTR _NewValue$[ebp]
$LN54@GetSetDdri:
; Line 3173
	test	BYTE PTR _Cmd$[ebp], 16			; 00000010H
	je	$LN57@GetSetDdri
; Line 3174
	cmp	BYTE PTR tv956[ebp], 0
	je	SHORT $LN16@GetSetDdri
; Line 3179
	push	esi
	push	DWORD PTR _Element$[ebp]
	push	DWORD PTR _Channel$[ebp]
	push	ebx
	call	_ConvertLinearToPhysicalValue
	add	esp, 16					; 00000010H
	mov	DWORD PTR _NewValue$[ebp], eax
$LN16@GetSetDdri:
; Line 3184
	mov	eax, DWORD PTR tv939[ebp]
	lea	eax, DWORD PTR _ElementsGenerated[eax]
	cmp	BYTE PTR [eax], 254			; 000000feH
	je	$LN15@GetSetDdri
; Line 3185
	lea	eax, DWORD PTR _CacheValue$[ebp]
	push	eax
	mov	eax, DWORD PTR tv939[ebp]
	movzx	eax, BYTE PTR _ElementsGenerated[eax+18]
	push	2
	push	eax
	push	DWORD PTR _Bit$[ebp]
	push	DWORD PTR _Strobe$[ebp]
	push	DWORD PTR _Rank$[ebp]
	push	DWORD PTR _Channel$[ebp]
	push	ebx
	call	_GetSetCache
; Line 3189
	mov	eax, DWORD PTR tv934[ebp]
; Line 3190
	movzx	ecx, BYTE PTR _ElementsGenerated[eax+5]
	movzx	esi, BYTE PTR _ElementsGenerated[eax+4]
	xor	eax, eax
	add	esp, 32					; 00000020H
	inc	ecx
	inc	eax
	xor	edx, edx
	call	__allshl
	mov	edi, eax
	xor	eax, eax
	inc	eax
	xor	edx, edx
	mov	ecx, esi
	call	__allshl
	sub	edi, eax
	mov	eax, DWORD PTR _NewValue$[ebp]
	mov	ecx, esi
	not	edi
	and	edi, DWORD PTR _CacheValue$[ebp]
	shl	eax, cl
	or	edi, eax
	mov	DWORD PTR _CacheValue$[ebp], edi
; Line 3191
	lea	eax, DWORD PTR _CacheValue$[ebp]
$LN65@GetSetDdri:
	push	eax
	mov	eax, DWORD PTR tv939[ebp]
	movzx	eax, BYTE PTR _ElementsGenerated[eax+18]
	push	16					; 00000010H
	push	eax
	push	DWORD PTR _Bit$[ebp]
	push	DWORD PTR _Strobe$[ebp]
	push	DWORD PTR _Rank$[ebp]
	push	DWORD PTR _Channel$[ebp]
	push	ebx
	call	_GetSetCache
	add	esp, 32					; 00000020H
; Line 3192
	jmp	$LN57@GetSetDdri
$LN21@GetSetDdri:
; Line 3073
	push	16					; 00000010H
	pop	eax
	jmp	$LN62@GetSetDdri
$LN15@GetSetDdri:
; Line 3193
	lea	eax, DWORD PTR _NewValue$[ebp]
; Line 3195
	jmp	SHORT $LN65@GetSetDdri
$LN37@GetSetDdri:
	push	34					; 00000022H
	jmp	$LN60@GetSetDdri
$LN38@GetSetDdri:
; Line 3196
	mov	eax, 8192				; 00002000H
	cmp	dx, ax
	jb	SHORT $LN12@GetSetDdri
; Line 3200
	add	edi, -8192				; ffffe000H
	movzx	eax, di
; Line 3202
	movzx	esi, ax
	imul	esi, 12					; 0000000cH
	cmp	BYTE PTR _SignalInfoGenerated[esi], 0
	mov	BYTE PTR _ThisGroup$[ebp], 0
	mov	BYTE PTR _i$[ebp], 0
	jbe	$LN57@GetSetDdri
$LL55@GetSetDdri:
; Line 3206
	push	DWORD PTR _Value$[ebp]
	movzx	ax, BYTE PTR _ThisGroup$[ebp]
	push	DWORD PTR _Cmd$[ebp]
	add	ax, WORD PTR _Type$[ebp]
	mov	ecx, 4096				; 00001000H
	sub	ax, cx
	movzx	eax, ax
	push	eax
	push	DWORD PTR _IoLevel$[ebp]
	push	DWORD PTR _FrequencyIndex$[ebp]
	push	DWORD PTR _Bit$[ebp]
	push	DWORD PTR _Strobe$[ebp]
	push	DWORD PTR _Rank$[ebp]
	push	DWORD PTR _Dimm$[ebp]
	push	DWORD PTR _Channel$[ebp]
	push	DWORD PTR _Socket$[ebp]
	push	ebx
	call	_GetSetDdrioGroup
; Line 3207
	mov	al, BYTE PTR _SignalInfoGenerated[esi+1]
	add	BYTE PTR _ThisGroup$[ebp], al
	add	esp, 48					; 00000030H
	inc	BYTE PTR _i$[ebp]
	mov	al, BYTE PTR _i$[ebp]
	cmp	al, BYTE PTR _SignalInfoGenerated[esi]
	jb	SHORT $LL55@GetSetDdri
; Line 3209
	jmp	$LN57@GetSetDdri
$LN12@GetSetDdri:
; Line 3215
	test	BYTE PTR _Cmd$[ebp], 8
	mov	esi, DWORD PTR _Value$[ebp]
	mov	eax, DWORD PTR [esi]
	mov	DWORD PTR _NewValue$[ebp], eax
	je	SHORT $LN7@GetSetDdri
; Line 3220
	test	BYTE PTR _Cmd$[ebp], 4
	je	SHORT $LN6@GetSetDdri
; Line 3221
	lea	eax, DWORD PTR _CurrentValue$[ebp]
	push	eax
	push	2
	push	edi
	push	DWORD PTR _IoLevel$[ebp]
	push	DWORD PTR _FrequencyIndex$[ebp]
	push	DWORD PTR _Bit$[ebp]
	push	DWORD PTR _Strobe$[ebp]
	push	DWORD PTR _Rank$[ebp]
	push	DWORD PTR _Dimm$[ebp]
	push	DWORD PTR _Channel$[ebp]
	push	DWORD PTR _Socket$[ebp]
	push	ebx
	call	_GetLinearFromRegs
; Line 3222
	mov	eax, DWORD PTR _CurrentValue$[ebp]
	add	esp, 48					; 00000030H
	add	DWORD PTR _NewValue$[ebp], eax
$LN6@GetSetDdri:
; Line 3228
	lea	eax, DWORD PTR _NewValue$[ebp]
	push	eax
	mov	al, BYTE PTR _Cmd$[ebp]
	and	al, 251					; 000000fbH
	movzx	eax, al
	push	eax
	push	edi
	push	DWORD PTR _IoLevel$[ebp]
	push	DWORD PTR _FrequencyIndex$[ebp]
	push	DWORD PTR _Bit$[ebp]
	push	DWORD PTR _Strobe$[ebp]
	push	DWORD PTR _Rank$[ebp]
	push	DWORD PTR _Dimm$[ebp]
	push	DWORD PTR _Channel$[ebp]
	push	DWORD PTR _Socket$[ebp]
	push	ebx
	call	_SetRegsToLinear
	add	esp, 48					; 00000030H
$LN7@GetSetDdri:
; Line 3233
	mov	al, BYTE PTR _Cmd$[ebp]
	and	al, 1
	mov	BYTE PTR tv956[ebp], al
	je	SHORT $LN5@GetSetDdri
; Line 3234
	push	esi
	push	DWORD PTR _Cmd$[ebp]
	push	edi
	push	DWORD PTR _IoLevel$[ebp]
	push	DWORD PTR _FrequencyIndex$[ebp]
	push	DWORD PTR _Bit$[ebp]
	push	DWORD PTR _Strobe$[ebp]
	push	DWORD PTR _Rank$[ebp]
	push	DWORD PTR _Dimm$[ebp]
	push	DWORD PTR _Channel$[ebp]
	push	DWORD PTR _Socket$[ebp]
	push	ebx
	call	_GetLinearFromRegs
; Line 3235
	mov	eax, DWORD PTR [esi]
	add	esp, 48					; 00000030H
	mov	DWORD PTR _NewValue$[ebp], eax
$LN5@GetSetDdri:
; Line 3240
	movzx	eax, WORD PTR _Type$[ebp]
	mov	cl, BYTE PTR _FrequencyIndex$[ebp]
	lea	edx, DWORD PTR [eax-4096]
	imul	edx, 12					; 0000000cH
	cmp	cl, BYTE PTR _SignalInfoGenerated[edx+1]
	jae	SHORT $LN4@GetSetDdri
; Line 3244
	test	BYTE PTR _Cmd$[ebp], 2
	je	SHORT $LN59@GetSetDdri
	cmp	BYTE PTR tv956[ebp], 0
	jne	SHORT $LN59@GetSetDdri
; Line 3245
	mov	edx, DWORD PTR tv896[ebp]
	movzx	edx, BYTE PTR [edx]
	add	edx, DWORD PTR tv903[ebp]
	movzx	edi, cl
	imul	edx, 22					; 00000016H
	add	edx, eax
	add	edi, edx
	movzx	edx, BYTE PTR _Rank$[ebp]
	lea	edx, DWORD PTR [edx+edi*4]
	imul	edx, 18					; 00000012H
	add	edx, DWORD PTR tv905[ebp]
	movzx	edx, WORD PTR [ebx+edx*2-589344]
	mov	DWORD PTR [esi], edx
$LN59@GetSetDdri:
; Line 3250
	test	BYTE PTR _Cmd$[ebp], 16			; 00000010H
	je	SHORT $LN57@GetSetDdri
; Line 3251
	mov	edx, DWORD PTR tv896[ebp]
	movzx	edx, BYTE PTR [edx]
	add	edx, DWORD PTR tv903[ebp]
	movzx	ecx, cl
	imul	edx, 22					; 00000016H
	add	edx, eax
	movzx	eax, BYTE PTR _Rank$[ebp]
	add	ecx, edx
	lea	eax, DWORD PTR [eax+ecx*4]
	mov	cx, WORD PTR _NewValue$[ebp]
	imul	eax, 18					; 00000012H
	add	eax, DWORD PTR tv905[ebp]
	mov	WORD PTR [ebx+eax*2-589344], cx
$LN57@GetSetDdri:
; Line 3259
	mov	al, BYTE PTR _TempBlueprint$[ebp]
	mov	ecx, DWORD PTR tv896[ebp]
	mov	BYTE PTR [ecx], al
; Line 3260
	jmp	$LN66@GetSetDdri
$LN4@GetSetDdri:
; Line 3254
	mov	al, BYTE PTR _TempBlueprint$[ebp]
	mov	ecx, DWORD PTR tv896[ebp]
	mov	BYTE PTR [ecx], al
; Line 3255
	push	34					; 00000022H
$LN63@GetSetDdri:
	pop	eax
$LN43@GetSetDdri:
; Line 3261
	pop	edi
	pop	esi
	pop	ebx
	leave
	ret	0
_GetSetDdrioGroup ENDP
_TEXT	ENDS
PUBLIC	_WriteLevelingMode
; Function compile flags: /Ogspy
;	COMDAT _WriteLevelingMode
_TEXT	SEGMENT
_MrcData$ = 8						; size = 4
_Channel$ = 12						; size = 1
_WriteLevelMode$ = 16					; size = 1
_WriteLevelingMode PROC					; COMDAT
; Line 4002
	push	ebp
	mov	ebp, esp
; Line 4010
	cmp	BYTE PTR _WriteLevelMode$[ebp], 0
	push	ebx
	push	esi
	mov	esi, DWORD PTR _MrcData$[ebp]
	mov	bl, BYTE PTR [esi+55508]
	mov	BYTE PTR [esi+55508], 0
	je	SHORT $LN1@WriteLevel
	cmp	BYTE PTR _WriteLevelMode$[ebp], 1
	je	SHORT $LN1@WriteLevel
; Line 4011
	or	eax, -1
	jmp	SHORT $LN2@WriteLevel
$LN1@WriteLevel:
; Line 4013
	movzx	ecx, BYTE PTR _Channel$[ebp]
; Line 4014
	push	DWORD PTR _Channel$[ebp]
	imul	ecx, 4336				; 000010f0H
	movzx	eax, BYTE PTR _WriteLevelMode$[ebp]
	push	65535					; 0000ffffH
	cdq
	push	14420					; 00003854H
	push	esi
	mov	DWORD PTR [ecx+esi+58534], eax
	mov	DWORD PTR [ecx+esi+58538], edx
	call	_MmrcExecuteTask
	add	esp, 16					; 00000010H
; Line 4016
	mov	BYTE PTR [esi+55508], bl
; Line 4018
	xor	eax, eax
$LN2@WriteLevel:
	pop	esi
	pop	ebx
; Line 4019
	pop	ebp
	ret	0
_WriteLevelingMode ENDP
_TEXT	ENDS
PUBLIC	_MprWrite
EXTRN	_ToggleMprMode:PROC
EXTRN	_HandleAddressMirroring:PROC
EXTRN	_ToggleMprModeSide:PROC
; Function compile flags: /Ogspy
;	COMDAT _MprWrite
_TEXT	SEGMENT
tv259 = -8						; size = 4
_DramCmdDdr4$ = -4					; size = 4
_MrcData$ = 8						; size = 4
_Channel$ = 12						; size = 1
_Rank$ = 16						; size = 1
_MprWrite PROC						; COMDAT
; Line 4417
	push	ebp
	mov	ebp, esp
	push	ecx
	push	ecx
; Line 4422
	cmp	BYTE PTR _Rank$[ebp], 4
	jb	SHORT $LN3@MprWrite
; Line 4423
	mov	eax, DWORD PTR _MrcData$[ebp]
	mov	DWORD PTR [eax+65333], 44		; 0000002cH
; Line 4424
	call	_MrcDeadLoop
; Line 4472
	leave
	ret	0
$LN3@MprWrite:
; Line 4429
	movzx	eax, BYTE PTR _Channel$[ebp]
	push	ebx
	push	esi
	mov	esi, DWORD PTR _MrcData$[ebp]
	xor	ebx, ebx
	inc	ebx
	cmp	BYTE PTR [eax+esi+31272], 7
	push	edi
	mov	DWORD PTR tv259[ebp], eax
	jne	$LN2@MprWrite
	imul	eax, 4336				; 000010f0H
	lea	edi, DWORD PTR [eax+esi]
	cmp	DWORD PTR [edi+55966], ebx
	jne	$LN2@MprWrite
	xor	eax, eax
	cmp	DWORD PTR [edi+55970], eax
	jne	$LN2@MprWrite
; Line 4441
	push	eax
	push	eax
	push	DWORD PTR _Rank$[ebp]
	push	DWORD PTR _Channel$[ebp]
	push	esi
	call	_ToggleMprModeSide
; Line 4443
	push	ebx
	push	ebx
	push	DWORD PTR _Rank$[ebp]
	push	DWORD PTR _Channel$[ebp]
	push	esi
	call	_ToggleMprModeSide
	movzx	eax, BYTE PTR _Rank$[ebp]
; Line 4458
	mov	ecx, eax
	and	ecx, 3
	shl	ecx, 26					; 0000001aH
	or	ecx, 21820				; 0000553cH
; Line 4461
	shr	eax, 1
	mov	DWORD PTR _DramCmdDdr4$[ebp], ecx
	mov	ecx, DWORD PTR tv259[ebp]
	lea	eax, DWORD PTR [eax+ecx*2]
	imul	eax, 514				; 00000202H
; Line 4462
	push	ebx
	add	eax, esi
	movzx	ecx, BYTE PTR [eax+28643]
	movzx	eax, BYTE PTR [eax+28762]
	push	ebx
	push	7
	push	ecx
	push	eax
	lea	eax, DWORD PTR _DramCmdDdr4$[ebp]
	push	eax
	call	_HandleAddressMirroring
; Line 4463
	mov	eax, DWORD PTR _DramCmdDdr4$[ebp]
	and	DWORD PTR [edi+58490], 0
	add	esp, 64					; 00000040H
; Line 4464
	push	DWORD PTR _Channel$[ebp]
	mov	DWORD PTR [edi+58486], eax
	push	65535					; 0000ffffH
	push	14185					; 00003769H
	push	esi
	call	_MmrcExecuteTask
; Line 4465
	push	ebx
	push	0
	push	DWORD PTR _Rank$[ebp]
	push	DWORD PTR _Channel$[ebp]
	push	esi
	call	_ToggleMprModeSide
; Line 4467
	push	0
	push	ebx
	push	DWORD PTR _Rank$[ebp]
	push	DWORD PTR _Channel$[ebp]
	push	esi
	call	_ToggleMprModeSide
; Line 4468
	push	ebx
	push	ebx
	push	DWORD PTR _Rank$[ebp]
	push	DWORD PTR _Channel$[ebp]
	push	esi
	call	_ToggleMprModeSide
	add	esp, 76					; 0000004cH
; Line 4469
	jmp	SHORT $LN6@MprWrite
$LN2@MprWrite:
; Line 4470
	push	ebx
	push	DWORD PTR _Rank$[ebp]
	push	DWORD PTR _Channel$[ebp]
	push	esi
	call	_ToggleMprMode
	add	esp, 16					; 00000010H
$LN6@MprWrite:
	pop	edi
	pop	esi
	pop	ebx
; Line 4472
	leave
	ret	0
_MprWrite ENDP
_TEXT	ENDS
PUBLIC	_CpgcExecuteSingleTest
; Function compile flags: /Ogspy
;	COMDAT _CpgcExecuteSingleTest
_TEXT	SEGMENT
_MrcData$ = 8						; size = 4
_Channel$ = 12						; size = 1
_Rank$ = 16						; size = 1
_CompareFlag$ = 20					; size = 4
_LaneErrorHigh$ = 24					; size = 4
_LaneErrorLow$ = 28					; size = 4
_CpgcExecuteSingleTest PROC				; COMDAT
; Line 5485
	push	ebp
	mov	ebp, esp
	push	esi
; Line 5489
	mov	esi, DWORD PTR _MrcData$[ebp]
	test	BYTE PTR [esi+71008], 2
	je	SHORT $LN6@CpgcExecut
; Line 5490
	mov	eax, DWORD PTR _CompareFlag$[ebp]
	and	DWORD PTR [eax], 0
; Line 5491
	mov	eax, DWORD PTR _LaneErrorHigh$[ebp]
	test	eax, eax
	je	SHORT $LN5@CpgcExecut
; Line 5492
	and	DWORD PTR [eax], 0
$LN5@CpgcExecut:
; Line 5494
	mov	eax, DWORD PTR _LaneErrorLow$[ebp]
	test	eax, eax
	je	SHORT $LN1@CpgcExecut
; Line 5495
	and	DWORD PTR [eax], 0
; Line 5497
	jmp	SHORT $LN1@CpgcExecut
$LN6@CpgcExecut:
	push	edi
; Line 5499
	push	DWORD PTR _Channel$[ebp]
	push	65535					; 0000ffffH
	push	13494					; 000034b6H
	push	esi
	call	_MmrcExecuteTask
; Line 5500
	movzx	ecx, BYTE PTR _Channel$[ebp]
	mov	edi, DWORD PTR _CompareFlag$[ebp]
	mov	eax, ecx
	imul	eax, 4336				; 000010f0H
	add	eax, esi
	mov	edx, DWORD PTR [eax+58374]
	add	esp, 16					; 00000010H
	mov	DWORD PTR [edi], edx
; Line 5501
	cmp	BYTE PTR [ecx+esi+30686], 0
	je	SHORT $LN3@CpgcExecut
; Line 5502
	mov	ecx, DWORD PTR [eax+58366]
	shl	ecx, 8
	or	ecx, edx
	mov	DWORD PTR [edi], ecx
$LN3@CpgcExecut:
; Line 5504
	mov	ecx, DWORD PTR _LaneErrorHigh$[ebp]
	pop	edi
	test	ecx, ecx
	je	SHORT $LN2@CpgcExecut
; Line 5505
	mov	edx, DWORD PTR [eax+58390]
	mov	DWORD PTR [ecx], edx
$LN2@CpgcExecut:
; Line 5508
	mov	ecx, DWORD PTR _LaneErrorLow$[ebp]
	test	ecx, ecx
	je	SHORT $LN1@CpgcExecut
; Line 5509
	mov	eax, DWORD PTR [eax+58382]
	mov	DWORD PTR [ecx], eax
$LN1@CpgcExecut:
; Line 5513
	xor	eax, eax
	pop	esi
; Line 5514
	pop	ebp
	ret	0
_CpgcExecuteSingleTest ENDP
_TEXT	ENDS
PUBLIC	_HeaderCommandClockTraining
; Function compile flags: /Ogspy
;	COMDAT _HeaderCommandClockTraining
_TEXT	SEGMENT
_MrcData$ = 8						; size = 4
_HeaderType$ = 12					; size = 1
_Channel$ = 16						; size = 1
_Rank$ = 20						; size = 1
_Step$ = 24						; size = 1
_CmdLow$ = 28						; size = 4
_CmdHigh$ = 32						; size = 4
_CmdValue$ = 36						; size = 4
_HeaderCommandClockTraining PROC			; COMDAT
; Line 8445
	push	DWORD PTR _Rank$[esp-4]
	push	DWORD PTR _Channel$[esp]
	push	DWORD PTR _MrcData$[esp+4]
	call	_RunOnThisChannel
	add	esp, 12					; 0000000cH
; Line 8494
	xor	eax, eax
; Line 8495
	ret	0
_HeaderCommandClockTraining ENDP
_TEXT	ENDS
PUBLIC	_ChangeCmdMode
; Function compile flags: /Ogspy
;	COMDAT _ChangeCmdMode
_TEXT	SEGMENT
_MrcData$ = 8						; size = 4
_Channel$ = 12						; size = 1
_Mode$ = 16						; size = 1
_ChangeCmdMode PROC					; COMDAT
; Line 8642
	push	ebp
	mov	ebp, esp
; Line 8643
	movzx	eax, BYTE PTR _Channel$[ebp]
	imul	eax, 4336				; 000010f0H
	push	esi
	mov	esi, DWORD PTR _MrcData$[ebp]
	lea	ecx, DWORD PTR [eax+esi]
	mov	eax, DWORD PTR [ecx+56126]
	mov	DWORD PTR [ecx+58558], eax
	mov	eax, DWORD PTR [ecx+56130]
	mov	DWORD PTR [ecx+58562], eax
; Line 8644
	movzx	eax, BYTE PTR _Mode$[ebp]
	dec	eax
	cdq
	mov	DWORD PTR [ecx+58550], eax
; Line 8646
	mov	eax, DWORD PTR [ecx+57870]
	or	eax, DWORD PTR [ecx+57874]
	mov	DWORD PTR [ecx+58554], edx
	jne	SHORT $LN3@ChangeCmdM
	cmp	BYTE PTR _Mode$[ebp], 1
	je	SHORT $LN1@ChangeCmdM
$LN3@ChangeCmdM:
; Line 8648
	cmp	BYTE PTR _Mode$[ebp], 1
	jne	SHORT $LN1@ChangeCmdM
; Line 8652
	add	DWORD PTR [ecx+58558], 1
	push	0
	pop	eax
	adc	DWORD PTR [ecx+58562], eax
; Line 8653
	mov	DWORD PTR [ecx+58550], eax
	mov	DWORD PTR [ecx+58554], eax
$LN1@ChangeCmdM:
; Line 8662
	push	DWORD PTR _Channel$[ebp]
	push	65535					; 0000ffffH
	push	14559					; 000038dfH
	push	esi
	call	_MmrcExecuteTask
	add	esp, 16					; 00000010H
; Line 8664
	xor	eax, eax
	pop	esi
; Line 8665
	pop	ebp
	ret	0
_ChangeCmdMode ENDP
_TEXT	ENDS
PUBLIC	_CalculateOrRestoreResults
; Function compile flags: /Ogspy
;	COMDAT _CalculateOrRestoreResults
_TEXT	SEGMENT
_GetMinMax$ = -16					; size = 4
_Channel$ = -9						; size = 1
_Element$ = -5						; size = 1
_Knob$ = -1						; size = 1
_MrcData$ = 8						; size = 4
tv262 = 12						; size = 4
_ChannelBackup$ = 12					; size = 1
_Rank$ = 16						; size = 1
_Dim1Knobs$ = 20					; size = 1
_NumberElements$ = 24					; size = 4
_Results$ = 28						; size = 4
_Dim1Start$ = 32					; size = 4
_FlagDirection$ = 36					; size = 1
_Stage$ = 40						; size = 1
_CalculateOrRestoreResults PROC				; COMDAT
; Line 10593
	push	ebp
	mov	ebp, esp
	sub	esp, 16					; 00000010H
	push	ebx
	push	esi
	push	edi
; Line 10599
	xor	eax, eax
	lea	edi, DWORD PTR _GetMinMax$[ebp]
; Line 10600
	push	2
	stosw
	lea	eax, DWORD PTR _GetMinMax$[ebp+2]
	push	-1
	push	eax
	call	_MmrcMemset
; Line 10602
	mov	al, BYTE PTR _ChannelBackup$[ebp]
	mov	ebx, DWORD PTR _NumberElements$[ebp]
	add	esp, 12					; 0000000cH
	mov	BYTE PTR _Channel$[ebp], al
	cmp	al, 2
	jae	$LN52@CalculateO
$LL30@CalculateO:
; Line 10603
	push	DWORD PTR _Rank$[ebp]
	push	DWORD PTR _Channel$[ebp]
	push	DWORD PTR _MrcData$[ebp]
	call	_RunOnThisChannel
	add	esp, 12					; 0000000cH
	test	al, al
	je	$LN29@CalculateO
; Line 10606
	cmp	BYTE PTR _Dim1Knobs$[ebp], 0
	mov	BYTE PTR _Knob$[ebp], 0
	jbe	$LN29@CalculateO
	movzx	edi, BYTE PTR _Channel$[ebp]
$LL26@CalculateO:
; Line 10607
	cmp	BYTE PTR [edi+ebx], 0
	mov	BYTE PTR _Element$[ebp], 0
	jbe	$LN25@CalculateO
$LL55@CalculateO:
; Line 10608
	mov	esi, DWORD PTR _MrcData$[ebp]
	push	0
	push	0
	push	DWORD PTR _Element$[ebp]
	push	DWORD PTR _Rank$[ebp]
	push	DWORD PTR _Channel$[ebp]
	push	esi
	call	_IsStrobeValid
	add	esp, 24					; 00000018H
	test	al, al
	je	$LN22@CalculateO
; Line 10612
	movzx	eax, BYTE PTR _Knob$[ebp]
	movzx	ecx, BYTE PTR _Element$[ebp]
	add	eax, edi
	imul	eax, 18					; 00000012H
	cmp	BYTE PTR _FlagDirection$[ebp], 0
	jne	SHORT $LN19@CalculateO
	mov	edx, DWORD PTR _Results$[ebp]
	add	ecx, eax
	mov	eax, ecx
	shl	eax, 5
	add	eax, edx
	movzx	esi, WORD PTR [eax]
	cmp	WORD PTR [eax+2], si
	jbe	$LN18@CalculateO
; Line 10617
	mov	edx, DWORD PTR _MrcData$[ebp]
	mov	ebx, DWORD PTR _Dim1Start$[ebp]
	add	edx, 71458				; 00011722H
	lea	ecx, DWORD PTR [ebx+ecx*4]
	movzx	bx, BYTE PTR [edx]
	add	bx, si
	mov	WORD PTR [ecx], bx
; Line 10618
	movzx	dx, BYTE PTR [edx]
	mov	ax, WORD PTR [eax+2]
	sub	ax, dx
	mov	WORD PTR [ecx+2], ax
; Line 10619
	cmp	WORD PTR _GetMinMax$[ebp+2], ax
	jbe	SHORT $LN16@CalculateO
; Line 10620
	mov	WORD PTR _GetMinMax$[ebp+2], ax
$LN16@CalculateO:
; Line 10622
	movzx	eax, WORD PTR [ecx]
	cmp	WORD PTR _GetMinMax$[ebp], ax
	jae	SHORT $LN22@CalculateO
; Line 10623
	mov	WORD PTR _GetMinMax$[ebp], ax
; Line 10625
	jmp	SHORT $LN22@CalculateO
$LN19@CalculateO:
; Line 10626
	add	eax, ecx
	mov	ecx, DWORD PTR _Dim1Start$[ebp]
	lea	ecx, DWORD PTR [ecx+eax*4]
	mov	bx, WORD PTR [ecx]
	lea	edx, DWORD PTR [esi+71458]
	mov	esi, DWORD PTR _Results$[ebp]
	shl	eax, 5
	add	eax, esi
	movzx	si, BYTE PTR [edx]
	sub	bx, si
	mov	WORD PTR [eax], bx
; Line 10627
	movzx	dx, BYTE PTR [edx]
	add	dx, WORD PTR [ecx+2]
	mov	WORD PTR [eax+2], dx
$LN22@CalculateO:
	inc	BYTE PTR _Element$[ebp]
	mov	ebx, DWORD PTR _NumberElements$[ebp]
	mov	al, BYTE PTR _Element$[ebp]
	cmp	al, BYTE PTR [edi+ebx]
	jb	$LL55@CalculateO
$LN25@CalculateO:
; Line 10606
	inc	BYTE PTR _Knob$[ebp]
	mov	al, BYTE PTR _Knob$[ebp]
	cmp	al, BYTE PTR _Dim1Knobs$[ebp]
	jb	$LL26@CalculateO
$LN29@CalculateO:
; Line 10602
	inc	BYTE PTR _Channel$[ebp]
	cmp	BYTE PTR _Channel$[ebp], 2
	jb	$LL30@CalculateO
; Line 10607
	mov	al, BYTE PTR _ChannelBackup$[ebp]
$LN52@CalculateO:
; Line 10636
	test	BYTE PTR _Stage$[ebp], 8
	je	$LN10@CalculateO
; Line 10637
	mov	BYTE PTR _Channel$[ebp], al
	cmp	al, 2
	jae	$LN10@CalculateO
	movzx	eax, al
	mov	esi, eax
	imul	esi, 18					; 00000012H
	lea	edi, DWORD PTR [eax+ebx]
$LL12@CalculateO:
; Line 10638
	push	DWORD PTR _Rank$[ebp]
	push	DWORD PTR _Channel$[ebp]
	push	DWORD PTR _MrcData$[ebp]
	call	_RunOnThisChannel
	add	esp, 12					; 0000000cH
	test	al, al
	je	SHORT $LN11@CalculateO
; Line 10641
	cmp	BYTE PTR _Dim1Knobs$[ebp], 0
	jbe	SHORT $LN11@CalculateO
	movzx	eax, BYTE PTR _Dim1Knobs$[ebp]
	mov	ebx, esi
	mov	DWORD PTR tv262[ebp], eax
$LL8@CalculateO:
; Line 10642
	cmp	BYTE PTR [edi], 0
	mov	BYTE PTR _Element$[ebp], 0
	jbe	SHORT $LN7@CalculateO
$LL5@CalculateO:
; Line 10643
	push	0
	push	0
	push	DWORD PTR _Element$[ebp]
	push	DWORD PTR _Rank$[ebp]
	push	DWORD PTR _Channel$[ebp]
	push	DWORD PTR _MrcData$[ebp]
	call	_IsStrobeValid
	add	esp, 24					; 00000018H
	test	al, al
	je	SHORT $LN4@CalculateO
; Line 10646
	cmp	BYTE PTR _FlagDirection$[ebp], 0
	jne	SHORT $LN4@CalculateO
; Line 10647
	movzx	eax, BYTE PTR _Element$[ebp]
	mov	ecx, DWORD PTR _Dim1Start$[ebp]
	add	eax, ebx
	lea	eax, DWORD PTR [ecx+eax*4]
	mov	cx, WORD PTR _GetMinMax$[ebp]
	mov	WORD PTR [eax], cx
; Line 10648
	mov	cx, WORD PTR _GetMinMax$[ebp+2]
	mov	WORD PTR [eax+2], cx
$LN4@CalculateO:
	inc	BYTE PTR _Element$[ebp]
	mov	al, BYTE PTR _Element$[ebp]
	cmp	al, BYTE PTR [edi]
	jb	SHORT $LL5@CalculateO
$LN7@CalculateO:
; Line 10641
	add	ebx, 18					; 00000012H
	dec	DWORD PTR tv262[ebp]
	jne	SHORT $LL8@CalculateO
$LN11@CalculateO:
; Line 10637
	inc	BYTE PTR _Channel$[ebp]
	inc	edi
	add	esi, 18					; 00000012H
	cmp	BYTE PTR _Channel$[ebp], 2
	jb	$LL12@CalculateO
$LN10@CalculateO:
; Line 10654
	xor	eax, eax
$LN31@CalculateO:
	pop	edi
	pop	esi
	pop	ebx
; Line 10655
	leave
	ret	0
$LN18@CalculateO:
; Line 10615
	or	eax, -1
	jmp	SHORT $LN31@CalculateO
_CalculateOrRestoreResults ENDP
_TEXT	ENDS
PUBLIC	_CpgcSetup
EXTRN	_CpgcOptionsSetup:PROC
; Function compile flags: /Ogspy
;	COMDAT _CpgcSetup
_TEXT	SEGMENT
tv495 = -4						; size = 4
tv453 = -4						; size = 4
_MrcData$ = 8						; size = 4
_ExecuteMode$ = 11					; size = 1
_Channel$ = 12						; size = 1
tv505 = 16						; size = 4
_SetupType$ = 16					; size = 1
_CpgcSetup PROC						; COMDAT
; Line 11731
	push	ebp
	mov	ebp, esp
	push	ecx
	push	ebx
	push	esi
; Line 11734
	mov	esi, DWORD PTR _MrcData$[ebp]
	mov	al, BYTE PTR [esi+55508]
	push	edi
; Line 11742
	push	DWORD PTR _Channel$[ebp]
	xor	ebx, ebx
	push	esi
	mov	BYTE PTR _ExecuteMode$[ebp], al
	mov	BYTE PTR [esi+55508], bl
	call	_CpgcOptionsSetup
; Line 11748
	push	DWORD PTR _Channel$[ebp]
	mov	al, BYTE PTR _SetupType$[ebp]
	mov	edi, 65535				; 0000ffffH
	push	edi
	push	12247					; 00002fd7H
	push	esi
	mov	BYTE PTR [esi+65569], al
	call	_MmrcExecuteTask
; Line 11749
	movzx	eax, BYTE PTR _Channel$[ebp]
	mov	DWORD PTR tv453[ebp], eax
	imul	eax, 4336				; 000010f0H
	lea	ecx, DWORD PTR [eax+esi]
	mov	DWORD PTR [ecx+58174], ebx
	mov	DWORD PTR [ecx+58178], ebx
; Line 11753
	mov	DWORD PTR [ecx+58158], ebx
	mov	DWORD PTR [ecx+58162], ebx
; Line 11758
	mov	DWORD PTR [ecx+58166], ebx
	mov	DWORD PTR [ecx+58170], ebx
; Line 11760
	movzx	eax, BYTE PTR [esi+65582]
	cdq
	mov	DWORD PTR [ecx+58150], eax
	mov	DWORD PTR [ecx+58154], edx
; Line 11761
	movzx	eax, BYTE PTR [esi+65583]
	cdq
	mov	DWORD PTR [ecx+58142], eax
; Line 11763
	mov	al, BYTE PTR _SetupType$[ebp]
	add	esp, 24					; 00000018H
	mov	DWORD PTR [ecx+58146], edx
	cmp	al, 1
	jbe	$LN13@CpgcSetup
	cmp	al, 2
	je	$LN11@CpgcSetup
	jbe	$LN2@CpgcSetup
	cmp	al, 4
	jbe	$LN10@CpgcSetup
	cmp	al, 7
	jne	$LN2@CpgcSetup
; Line 11813
	movzx	edx, BYTE PTR [esi+65579]
	movzx	eax, BYTE PTR [esi+65580]
	sub	eax, edx
	sub	eax, 17					; 00000011H
	cdq
	mov	DWORD PTR [ecx+58254], eax
; Line 11830
	mov	eax, DWORD PTR tv453[ebp]
	lea	eax, DWORD PTR [eax+esi+31272]
	mov	DWORD PTR [ecx+58258], edx
	cmp	BYTE PTR [eax], 3
	mov	DWORD PTR tv495[ebp], eax
	ja	SHORT $LN6@CpgcSetup
; Line 11836
	movzx	eax, BYTE PTR [esi+65579]
	lea	edx, DWORD PTR [eax+eax+4]
	movzx	eax, BYTE PTR [esi+65581]
	sub	eax, edx
	movzx	edx, BYTE PTR [esi+65580]
	mov	DWORD PTR tv505[ebp], eax
	movzx	eax, BYTE PTR [esi+65579]
	sub	edx, eax
	lea	eax, DWORD PTR [edx-20]
	cmp	DWORD PTR tv505[ebp], eax
	jge	SHORT $LN7@CpgcSetup
; Line 11841
	mov	eax, DWORD PTR tv505[ebp]
$LN7@CpgcSetup:
; Line 11846
	cdq
	mov	DWORD PTR [ecx+58266], edx
	mov	DWORD PTR [ecx+58262], eax
$LN6@CpgcSetup:
; Line 11851
	mov	eax, DWORD PTR tv495[ebp]
	cmp	BYTE PTR [eax], 7
	jne	SHORT $LN3@CpgcSetup
; Line 11857
	movzx	eax, BYTE PTR [esi+65579]
	lea	edx, DWORD PTR [eax+eax+4]
	movzx	eax, BYTE PTR [esi+65581]
	sub	eax, edx
	movzx	edx, BYTE PTR [esi+65580]
	mov	DWORD PTR tv505[ebp], eax
	movzx	eax, BYTE PTR [esi+65579]
	sub	edx, eax
	lea	eax, DWORD PTR [edx-20]
	cmp	DWORD PTR tv505[ebp], eax
	jge	SHORT $LN4@CpgcSetup
; Line 11862
	mov	eax, DWORD PTR tv505[ebp]
$LN4@CpgcSetup:
; Line 11867
	cdq
	mov	DWORD PTR [ecx+58266], edx
	mov	DWORD PTR [ecx+58262], eax
$LN3@CpgcSetup:
; Line 11875
	push	DWORD PTR _Channel$[ebp]
	mov	DWORD PTR [ecx+58246], ebx
	push	edi
	push	12470					; 000030b6H
	push	esi
	mov	DWORD PTR [ecx+58250], ebx
	call	_MmrcExecuteTask
; Line 11876
	push	DWORD PTR _Channel$[ebp]
	push	edi
	push	12912					; 00003270H
	push	esi
	call	_MmrcExecuteTask
	add	esp, 32					; 00000020H
; Line 11877
	jmp	SHORT $LN18@CpgcSetup
$LN10@CpgcSetup:
; Line 11785
	push	DWORD PTR _Channel$[ebp]
	mov	DWORD PTR [ecx+58158], ebx
	push	edi
	push	12470					; 000030b6H
	push	esi
	mov	DWORD PTR [ecx+58162], ebx
	mov	DWORD PTR [ecx+58166], ebx
	mov	DWORD PTR [ecx+58170], ebx
	mov	DWORD PTR [ecx+58174], ebx
	mov	DWORD PTR [ecx+58178], ebx
	call	_MmrcExecuteTask
	add	esp, 16					; 00000010H
; Line 11786
	jmp	SHORT $LN13@CpgcSetup
$LN11@CpgcSetup:
; Line 11773
	push	DWORD PTR _Channel$[ebp]
	push	edi
	push	12470					; 000030b6H
	push	esi
	call	_MmrcExecuteTask
	add	esp, 16					; 00000010H
; Line 11774
	jmp	SHORT $LN18@CpgcSetup
$LN2@CpgcSetup:
; Line 11879
	call	_MrcDeadLoop
$LN13@CpgcSetup:
; Line 11882
	cmp	BYTE PTR _SetupType$[ebp], bl
	je	SHORT $LN1@CpgcSetup
	cmp	BYTE PTR _SetupType$[ebp], 1
	je	SHORT $LN1@CpgcSetup
$LN18@CpgcSetup:
; Line 11883
	push	DWORD PTR _Channel$[ebp]
	push	edi
	push	12439					; 00003097H
	push	esi
	call	_MmrcExecuteTask
	add	esp, 16					; 00000010H
$LN1@CpgcSetup:
; Line 11886
	mov	al, BYTE PTR _ExecuteMode$[ebp]
	pop	edi
	mov	BYTE PTR [esi+55508], al
	pop	esi
; Line 11888
	xor	eax, eax
	pop	ebx
; Line 11889
	leave
	ret	0
_CpgcSetup ENDP
_TEXT	ENDS
PUBLIC	_CpgcReconfig
EXTRN	_GetAddressBit:PROC
; Function compile flags: /Ogspy
;	COMDAT _CpgcReconfig
_TEXT	SEGMENT
_MrcData$ = 8						; size = 4
_ExecuteMode$ = 11					; size = 1
_Channel$ = 12						; size = 1
_CpgcReconfig PROC					; COMDAT
; Line 11910
	push	ebp
	mov	ebp, esp
	push	ebx
	push	esi
; Line 11913
	mov	esi, DWORD PTR _MrcData$[ebp]
	mov	al, BYTE PTR [esi+55508]
	mov	BYTE PTR _ExecuteMode$[ebp], al
; Line 11921
	mov	al, BYTE PTR [esi+65569]
	push	edi
	mov	BYTE PTR [esi+55508], 0
	test	al, al
	je	$LN12@CpgcReconf
	cmp	al, 1
	je	$LN11@CpgcReconf
	cmp	al, 2
	je	$LN10@CpgcReconf
	jbe	$LN1@CpgcReconf
	cmp	al, 4
	jbe	SHORT $LN9@CpgcReconf
	cmp	al, 7
	jne	$LN1@CpgcReconf
; Line 11994
	movzx	eax, BYTE PTR _Channel$[ebp]
	movzx	ecx, BYTE PTR [esi+65580]
	imul	eax, 4336				; 000010f0H
; Line 11998
	push	DWORD PTR _Channel$[ebp]
	lea	edi, DWORD PTR [eax+esi]
	movzx	eax, BYTE PTR [esi+65579]
	sub	ecx, eax
	movzx	eax, BYTE PTR [esi+65585]
	sub	ecx, 5
	shl	eax, cl
	push	65535					; 0000ffffH
	push	12853					; 00003235H
	cdq
	mov	ecx, edx
	mov	DWORD PTR [edi+58198], eax
	mov	DWORD PTR [edi+58202], edx
	mov	DWORD PTR [edi+58206], eax
	mov	DWORD PTR [edi+58210], ecx
	mov	DWORD PTR [edi+58694], eax
	mov	DWORD PTR [edi+58698], ecx
	mov	DWORD PTR [edi+58702], eax
	mov	DWORD PTR [edi+58706], ecx
; Line 11999
	jmp	$LN21@CpgcReconf
$LN9@CpgcReconf:
; Line 11956
	movzx	eax, BYTE PTR _Channel$[ebp]
	imul	eax, 4336				; 000010f0H
	lea	edi, DWORD PTR [eax+esi]
	movzx	eax, BYTE PTR [esi+65585]
	push	eax
	push	DWORD PTR _Channel$[ebp]
	push	esi
	call	_GetAddressBit
	mov	ecx, eax
	movzx	eax, BYTE PTR [esi+65579]
	push	-5					; fffffffbH
	pop	edx
; Line 11958
	push	DWORD PTR _Channel$[ebp]
	sub	edx, eax
	movzx	eax, BYTE PTR [esi+65585]
	add	ecx, edx
	shl	eax, cl
	mov	ebx, 65535				; 0000ffffH
	push	ebx
	push	12853					; 00003235H
	cdq
	mov	DWORD PTR [edi+58198], eax
	mov	DWORD PTR [edi+58206], eax
	mov	eax, edx
	push	esi
	mov	DWORD PTR [edi+58202], edx
	mov	DWORD PTR [edi+58210], eax
	call	_MmrcExecuteTask
; Line 11959
	movzx	ecx, BYTE PTR [esi+65570]
	xor	eax, eax
	add	esp, 28					; 0000001cH
	sub	ecx, eax
	je	SHORT $LN5@CpgcReconf
	dec	ecx
	je	SHORT $LN6@CpgcReconf
	dec	ecx
	jne	SHORT $LN7@CpgcReconf
; Line 11970
	mov	DWORD PTR [edi+58230], 1
; Line 11971
	jmp	SHORT $LN18@CpgcReconf
$LN6@CpgcReconf:
; Line 11961
	xor	ecx, ecx
	inc	ecx
	mov	DWORD PTR [edi+58238], ecx
; Line 11962
	mov	DWORD PTR [edi+58230], ecx
; Line 11963
	jmp	SHORT $LN19@CpgcReconf
$LN5@CpgcReconf:
; Line 11966
	mov	DWORD PTR [edi+58230], eax
$LN18@CpgcReconf:
; Line 11965
	mov	DWORD PTR [edi+58238], eax
$LN19@CpgcReconf:
	mov	DWORD PTR [edi+58242], eax
; Line 11966
	mov	DWORD PTR [edi+58234], eax
$LN7@CpgcReconf:
; Line 11973
	mov	ecx, DWORD PTR [esi+65571]
; Line 11975
	push	DWORD PTR _Channel$[ebp]
	mov	DWORD PTR [edi+58222], ecx
	push	ebx
	mov	DWORD PTR [edi+58226], eax
	mov	ecx, DWORD PTR [esi+65575]
	push	12878					; 0000324eH
	push	esi
	mov	DWORD PTR [edi+58214], ecx
	mov	DWORD PTR [edi+58218], eax
	call	_MmrcExecuteTask
; Line 11976
	push	DWORD PTR _Channel$[ebp]
	push	ebx
	push	12893					; 0000325dH
	push	esi
	call	_MmrcExecuteTask
	add	esp, 32					; 00000020H
; Line 11977
	cmp	BYTE PTR [esi+65569], 3
	je	$LN17@CpgcReconf
; Line 11983
	push	DWORD PTR _Channel$[ebp]
	push	ebx
	push	14906					; 00003a3aH
$LN21@CpgcReconf:
	push	esi
	call	_MmrcExecuteTask
	add	esp, 16					; 00000010H
; Line 11984
	jmp	$LN17@CpgcReconf
$LN1@CpgcReconf:
; Line 12001
	call	_MrcDeadLoop
	jmp	$LN17@CpgcReconf
$LN10@CpgcReconf:
; Line 11936
	movzx	eax, BYTE PTR _Channel$[ebp]
	imul	eax, 4336				; 000010f0H
	lea	edi, DWORD PTR [eax+esi]
	xor	eax, eax
	mov	DWORD PTR [edi+58238], eax
	mov	DWORD PTR [edi+58242], eax
; Line 11937
	mov	DWORD PTR [edi+58230], 1
	mov	DWORD PTR [edi+58234], eax
; Line 11938
	movzx	eax, BYTE PTR [esi+65585]
	push	eax
	push	DWORD PTR _Channel$[ebp]
	push	esi
	call	_GetAddressBit
	mov	ecx, eax
	movzx	eax, BYTE PTR [esi+65579]
	push	-5					; fffffffbH
	pop	edx
; Line 11942
	push	DWORD PTR _Channel$[ebp]
	sub	edx, eax
	movzx	eax, BYTE PTR [esi+65585]
	add	ecx, edx
	shl	eax, cl
	mov	ebx, 65535				; 0000ffffH
	push	ebx
	push	12853					; 00003235H
	cdq
	mov	ecx, edx
	push	esi
	mov	DWORD PTR [edi+58198], eax
	mov	DWORD PTR [edi+58202], edx
	mov	DWORD PTR [edi+58206], eax
	mov	DWORD PTR [edi+58210], ecx
	mov	DWORD PTR [edi+58694], eax
	mov	DWORD PTR [edi+58698], ecx
	mov	DWORD PTR [edi+58702], eax
	mov	DWORD PTR [edi+58706], ecx
	call	_MmrcExecuteTask
; Line 11943
	push	DWORD PTR _Channel$[ebp]
	push	ebx
	push	12893					; 0000325dH
	push	esi
	call	_MmrcExecuteTask
	add	esp, 44					; 0000002cH
; Line 11944
	jmp	SHORT $LN17@CpgcReconf
$LN11@CpgcReconf:
; Line 11928
	push	DWORD PTR _Channel$[ebp]
	mov	ebx, 65535				; 0000ffffH
	push	ebx
	push	13933					; 0000366dH
; Line 11930
	jmp	SHORT $LN20@CpgcReconf
$LN12@CpgcReconf:
; Line 11924
	push	DWORD PTR _Channel$[ebp]
	mov	ebx, 65535				; 0000ffffH
	push	ebx
	push	13707					; 0000358bH
$LN20@CpgcReconf:
	push	esi
	call	_MmrcExecuteTask
; Line 11925
	push	DWORD PTR _Channel$[ebp]
	push	ebx
	push	13811					; 000035f3H
	push	esi
	call	_MmrcExecuteTask
	add	esp, 32					; 00000020H
$LN17@CpgcReconf:
; Line 12004
	mov	al, BYTE PTR _ExecuteMode$[ebp]
	pop	edi
	mov	BYTE PTR [esi+55508], al
	pop	esi
; Line 12006
	xor	eax, eax
	pop	ebx
; Line 12007
	pop	ebp
	ret	0
_CpgcReconfig ENDP
_TEXT	ENDS
PUBLIC	_CpgcBaseLineTest
; Function compile flags: /Ogspy
;	COMDAT _CpgcBaseLineTest
_TEXT	SEGMENT
tv282 = -8						; size = 4
tv343 = -4						; size = 4
_ModMrcData$ = 8					; size = 4
_Rank$ = 11						; size = 1
_CapsuleStartIndex$ = 12				; size = 2
_StringIndex$ = 16					; size = 2
_Channel$ = 20						; size = 1
_CpgcBaseLineTest PROC					; COMDAT
; Line 12185
	push	ebp
	mov	ebp, esp
	push	ecx
	push	ecx
	push	esi
; Line 12199
	mov	esi, DWORD PTR _ModMrcData$[ebp]
	cmp	BYTE PTR [esi+71014], 0
	je	SHORT $LN8@CpgcBaseLi
	cmp	BYTE PTR [esi+71015], 0
	je	SHORT $LN8@CpgcBaseLi
	cmp	BYTE PTR [esi+71016], 0
	je	SHORT $LN8@CpgcBaseLi
	cmp	BYTE PTR [esi+71017], 0
	je	SHORT $LN8@CpgcBaseLi
	cmp	BYTE PTR [esi+71018], 0
	je	SHORT $LN8@CpgcBaseLi
	cmp	BYTE PTR [esi+71019], 0
	je	SHORT $LN8@CpgcBaseLi
	cmp	BYTE PTR [esi+71020], 0
; Line 12200
	jne	$LN17@CpgcBaseLi
$LN8@CpgcBaseLi:
	push	ebx
; Line 12203
	mov	ebx, DWORD PTR _Channel$[ebp]
	push	edi
	push	ebx
	mov	edi, 65535				; 0000ffffH
	push	edi
	push	15587					; 00003ce3H
	push	esi
	call	_MmrcExecuteTask
; Line 12205
	push	ebx
	push	edi
	push	15209					; 00003b69H
	push	esi
	call	_MmrcExecuteTask
; Line 12218
	push	2
	push	ebx
	push	esi
	mov	BYTE PTR [esi+65583], 8
	mov	BYTE PTR [esi+65582], 6
	call	_CpgcSetup
; Line 12245
	movzx	ebx, bl
	lea	eax, DWORD PTR [esi+ebx*4+55438]
	add	esp, 44					; 0000002cH
	mov	BYTE PTR _Rank$[ebp], 0
	mov	DWORD PTR tv343[ebp], eax
$LL7@CpgcBaseLi:
	mov	eax, DWORD PTR tv343[ebp]
	cmp	BYTE PTR [eax], 0
	je	$LN6@CpgcBaseLi
	push	DWORD PTR _Channel$[ebp]
	mov	al, BYTE PTR _Rank$[ebp]
	push	esi
	mov	BYTE PTR [esi+65585], al
	mov	BYTE PTR [esi+65570], 2
	call	_CpgcReconfig
	push	DWORD PTR _Channel$[ebp]
	mov	eax, ebx
	imul	eax, 4336				; 000010f0H
	push	edi
	lea	eax, DWORD PTR [eax+esi+58406]
	push	13608					; 00003528H
	push	esi
	mov	DWORD PTR tv282[ebp], eax
	call	_MmrcExecuteTask
	add	esp, 24					; 00000018H
	cmp	BYTE PTR [ebx+esi+28608], 0
	je	SHORT $LN11@CpgcBaseLi
; Line 12236
	cmp	BYTE PTR [ebx+esi+55511], 0
	je	SHORT $LN11@CpgcBaseLi
	xor	ecx, ecx
	inc	ecx
	jmp	SHORT $LN18@CpgcBaseLi
$LN11@CpgcBaseLi:
	xor	ecx, ecx
$LN18@CpgcBaseLi:
; Line 12237
	push	DWORD PTR _Channel$[ebp]
	mov	eax, DWORD PTR tv282[ebp]
	push	edi
	xor	edx, edx
	push	13625					; 00003539H
	push	esi
	mov	DWORD PTR [eax], ecx
	mov	DWORD PTR [eax+4], edx
	call	_MmrcExecuteTask
; Line 12238
	push	DWORD PTR _Channel$[ebp]
	push	edi
	push	13638					; 00003546H
	push	esi
	call	_MmrcExecuteTask
	add	esp, 32					; 00000020H
$LN6@CpgcBaseLi:
	inc	BYTE PTR _Rank$[ebp]
	inc	DWORD PTR tv343[ebp]
	cmp	BYTE PTR _Rank$[ebp], 4
	jb	$LL7@CpgcBaseLi
	pop	edi
	pop	ebx
$LN17@CpgcBaseLi:
; Line 12245
	xor	eax, eax
	pop	esi
; Line 12246
	leave
	ret	0
_CpgcBaseLineTest ENDP
_TEXT	ENDS
PUBLIC	_DoZqCal
; Function compile flags: /Ogspy
;	COMDAT _DoZqCal
_TEXT	SEGMENT
_Dram3Cmd$ = -4						; size = 4
_Rank$ = 8						; size = 1
_MrcData$ = 8						; size = 4
_Channel$ = 12						; size = 1
_DoZqCal PROC						; COMDAT
; Line 12260
	push	ebp
	mov	ebp, esp
	push	ecx
	push	ebx
	push	esi
; Line 12272
	mov	esi, DWORD PTR _MrcData$[ebp]
	mov	bl, BYTE PTR [esi+55508]
	xor	eax, eax
	push	edi
	mov	DWORD PTR _Dram3Cmd$[ebp], eax
; Line 12273
	mov	BYTE PTR [esi+55508], al
; Line 12275
	mov	BYTE PTR _Rank$[ebp], al
	xor	edi, edi
$LL6@DoZqCal:
; Line 12276
	push	DWORD PTR _Rank$[ebp]
	push	DWORD PTR _Channel$[ebp]
	push	esi
	call	_RunOnThisChannel
	add	esp, 12					; 0000000cH
	test	al, al
	je	SHORT $LN5@DoZqCal
; Line 12279
	movzx	eax, BYTE PTR _Channel$[ebp]
	cmp	BYTE PTR [eax+esi+31272], 3
; Line 12283
	mov	eax, edi
	ja	SHORT $LN2@DoZqCal
	mov	ecx, DWORD PTR _Dram3Cmd$[ebp]
	and	eax, 3
	shl	eax, 22					; 00000016H
	and	ecx, -16711674				; ff010006H
	or	eax, ecx
	or	eax, 65542				; 00010006H
	mov	DWORD PTR _Dram3Cmd$[ebp], eax
; Line 12286
	jmp	SHORT $LN1@DoZqCal
$LN2@DoZqCal:
; Line 12297
	and	eax, 3
	shl	eax, 26					; 0000001aH
	or	eax, 262158				; 0004000eH
$LN1@DoZqCal:
; Line 12300
	push	eax
	push	DWORD PTR _Rank$[ebp]
	push	DWORD PTR _Channel$[ebp]
	push	esi
	call	_WriteDramCommandSideWrap
	add	esp, 16					; 00000010H
$LN5@DoZqCal:
	inc	BYTE PTR _Rank$[ebp]
	inc	edi
	cmp	BYTE PTR _Rank$[ebp], 4
	jb	SHORT $LL6@DoZqCal
	pop	edi
; Line 12303
	mov	BYTE PTR [esi+55508], bl
	pop	esi
; Line 12305
	xor	eax, eax
	pop	ebx
; Line 12306
	leave
	ret	0
_DoZqCal ENDP
_TEXT	ENDS
PUBLIC	_CpgcRunCadbTest
EXTRN	_StrobeToErrorMask:BYTE
EXTRN	_CadbMaGroupsDdr4:BYTE
EXTRN	_CadbMaGroupsDdr3:BYTE
; Function compile flags: /Ogspy
;	COMDAT _CpgcRunCadbTest
_TEXT	SEGMENT
_Cmd$ = -84						; size = 16
_BankAddress$ = -68					; size = 16
_RowColAddress$ = -52					; size = 16
tv1652 = -36						; size = 4
tv708 = -32						; size = 4
tv1788 = -28						; size = 4
tv1678 = -28						; size = 4
tv1607 = -24						; size = 4
tv1139 = -24						; size = 4
_CadbMaGroupPtr$ = -20					; size = 4
_ChannelBackup$ = -16					; size = 1
_i$ = -12						; size = 1
_FailureOnChannel$ = -8					; size = 2
_DevWidthIndex$ = -3					; size = 1
_MaxMaSignals$ = -2					; size = 1
_MaxMaGroups$ = -1					; size = 1
tv1702 = 8						; size = 4
_MrcData$ = 8						; size = 4
_DramType$ = 11						; size = 1
_Channel$ = 12						; size = 1
_Rank$ = 16						; size = 1
_CpgcRunCadbTest PROC					; COMDAT
; Line 12425
	push	ebp
	mov	ebp, esp
	sub	esp, 84					; 00000054H
; Line 12443
	mov	cl, BYTE PTR _Channel$[ebp]
	movzx	edx, BYTE PTR _Rank$[ebp]
	push	ebx
	mov	ebx, DWORD PTR _MrcData$[ebp]
	add	edx, ebx
	movzx	eax, cl
	movzx	eax, BYTE PTR [edx+eax*4+55454]
	push	esi
	push	edi
	push	18					; 00000012H
	cdq
	pop	esi
	idiv	esi
; Line 12447
	and	DWORD PTR _CadbMaGroupPtr$[ebp], 0
	mov	BYTE PTR _MaxMaGroups$[ebp], 0
	mov	BYTE PTR _MaxMaSignals$[ebp], 0
	mov	BYTE PTR _DramType$[ebp], 255		; 000000ffH
; Line 12452
	mov	BYTE PTR _ChannelBackup$[ebp], cl
	mov	BYTE PTR _DevWidthIndex$[ebp], al
; Line 12456
	cmp	cl, 2
	jae	SHORT $LN112@CpgcRunCad
$LL111@CpgcRunCad:
; Line 12457
	push	DWORD PTR _Rank$[ebp]
	push	DWORD PTR _Channel$[ebp]
	push	ebx
	call	_RunOnThisChannel
	add	esp, 12					; 0000000cH
	test	al, al
	jne	SHORT $LN72@CpgcRunCad
	inc	BYTE PTR _Channel$[ebp]
	cmp	BYTE PTR _Channel$[ebp], 2
	jb	SHORT $LL111@CpgcRunCad
; Line 12456
	jmp	SHORT $LN112@CpgcRunCad
$LN72@CpgcRunCad:
; Line 12461
	movzx	eax, BYTE PTR _Channel$[ebp]
	mov	al, BYTE PTR [eax+ebx+31272]
	cmp	al, 3
	ja	SHORT $LN71@CpgcRunCad
; Line 12463
	mov	BYTE PTR _MaxMaGroups$[ebp], 3
; Line 12464
	mov	BYTE PTR _MaxMaSignals$[ebp], 7
; Line 12465
	mov	BYTE PTR _DramType$[ebp], 3
	jmp	SHORT $LN112@CpgcRunCad
$LN71@CpgcRunCad:
; Line 12467
	cmp	al, 7
	jne	SHORT $LN69@CpgcRunCad
; Line 12469
	mov	BYTE PTR _MaxMaGroups$[ebp], 3
; Line 12470
	mov	BYTE PTR _MaxMaSignals$[ebp], al
; Line 12471
	mov	BYTE PTR _DramType$[ebp], al
; Line 12473
	jmp	SHORT $LN112@CpgcRunCad
$LN69@CpgcRunCad:
; Line 12474
	mov	BYTE PTR _MaxMaGroups$[ebp], 0
; Line 12475
	mov	BYTE PTR _MaxMaSignals$[ebp], 0
; Line 12476
	mov	DWORD PTR [ebx+65333], 35		; 00000023H
; Line 12477
	call	_MrcDeadLoop
$LN112@CpgcRunCad:
; Line 12490
	xor	eax, eax
	lea	edi, DWORD PTR _FailureOnChannel$[ebp]
	stosw
; Line 12492
	cmp	BYTE PTR _MaxMaGroups$[ebp], al
	jbe	$LN65@CpgcRunCad
	movzx	ecx, BYTE PTR _MaxMaGroups$[ebp]
	mov	DWORD PTR tv1678[ebp], eax
	mov	DWORD PTR tv1652[ebp], ecx
	jmp	SHORT $LN67@CpgcRunCad
$LL113@CpgcRunCad:
	mov	eax, DWORD PTR tv1678[ebp]
$LN67@CpgcRunCad:
; Line 12500
	xor	ecx, ecx
; Line 12515
	cmp	BYTE PTR _DramType$[ebp], 3
	push	7
	pop	edx
	mov	edi, 65535				; 0000ffffH
	mov	DWORD PTR _RowColAddress$[ebp+4], edi
	mov	DWORD PTR _RowColAddress$[ebp+8], ecx
	mov	DWORD PTR _BankAddress$[ebp+4], edx
	mov	DWORD PTR _BankAddress$[ebp+8], ecx
	mov	DWORD PTR _Cmd$[ebp+4], edx
	mov	DWORD PTR _Cmd$[ebp+8], ecx
	ja	SHORT $LN64@CpgcRunCad
; Line 12517
	lea	eax, DWORD PTR _CadbMaGroupsDdr3[eax]
	jmp	SHORT $LN121@CpgcRunCad
$LN64@CpgcRunCad:
; Line 12519
	cmp	BYTE PTR _DramType$[ebp], 7
	jne	SHORT $LN62@CpgcRunCad
; Line 12521
	lea	eax, DWORD PTR _CadbMaGroupsDdr4[eax]
$LN121@CpgcRunCad:
	mov	DWORD PTR _CadbMaGroupPtr$[ebp], eax
; Line 12523
	jmp	SHORT $LN61@CpgcRunCad
$LN62@CpgcRunCad:
; Line 12524
	mov	DWORD PTR [ebx+65333], 35		; 00000023H
; Line 12525
	call	_MrcDeadLoop
$LN61@CpgcRunCad:
; Line 12529
	cmp	BYTE PTR _MaxMaSignals$[ebp], 0
	jbe	$LN58@CpgcRunCad
	movzx	eax, BYTE PTR _MaxMaSignals$[ebp]
	mov	edx, DWORD PTR _CadbMaGroupPtr$[ebp]
	mov	DWORD PTR tv1139[ebp], edx
	mov	DWORD PTR tv708[ebp], eax
$LL60@CpgcRunCad:
; Line 12533
	cmp	BYTE PTR [edx], 255			; 000000ffH
	je	$LN59@CpgcRunCad
; Line 12537
	mov	al, BYTE PTR _ChannelBackup$[ebp]
	mov	BYTE PTR _Channel$[ebp], al
	cmp	al, 2
	jae	SHORT $LN54@CpgcRunCad
	movzx	eax, al
	lea	edi, DWORD PTR _FailureOnChannel$[ebp+eax]
	imul	eax, 4336				; 000010f0H
	lea	esi, DWORD PTR [eax+ebx+58406]
$LL114@CpgcRunCad:
; Line 12538
	push	DWORD PTR _Rank$[ebp]
	push	DWORD PTR _Channel$[ebp]
	push	ebx
	call	_RunOnThisChannel
	add	esp, 12					; 0000000cH
	test	al, al
	je	SHORT $LN55@CpgcRunCad
; Line 12541
	cmp	BYTE PTR [edi], 0
	je	SHORT $LN52@CpgcRunCad
; Line 12542
	and	DWORD PTR [esi], 0
; Line 12543
	jmp	SHORT $LN122@CpgcRunCad
$LN52@CpgcRunCad:
; Line 12544
	mov	DWORD PTR [esi], 1
$LN122@CpgcRunCad:
	and	DWORD PTR [esi+4], 0
$LN55@CpgcRunCad:
; Line 12537
	inc	BYTE PTR _Channel$[ebp]
	inc	edi
	add	esi, 4336				; 000010f0H
	cmp	BYTE PTR _Channel$[ebp], 2
	jb	SHORT $LL114@CpgcRunCad
	mov	edx, DWORD PTR tv1139[ebp]
	mov	edi, 65535				; 0000ffffH
$LN54@CpgcRunCad:
; Line 12549
	cmp	BYTE PTR _DramType$[ebp], 3
; Line 12559
	jbe	SHORT $LN125@CpgcRunCad
; Line 12560
	cmp	BYTE PTR _DramType$[ebp], 7
	jne	SHORT $LN59@CpgcRunCad
$LN125@CpgcRunCad:
; Line 12561
	mov	cl, BYTE PTR [edx]
	cmp	cl, 15					; 0000000fH
	ja	SHORT $LN42@CpgcRunCad
; Line 12562
	xor	eax, eax
	inc	eax
	shl	eax, cl
	mov	ecx, eax
	not	ecx
	and	DWORD PTR _RowColAddress$[ebp+4], ecx
; Line 12563
	or	DWORD PTR _RowColAddress$[ebp+8], eax
	jmp	SHORT $LN59@CpgcRunCad
$LN42@CpgcRunCad:
; Line 12564
	cmp	cl, 18					; 00000012H
	ja	SHORT $LN40@CpgcRunCad
; Line 12565
	movzx	ecx, cl
	xor	eax, eax
	sub	ecx, 16					; 00000010H
	inc	eax
	shl	eax, cl
	mov	ecx, eax
	not	ecx
	and	DWORD PTR _BankAddress$[ebp+4], ecx
; Line 12566
	or	DWORD PTR _BankAddress$[ebp+8], eax
	jmp	SHORT $LN59@CpgcRunCad
$LN40@CpgcRunCad:
; Line 12567
	cmp	cl, 21					; 00000015H
	ja	SHORT $LN59@CpgcRunCad
; Line 12568
	movzx	ecx, cl
	xor	eax, eax
	sub	ecx, 19					; 00000013H
	inc	eax
	shl	eax, cl
	mov	ecx, eax
	not	ecx
	and	DWORD PTR _Cmd$[ebp+4], ecx
; Line 12569
	or	DWORD PTR _Cmd$[ebp+8], eax
$LN59@CpgcRunCad:
	inc	edx
	dec	DWORD PTR tv708[ebp]
	mov	DWORD PTR tv1139[ebp], edx
	jne	$LL60@CpgcRunCad
$LN58@CpgcRunCad:
; Line 12573
	mov	al, BYTE PTR _ChannelBackup$[ebp]
	mov	BYTE PTR _Channel$[ebp], al
	cmp	al, 2
	jae	$LN35@CpgcRunCad
	movzx	eax, al
	imul	eax, 4336				; 000010f0H
	lea	esi, DWORD PTR [eax+ebx+58278]
$LL115@CpgcRunCad:
; Line 12574
	push	DWORD PTR _Rank$[ebp]
	push	DWORD PTR _Channel$[ebp]
	push	ebx
	call	_RunOnThisChannel
	add	esp, 12					; 0000000cH
	test	al, al
	je	SHORT $LN36@CpgcRunCad
; Line 12578
	mov	ecx, DWORD PTR _RowColAddress$[ebp+4]
; Line 12588
	mov	edx, DWORD PTR _Cmd$[ebp+4]
	xor	eax, eax
	mov	DWORD PTR [esi], ecx
	mov	ecx, DWORD PTR _RowColAddress$[ebp+8]
	mov	DWORD PTR [esi+8], ecx
	mov	ecx, DWORD PTR _BankAddress$[ebp+4]
	mov	DWORD PTR [esi+32], ecx
	mov	ecx, DWORD PTR _BankAddress$[ebp+8]
	push	7
	mov	DWORD PTR [esi+40], ecx
	pop	ecx
	mov	DWORD PTR [esi+64], edx
; Line 12589
	mov	edx, DWORD PTR _Cmd$[ebp+8]
	mov	DWORD PTR [esi-8], eax
	mov	DWORD PTR [esi-4], eax
	mov	DWORD PTR [esi+4], eax
	mov	DWORD PTR [esi+12], eax
	mov	DWORD PTR [esi+16], edi
	mov	DWORD PTR [esi+20], eax
	mov	DWORD PTR [esi+24], eax
	mov	DWORD PTR [esi+28], eax
	mov	DWORD PTR [esi+36], eax
	mov	DWORD PTR [esi+44], eax
	mov	DWORD PTR [esi+48], ecx
	mov	DWORD PTR [esi+52], eax
	mov	DWORD PTR [esi+56], eax
	mov	DWORD PTR [esi+60], eax
	mov	DWORD PTR [esi+68], eax
	mov	DWORD PTR [esi+72], edx
	mov	DWORD PTR [esi+76], eax
; Line 12590
	mov	DWORD PTR [esi+80], ecx
	mov	DWORD PTR [esi+84], eax
$LN36@CpgcRunCad:
	inc	BYTE PTR _Channel$[ebp]
	add	esi, 4336				; 000010f0H
	cmp	BYTE PTR _Channel$[ebp], 2
	jb	SHORT $LL115@CpgcRunCad
$LN35@CpgcRunCad:
; Line 12608
	mov	esi, DWORD PTR _ChannelBackup$[ebp]
	push	esi
	push	edi
	push	13365					; 00003435H
	push	ebx
	call	_MmrcExecuteTask
; Line 12612
	push	esi
	push	edi
	push	13608					; 00003528H
	push	ebx
	call	_MmrcExecuteTask
; Line 12616
	push	esi
	push	edi
	push	13625					; 00003539H
	push	ebx
	call	_MmrcExecuteTask
; Line 12620
	push	esi
	push	edi
	push	13638					; 00003546H
	push	ebx
	call	_MmrcExecuteTask
; Line 12622
	mov	al, BYTE PTR _ChannelBackup$[ebp]
	add	esp, 64					; 00000040H
	mov	BYTE PTR _Channel$[ebp], al
	cmp	al, 2
	jae	$LN66@CpgcRunCad
	movzx	eax, al
	lea	esi, DWORD PTR _FailureOnChannel$[ebp+eax]
	imul	eax, 542				; 0000021eH
	mov	DWORD PTR tv1607[ebp], eax
$LL24@CpgcRunCad:
; Line 12623
	push	DWORD PTR _Rank$[ebp]
	push	DWORD PTR _Channel$[ebp]
	push	ebx
	call	_RunOnThisChannel
	add	esp, 12					; 0000000cH
	test	al, al
	je	SHORT $LN23@CpgcRunCad
; Line 12630
	mov	BYTE PTR _i$[ebp], 0
	xor	edi, edi
$LL120@CpgcRunCad:
; Line 12631
	push	0
	push	0
	push	DWORD PTR _i$[ebp]
	push	DWORD PTR _Rank$[ebp]
	push	DWORD PTR _Channel$[ebp]
	push	ebx
	call	_IsStrobeValid
	add	esp, 24					; 00000018H
	test	al, al
	je	SHORT $LN16@CpgcRunCad
; Line 12639
	movzx	eax, BYTE PTR _DevWidthIndex$[ebp]
	imul	eax, 18					; 00000012H
	add	eax, edi
	imul	eax, 7
	movzx	ecx, WORD PTR _StrobeToErrorMask[eax]
	add	ecx, DWORD PTR tv1607[ebp]
	mov	eax, DWORD PTR _StrobeToErrorMask[eax+2]
	and	eax, DWORD PTR [ebx+ecx*8+55526]
	xor	edx, edx
	and	edx, DWORD PTR [ebx+ecx*8+55530]
	or	eax, edx
	jne	SHORT $LN12@CpgcRunCad
	cmp	BYTE PTR [esi], al
	je	SHORT $LN16@CpgcRunCad
$LN12@CpgcRunCad:
; Line 12640
	mov	BYTE PTR [esi], 1
$LN16@CpgcRunCad:
; Line 12630
	inc	BYTE PTR _i$[ebp]
	inc	edi
	cmp	BYTE PTR _i$[ebp], 18			; 00000012H
	jb	SHORT $LL120@CpgcRunCad
$LN23@CpgcRunCad:
; Line 12622
	inc	BYTE PTR _Channel$[ebp]
	add	DWORD PTR tv1607[ebp], 542		; 0000021eH
	inc	esi
	cmp	BYTE PTR _Channel$[ebp], 2
	jb	$LL24@CpgcRunCad
$LN66@CpgcRunCad:
; Line 12492
	add	DWORD PTR tv1678[ebp], 7
	dec	DWORD PTR tv1652[ebp]
	jne	$LL113@CpgcRunCad
$LN65@CpgcRunCad:
; Line 12671
	mov	al, BYTE PTR _ChannelBackup$[ebp]
	mov	BYTE PTR _Channel$[ebp], al
	cmp	al, 2
	jae	$LN8@CpgcRunCad
	movzx	eax, al
	mov	esi, eax
	lea	eax, DWORD PTR _FailureOnChannel$[ebp+eax]
	imul	esi, 542				; 0000021eH
	mov	DWORD PTR tv1788[ebp], eax
$LL116@CpgcRunCad:
; Line 12672
	push	DWORD PTR _Rank$[ebp]
	push	DWORD PTR _Channel$[ebp]
	push	ebx
	call	_RunOnThisChannel
	add	esp, 12					; 0000000cH
	test	al, al
	je	SHORT $LN9@CpgcRunCad
; Line 12675
	xor	edi, edi
	mov	BYTE PTR _i$[ebp], 0
	mov	DWORD PTR tv1702[ebp], edi
$LL6@CpgcRunCad:
; Line 12676
	push	edi
	push	edi
	push	DWORD PTR _i$[ebp]
	push	DWORD PTR _Rank$[ebp]
	push	DWORD PTR _Channel$[ebp]
	push	ebx
	call	_IsStrobeValid
	add	esp, 24					; 00000018H
	test	al, al
	je	SHORT $LN5@CpgcRunCad
; Line 12679
	mov	eax, DWORD PTR tv1788[ebp]
	cmp	BYTE PTR [eax], 0
; Line 12680
	movzx	eax, BYTE PTR _DevWidthIndex$[ebp]
	je	SHORT $LN2@CpgcRunCad
	imul	eax, 18					; 00000012H
	add	eax, DWORD PTR tv1702[ebp]
	imul	eax, 7
	movzx	eax, WORD PTR _StrobeToErrorMask[eax]
	add	eax, esi
	or	DWORD PTR [ebx+eax*8+55526], -1
; Line 12681
	jmp	SHORT $LN126@CpgcRunCad
$LN2@CpgcRunCad:
; Line 12682
	imul	eax, 18					; 00000012H
	add	eax, DWORD PTR tv1702[ebp]
	imul	eax, 7
	movzx	eax, WORD PTR _StrobeToErrorMask[eax]
	add	eax, esi
	mov	DWORD PTR [ebx+eax*8+55526], edi
$LN126@CpgcRunCad:
	mov	DWORD PTR [ebx+eax*8+55530], edi
$LN5@CpgcRunCad:
; Line 12675
	inc	BYTE PTR _i$[ebp]
	inc	DWORD PTR tv1702[ebp]
	cmp	BYTE PTR _i$[ebp], 18			; 00000012H
	jb	SHORT $LL6@CpgcRunCad
$LN9@CpgcRunCad:
; Line 12671
	inc	BYTE PTR _Channel$[ebp]
	inc	DWORD PTR tv1788[ebp]
	add	esi, 542				; 0000021eH
	cmp	BYTE PTR _Channel$[ebp], 2
	jb	$LL116@CpgcRunCad
$LN8@CpgcRunCad:
	pop	edi
	pop	esi
; Line 12688
	xor	eax, eax
	pop	ebx
; Line 12689
	leave
	ret	0
_CpgcRunCadbTest ENDP
_TEXT	ENDS
PUBLIC	_CpgcExecuteParallel
; Function compile flags: /Ogspy
;	COMDAT _CpgcExecuteParallel
_TEXT	SEGMENT
_MrcData$ = 8						; size = 4
_Channel$ = 12						; size = 1
_Rank$ = 16						; size = 1
_CpgcExecuteParallel PROC				; COMDAT
; Line 12707
	push	ebp
	mov	ebp, esp
	push	edi
; Line 12712
	mov	edi, DWORD PTR _MrcData$[ebp]
	movzx	eax, BYTE PTR [edi+65569]
	sub	eax, 5
	je	SHORT $LN1@CpgcExecut@2
	dec	eax
	je	SHORT $LN1@CpgcExecut@2
	dec	eax
	jne	SHORT $LN10@CpgcExecut@2
; Line 12728
	push	DWORD PTR _Rank$[ebp]
	push	DWORD PTR _Channel$[ebp]
	push	edi
	call	_CpgcRunCadbTest
	add	esp, 12					; 0000000cH
; Line 12729
	jmp	SHORT $LN1@CpgcExecut@2
$LN10@CpgcExecut@2:
	push	esi
; Line 12737
	push	DWORD PTR _Channel$[ebp]
	mov	esi, 65535				; 0000ffffH
	push	esi
	push	13608					; 00003528H
	push	edi
	call	_MmrcExecuteTask
; Line 12741
	push	DWORD PTR _Channel$[ebp]
	push	esi
	push	13625					; 00003539H
	push	edi
	call	_MmrcExecuteTask
; Line 12745
	push	DWORD PTR _Channel$[ebp]
	push	esi
	push	13638					; 00003546H
	push	edi
	call	_MmrcExecuteTask
	add	esp, 48					; 00000030H
	pop	esi
$LN1@CpgcExecut@2:
; Line 12748
	xor	eax, eax
	pop	edi
; Line 12749
	pop	ebp
	ret	0
_CpgcExecuteParallel ENDP
_TEXT	ENDS
PUBLIC	_MemInit
; Function compile flags: /Ogspy
;	COMDAT _MemInit
_TEXT	SEGMENT
tv188 = -48						; size = 8
tv930 = -40						; size = 8
tv350 = -32						; size = 8
tv906 = -24						; size = 4
tv896 = -20						; size = 4
_ChannelBackup$ = -16					; size = 1
tv831 = -12						; size = 4
tv753 = -8						; size = 4
tv533 = -8						; size = 4
_GlobalError$ = -1					; size = 1
_StrobeLane$ = 8					; size = 1
_MrcData$ = 8						; size = 4
_Channel$ = 12						; size = 1
tv1060 = 16						; size = 4
_MemInitFlag$ = 16					; size = 1
_Sequence$ = 19						; size = 1
_MemInit PROC						; COMDAT
; Line 12775
	push	ebp
	mov	ebp, esp
	sub	esp, 48					; 00000030H
; Line 12790
	mov	al, BYTE PTR _Channel$[ebp]
	push	ebx
	push	esi
	xor	esi, esi
	push	edi
; Line 12794
	mov	edi, DWORD PTR _MrcData$[ebp]
	xor	ebx, ebx
	inc	esi
	mov	BYTE PTR _GlobalError$[ebp], bl
	mov	BYTE PTR _ChannelBackup$[ebp], al
	cmp	BYTE PTR [edi+65493], bl
	je	SHORT $LN37@MemInit
; Line 12795
	mov	esi, DWORD PTR [edi+65494]
$LN37@MemInit:
; Line 12797
	movzx	eax, BYTE PTR _MemInitFlag$[ebp]
	sub	eax, ebx
	je	$LN34@MemInit
	dec	eax
; Line 12914
	jne	$LN64@MemInit
; Line 12823
	mov	BYTE PTR _Channel$[ebp], bl
$LL59@MemInit:
; Line 12824
	push	1
	push	DWORD PTR _Channel$[ebp]
	push	edi
	call	_CpgcSetup
	add	esp, 12					; 0000000cH
	inc	BYTE PTR _Channel$[ebp]
	cmp	BYTE PTR _Channel$[ebp], 2
	jb	SHORT $LL59@MemInit
; Line 12830
	cmp	esi, ebx
	jbe	$LN2@MemInit
	mov	DWORD PTR tv906[ebp], esi
$LL26@MemInit:
; Line 12831
	mov	DWORD PTR tv831[ebp], ebx
	mov	DWORD PTR tv896[ebp], 4
$LL60@MemInit:
; Line 12839
	mov	eax, DWORD PTR tv831[ebp]
	cdq
	mov	BYTE PTR _Sequence$[ebp], bl
	mov	DWORD PTR tv930[ebp], eax
	mov	DWORD PTR tv930[ebp+4], edx
$LL61@MemInit:
; Line 12864
	movzx	eax, BYTE PTR _Sequence$[ebp]
	cdq
	lea	ecx, DWORD PTR [edi+55511]
	mov	BYTE PTR _Channel$[ebp], bl
	mov	DWORD PTR tv350[ebp], eax
	mov	DWORD PTR tv350[ebp+4], edx
	mov	DWORD PTR tv533[ebp], ecx
	lea	esi, DWORD PTR [edi+58238]
	jmp	SHORT $LN17@MemInit
$LL62@MemInit:
; Line 12844
	mov	ecx, DWORD PTR tv533[ebp]
	mov	edx, DWORD PTR tv350[ebp+4]
	mov	eax, DWORD PTR tv350[ebp]
$LN17@MemInit:
; Line 12845
	cmp	BYTE PTR [ecx-26903], bl
	je	SHORT $LN42@MemInit
	mov	DWORD PTR tv188[ebp], 1
	cmp	BYTE PTR [ecx], bl
	jne	SHORT $LN43@MemInit
$LN42@MemInit:
	mov	DWORD PTR tv188[ebp], ebx
$LN43@MemInit:
	mov	ecx, DWORD PTR tv188[ebp]
; Line 12853
	push	DWORD PTR _Channel$[ebp]
	mov	DWORD PTR [esi+168], ecx
	xor	ecx, ecx
	mov	DWORD PTR [esi+172], ecx
	mov	ecx, DWORD PTR tv930[ebp+4]
	mov	DWORD PTR [esi], eax
	mov	DWORD PTR [esi-8], eax
	mov	eax, DWORD PTR tv930[ebp]
	push	edi
	mov	DWORD PTR [esi+4], edx
	mov	DWORD PTR [esi-4], edx
	mov	DWORD PTR [esi+208], eax
	mov	DWORD PTR [esi+212], ecx
	mov	DWORD PTR [esi+200], eax
	mov	DWORD PTR [esi+204], ecx
	call	_CpgcReconfig
	inc	BYTE PTR _Channel$[ebp]
	inc	DWORD PTR tv533[ebp]
	pop	ecx
	add	esi, 4336				; 000010f0H
	cmp	BYTE PTR _Channel$[ebp], 2
	pop	ecx
	jb	SHORT $LL62@MemInit
; Line 12862
	push	ebx
	push	DWORD PTR _ChannelBackup$[ebp]
	push	edi
	call	_CpgcExecuteParallel
	add	esp, 12					; 0000000cH
; Line 12864
	cmp	BYTE PTR _Sequence$[ebp], 1
	jne	SHORT $LN19@MemInit
; Line 12865
	mov	al, BYTE PTR _ChannelBackup$[ebp]
	mov	BYTE PTR _Channel$[ebp], al
	cmp	al, 2
	jae	SHORT $LN19@MemInit
	movzx	eax, al
	lea	ecx, DWORD PTR [eax+edi+30686]
	imul	eax, 4336				; 000010f0H
	mov	DWORD PTR tv753[ebp], ecx
	lea	esi, DWORD PTR [eax+edi+58374]
$LL13@MemInit:
; Line 12866
	mov	eax, DWORD PTR [esi+32]
	or	eax, DWORD PTR [esi+36]
	je	SHORT $LN12@MemInit
; Line 12873
	mov	ecx, DWORD PTR tv753[ebp]
	mov	eax, DWORD PTR [esi]
	cmp	BYTE PTR [ecx], bl
	je	SHORT $LN9@MemInit
; Line 12874
	mov	ecx, DWORD PTR [esi-8]
	shl	ecx, 8
	or	eax, ecx
$LN9@MemInit:
; Line 12885
	cmp	eax, ebx
	je	SHORT $LN12@MemInit
; Line 12890
	mov	BYTE PTR _StrobeLane$[ebp], bl
$LL7@MemInit:
; Line 12891
	push	ebx
	push	ebx
	push	DWORD PTR _StrobeLane$[ebp]
	push	ebx
	push	DWORD PTR _Channel$[ebp]
	push	edi
	call	_IsStrobeValid
	add	esp, 24					; 00000018H
	inc	BYTE PTR _StrobeLane$[ebp]
	cmp	BYTE PTR _StrobeLane$[ebp], 18		; 00000012H
	jb	SHORT $LL7@MemInit
; Line 12901
	mov	BYTE PTR _GlobalError$[ebp], 1
$LN12@MemInit:
; Line 12865
	inc	BYTE PTR _Channel$[ebp]
	inc	DWORD PTR tv753[ebp]
	add	esi, 4336				; 000010f0H
	cmp	BYTE PTR _Channel$[ebp], 2
	jb	SHORT $LL13@MemInit
$LN19@MemInit:
; Line 12839
	inc	BYTE PTR _Sequence$[ebp]
	cmp	BYTE PTR _Sequence$[ebp], 2
	jb	$LL61@MemInit
	inc	DWORD PTR tv831[ebp]
	dec	DWORD PTR tv896[ebp]
	jne	$LL60@MemInit
; Line 12830
	dec	DWORD PTR tv906[ebp]
	jne	$LL26@MemInit
; Line 12909
	cmp	BYTE PTR _GlobalError$[ebp], bl
	je	$LN2@MemInit
$LN64@MemInit:
; Line 12910
	or	eax, -1
	jmp	$LN38@MemInit
$LN34@MemInit:
; Line 12799
	lea	eax, DWORD PTR [edi+55511]
	mov	BYTE PTR _Channel$[ebp], bl
	mov	DWORD PTR tv1060[ebp], eax
	lea	esi, DWORD PTR [edi+58238]
	jmp	SHORT $LN33@MemInit
$LL63@MemInit:
	mov	eax, DWORD PTR tv1060[ebp]
$LN33@MemInit:
; Line 12800
	cmp	BYTE PTR [eax-26903], bl
	je	SHORT $LN40@MemInit
	cmp	BYTE PTR [eax], bl
	je	SHORT $LN40@MemInit
	xor	eax, eax
	inc	eax
	jmp	SHORT $LN41@MemInit
$LN40@MemInit:
	xor	eax, eax
$LN41@MemInit:
; Line 12808
	push	ebx
	push	DWORD PTR _Channel$[ebp]
	mov	DWORD PTR [esi+168], eax
	push	edi
	mov	DWORD PTR [esi+172], ebx
	mov	DWORD PTR [esi], ebx
	mov	DWORD PTR [esi+4], ebx
	mov	DWORD PTR [esi-8], ebx
	mov	DWORD PTR [esi-4], ebx
	mov	DWORD PTR [esi+208], ebx
	mov	DWORD PTR [esi+212], ebx
	mov	DWORD PTR [esi+200], ebx
	mov	DWORD PTR [esi+204], ebx
	call	_CpgcSetup
; Line 12809
	push	DWORD PTR _Channel$[ebp]
	push	edi
	call	_CpgcReconfig
; Line 12810
	push	DWORD PTR _Channel$[ebp]
	push	ebx
	push	15587					; 00003ce3H
	push	edi
	call	_MmrcExecuteTask
	add	esp, 36					; 00000024H
	inc	BYTE PTR _Channel$[ebp]
	inc	DWORD PTR tv1060[ebp]
	add	esi, 4336				; 000010f0H
	cmp	BYTE PTR _Channel$[ebp], 2
	jb	SHORT $LL63@MemInit
; Line 12819
	push	ebx
	push	DWORD PTR _ChannelBackup$[ebp]
	push	edi
	call	_CpgcExecuteParallel
	add	esp, 12					; 0000000cH
$LN2@MemInit:
; Line 12821
	xor	eax, eax
$LN38@MemInit:
	pop	edi
	pop	esi
	pop	ebx
; Line 12918
	leave
	ret	0
_MemInit ENDP
_TEXT	ENDS
PUBLIC	_MemoryTest
EXTRN	_SetExtDefault:PROC
; Function compile flags: /Ogspy
;	COMDAT _MemoryTest
_TEXT	SEGMENT
_MrcData$ = 8						; size = 4
_CapsuleStartIndex$ = 12				; size = 2
_StringIndex$ = 16					; size = 2
_Channel$ = 20						; size = 1
_MemoryTest PROC					; COMDAT
; Line 13097
	push	edi
; Line 13105
	push	DWORD PTR _Channel$[esp]
	mov	edi, DWORD PTR _MrcData$[esp+4]
	push	edi
	call	_SetExtDefault
; Line 13106
	cmp	BYTE PTR [edi+71021], 0
	pop	ecx
	pop	ecx
; Line 13108
	jne	SHORT $LN11@MemoryTest
; Line 13111
	cmp	BYTE PTR [edi+65478], 0
	je	SHORT $LN7@MemoryTest
	mov	al, BYTE PTR [edi+31274]
	cmp	al, 1
	je	SHORT $LN11@MemoryTest
	cmp	al, 16					; 00000010H
; Line 13116
	je	SHORT $LN11@MemoryTest
$LN7@MemoryTest:
; Line 13133
	push	1
	push	DWORD PTR _Channel$[esp+4]
	push	edi
	call	_MemInit
	add	esp, 12					; 0000000cH
; Line 13134
	test	eax, eax
	je	SHORT $LN3@MemoryTest
; Line 13136
	call	_EnableMrcBreakpoint
; Line 13137
	jmp	SHORT $LN2@MemoryTest
$LN3@MemoryTest:
; Line 13139
	call	_DisableMrcBreakpoint
$LN2@MemoryTest:
	push	ebx
	push	esi
; Line 13143
	push	0
	push	65535					; 0000ffffH
	lea	esi, DWORD PTR [edi+55509]
	mov	bl, BYTE PTR [esi]
	push	18223					; 0000472fH
	push	edi
	mov	BYTE PTR [esi], 1
	call	_MmrcExecuteTask
	add	esp, 16					; 00000010H
; Line 13144
	mov	BYTE PTR [esi], bl
	pop	esi
	pop	ebx
$LN11@MemoryTest:
; Line 13150
	xor	eax, eax
	pop	edi
; Line 13154
	ret	0
_MemoryTest ENDP
_TEXT	ENDS
PUBLIC	_IsCmdSignalDelay
; Function compile flags: /Ogspy
;	COMDAT _IsCmdSignalDelay
_TEXT	SEGMENT
_MrcData$ = 8						; size = 4
_Delay$ = 12						; size = 2
_IsCmdSignalDelay PROC					; COMDAT
; Line 13791
	push	ebp
	mov	ebp, esp
	push	ebx
	push	esi
	push	edi
; Line 13796
	push	57373					; 0000e01dH
	push	DWORD PTR _MrcData$[ebp]
	call	_GetOffsetIndex
	pop	ecx
	pop	ecx
	push	8
	movzx	esi, ax
; Line 13798
	xor	bl, bl
	pop	edi
$LL6@IsCmdSigna:
; Line 13800
	movzx	ax, bl
	add	ax, si
	movzx	eax, ax
	push	eax
	call	_GetSignalInfoIndex
	movzx	eax, ax
	imul	eax, 12					; 0000000cH
	add	bl, BYTE PTR _SignalInfoGenerated[eax+1]
	dec	edi
	pop	ecx
	jne	SHORT $LL6@IsCmdSigna
; Line 13803
	push	DWORD PTR _Delay$[ebp]
	push	DWORD PTR _MrcData$[ebp]
	call	_GetOffsetIndex
	pop	ecx
	pop	ecx
	cmp	ax, si
	jb	SHORT $LN1@IsCmdSigna
	movzx	ecx, bl
	movzx	edx, si
	movzx	eax, ax
	add	ecx, edx
	cmp	eax, ecx
	jl	SHORT $LN2@IsCmdSigna
$LN1@IsCmdSigna:
	mov	eax, 16384				; 00004000H
	cmp	WORD PTR _Delay$[ebp], ax
	je	SHORT $LN2@IsCmdSigna
	mov	eax, 57372				; 0000e01cH
	cmp	WORD PTR _Delay$[ebp], ax
	je	SHORT $LN2@IsCmdSigna
; Line 13807
	xor	al, al
	jmp	SHORT $LN7@IsCmdSigna
$LN2@IsCmdSigna:
; Line 13804
	mov	al, 1
$LN7@IsCmdSigna:
	pop	edi
	pop	esi
	pop	ebx
; Line 13808
	pop	ebp
	ret	0
_IsCmdSignalDelay ENDP
_TEXT	ENDS
PUBLIC	_IsCtlSignalDelay
; Function compile flags: /Ogspy
;	COMDAT _IsCtlSignalDelay
_TEXT	SEGMENT
_MrcData$ = 8						; size = 4
_Delay$ = 12						; size = 2
_IsCtlSignalDelay PROC					; COMDAT
; Line 13815
	push	ebp
	mov	ebp, esp
	push	ebx
	push	esi
	push	edi
; Line 13820
	push	57377					; 0000e021H
	push	DWORD PTR _MrcData$[ebp]
	call	_GetOffsetIndex
	pop	ecx
	pop	ecx
	push	3
	movzx	esi, ax
; Line 13822
	xor	bl, bl
	pop	edi
$LL6@IsCtlSigna:
; Line 13824
	movzx	ax, bl
	add	ax, si
	movzx	eax, ax
	push	eax
	call	_GetSignalInfoIndex
	movzx	eax, ax
	imul	eax, 12					; 0000000cH
	add	bl, BYTE PTR _SignalInfoGenerated[eax+1]
	dec	edi
	pop	ecx
	jne	SHORT $LL6@IsCtlSigna
; Line 13827
	push	DWORD PTR _Delay$[ebp]
	push	DWORD PTR _MrcData$[ebp]
	call	_GetOffsetIndex
	pop	ecx
	pop	ecx
	cmp	ax, si
	jb	SHORT $LN1@IsCtlSigna
	movzx	ecx, bl
	movzx	edx, si
	movzx	eax, ax
	add	ecx, edx
	cmp	eax, ecx
	jl	SHORT $LN2@IsCtlSigna
$LN1@IsCtlSigna:
	mov	eax, 16385				; 00004001H
	cmp	WORD PTR _Delay$[ebp], ax
	je	SHORT $LN2@IsCtlSigna
	mov	eax, 57376				; 0000e020H
	cmp	WORD PTR _Delay$[ebp], ax
	je	SHORT $LN2@IsCtlSigna
; Line 13831
	xor	al, al
	jmp	SHORT $LN7@IsCtlSigna
$LN2@IsCtlSigna:
; Line 13828
	mov	al, 1
$LN7@IsCtlSigna:
	pop	edi
	pop	esi
	pop	ebx
; Line 13832
	pop	ebp
	ret	0
_IsCtlSignalDelay ENDP
_TEXT	ENDS
PUBLIC	_PrintFooter1DSweep
; Function compile flags: /Ogspy
;	COMDAT _PrintFooter1DSweep
_TEXT	SEGMENT
_MrcData$ = 8						; size = 4
_Channel$ = 12						; size = 1
_Rank$ = 16						; size = 1
_Dim1Index$ = 20					; size = 2
_Dim1Knobs$ = 24					; size = 1
_Results$ = 28						; size = 4
_PerBitSweep$ = 32					; size = 1
_PrintFooter1DSweep PROC				; COMDAT
; Line 13845
	push	ebp
	mov	ebp, esp
; Line 13854
	jmp	SHORT $LN28@PrintFoote
$LL17@PrintFoote:
; Line 13855
	push	DWORD PTR _Rank$[ebp]
	push	DWORD PTR _Channel$[ebp]
	push	DWORD PTR _MrcData$[ebp]
	call	_RunOnThisChannel
	add	esp, 12					; 0000000cH
	test	al, al
	je	SHORT $LN16@PrintFoote
; Line 13858
	push	DWORD PTR _Dim1Index$[ebp]
	push	DWORD PTR _MrcData$[ebp]
	call	_IsCmdSignalDelay
	pop	ecx
	pop	ecx
	test	al, al
	jne	SHORT $LN16@PrintFoote
; Line 13860
	cmp	BYTE PTR _Dim1Knobs$[ebp], al
	jbe	SHORT $LN16@PrintFoote
	movzx	eax, BYTE PTR _Dim1Knobs$[ebp]
$LL12@PrintFoote:
; Line 13861
	xor	cl, cl
$LL8@PrintFoote:
	inc	cl
	cmp	cl, 18					; 00000012H
	jb	SHORT $LL8@PrintFoote
; Line 13860
	dec	eax
	jne	SHORT $LL12@PrintFoote
$LN16@PrintFoote:
; Line 13854
	inc	BYTE PTR _Channel$[ebp]
$LN28@PrintFoote:
	cmp	BYTE PTR _Channel$[ebp], 2
	jb	SHORT $LL17@PrintFoote
; Line 13883
	xor	eax, eax
; Line 13884
	pop	ebp
	ret	0
_PrintFooter1DSweep ENDP
_TEXT	ENDS
PUBLIC	??_C@_0P@HLPDKILJ@BuildComposite?$AA@		; `string'
PUBLIC	_BuildComposite
EXTRN	_CheckPerBitSupport:PROC
;	COMDAT ??_C@_0P@HLPDKILJ@BuildComposite?$AA@
CONST	SEGMENT
??_C@_0P@HLPDKILJ@BuildComposite?$AA@ DB 'BuildComposite', 00H ; `string'
; Function compile flags: /Ogspy
CONST	ENDS
;	COMDAT _BuildComposite
_TEXT	SEGMENT
_CompositeCount$ = -80					; size = 10
tv2693 = -68						; size = 4
tv2675 = -64						; size = 4
tv2664 = -60						; size = 4
tv1005 = -56						; size = 4
tv2484 = -52						; size = 4
tv2670 = -48						; size = 4
_Edge$ = -44						; size = 14
tv970 = -28						; size = 4
tv360 = -24						; size = 4
_IndBit$ = -20						; size = 1
tv1356 = -16						; size = 4
_IndStb$ = -12						; size = 1
tv1354 = -8						; size = 4
_ShrRnk$ = -4						; size = 1
_FirstAvailableRank$ = 0				; size = 2
_ShrChn$ = 4						; size = 1
_ShrStb$ = 8						; size = 1
_IndKnb$ = 12						; size = 1
tv2255 = 16						; size = 4
tv2396 = 20						; size = 4
_IndTiming$ = 24					; size = 1
tv2299 = 28						; size = 4
tv2475 = 32						; size = 4
tv2458 = 36						; size = 4
tv1029 = 42						; size = 1
tv1054 = 43						; size = 1
_IndChn$ = 44						; size = 1
_IndRnk$ = 48						; size = 1
_ShrStbRange$ = 52					; size = 2
_ShrKnbRange$ = 56					; size = 2
_ShrChnRange$ = 60					; size = 2
_ShrRnkRange$ = 64					; size = 2
_ShrBitRange$ = 68					; size = 2
_ShrTimingRange$ = 72					; size = 2
_Loop$ = 79						; size = 1
_ShrKnb$ = 80						; size = 1
_ShrBit$ = 81						; size = 1
_MaxBits$ = 82						; size = 1
_CountLoop$ = 83					; size = 1
_MrcData$ = 92						; size = 4
_SharedFlag$ = 96					; size = 2
_CompositeFlag$ = 100					; size = 1
_NumberCounts$ = 104					; size = 1
_MaxCount$ = 108					; size = 1
_Count$ = 112						; size = 4
_Results$ = 116						; size = 4
_Param$ = 120						; size = 4
_TestFunction$ = 124					; size = 4
_BuildComposite PROC					; COMDAT
; Line 14244
	push	ebp
	lea	ebp, DWORD PTR [esp-84]
	sub	esp, 164				; 000000a4H
	push	ebx
	push	esi
	push	edi
; Line 14277
	or	eax, -1
	lea	edi, DWORD PTR _FirstAvailableRank$[ebp]
	stosw
; Line 14278
	mov	edi, DWORD PTR _MrcData$[ebp]
	mov	BYTE PTR _MaxBits$[ebp], 0
	mov	BYTE PTR _IndChn$[ebp], 0
	lea	esi, DWORD PTR _FirstAvailableRank$[ebp]
$LL106@BuildCompo:
; Line 14279
	mov	BYTE PTR _IndRnk$[ebp], 0
$LL103@BuildCompo:
; Line 14280
	push	DWORD PTR _IndRnk$[ebp]
	push	DWORD PTR _IndChn$[ebp]
	push	edi
	call	_RunOnThisChannel
	add	esp, 12					; 0000000cH
	test	al, al
	je	SHORT $LN102@BuildCompo
; Line 14281
	cmp	BYTE PTR [esi], 255			; 000000ffH
	jne	SHORT $LN102@BuildCompo
; Line 14282
	mov	al, BYTE PTR _IndRnk$[ebp]
	mov	BYTE PTR [esi], al
$LN102@BuildCompo:
	inc	BYTE PTR _IndRnk$[ebp]
	cmp	BYTE PTR _IndRnk$[ebp], 4
	jb	SHORT $LL103@BuildCompo
	inc	BYTE PTR _IndChn$[ebp]
	inc	esi
	cmp	BYTE PTR _IndChn$[ebp], 2
	jb	SHORT $LL106@BuildCompo
; Line 14290
	mov	eax, DWORD PTR _SharedFlag$[ebp]
	and	eax, 32					; 00000020H
	mov	BYTE PTR _IndChn$[ebp], 0
; Line 14368
	mov	DWORD PTR tv2693[ebp], eax
$LL178@BuildCompo:
; Line 14291
	cmp	WORD PTR tv2693[ebp], 32		; 00000020H
	jne	SHORT $LN95@BuildCompo
; Line 14292
	mov	BYTE PTR _ShrChnRange$[ebp], 0
; Line 14293
	mov	BYTE PTR _ShrChnRange$[ebp+1], 2
; Line 14294
	jmp	SHORT $LN94@BuildCompo
$LN95@BuildCompo:
; Line 14295
	mov	al, BYTE PTR _IndChn$[ebp]
	mov	BYTE PTR _ShrChnRange$[ebp], al
; Line 14296
	inc	al
	mov	BYTE PTR _ShrChnRange$[ebp+1], al
$LN94@BuildCompo:
; Line 14298
	mov	BYTE PTR _IndRnk$[ebp], 0
$LL93@BuildCompo:
; Line 14299
	push	DWORD PTR _IndRnk$[ebp]
	push	DWORD PTR _IndChn$[ebp]
	push	edi
	call	_RunOnThisChannel
	add	esp, 12					; 0000000cH
	test	al, al
	je	$LN92@BuildCompo
; Line 14301
	test	BYTE PTR _SharedFlag$[ebp], 1
	je	SHORT $LN89@BuildCompo
; Line 14302
	movzx	eax, BYTE PTR _IndChn$[ebp]
	mov	al, BYTE PTR _FirstAvailableRank$[ebp+eax]
	cmp	BYTE PTR _IndRnk$[ebp], al
	ja	$LN92@BuildCompo
	cmp	al, 255					; 000000ffH
	je	$LN92@BuildCompo
; Line 14303
	mov	BYTE PTR _ShrRnkRange$[ebp], 0
; Line 14304
	mov	BYTE PTR _ShrRnkRange$[ebp+1], 4
; Line 14305
	jmp	SHORT $LN86@BuildCompo
$LN89@BuildCompo:
; Line 14306
	mov	al, BYTE PTR _IndRnk$[ebp]
	mov	BYTE PTR _ShrRnkRange$[ebp], al
; Line 14307
	inc	al
	mov	BYTE PTR _ShrRnkRange$[ebp+1], al
$LN86@BuildCompo:
; Line 14309
	cmp	BYTE PTR [edi+55393], 0
	mov	BYTE PTR _IndTiming$[ebp], 0
	jbe	$LN92@BuildCompo
	mov	eax, DWORD PTR _SharedFlag$[ebp]
	and	eax, 512				; 00000200H
; Line 14368
	mov	DWORD PTR tv2675[ebp], eax
$LL85@BuildCompo:
	mov	eax, 512				; 00000200H
	cmp	WORD PTR tv2675[ebp], ax
	jne	SHORT $LN82@BuildCompo
; Line 14311
	cmp	BYTE PTR _IndTiming$[ebp], 0
	ja	$LN84@BuildCompo
; Line 14313
	mov	al, BYTE PTR [edi+55393]
	mov	BYTE PTR _ShrTimingRange$[ebp], 0
; Line 14314
	jmp	SHORT $LN179@BuildCompo
$LN82@BuildCompo:
; Line 14315
	mov	al, BYTE PTR _IndTiming$[ebp]
	mov	BYTE PTR _ShrTimingRange$[ebp], al
; Line 14316
	inc	al
$LN179@BuildCompo:
	mov	BYTE PTR _ShrTimingRange$[ebp+1], al
; Line 14318
	mov	eax, DWORD PTR _SharedFlag$[ebp]
	and	eax, 2
	mov	BYTE PTR _IndKnb$[ebp], 0
; Line 14368
	mov	DWORD PTR tv2670[ebp], eax
$LL79@BuildCompo:
; Line 14319
	cmp	WORD PTR tv2670[ebp], 2
	jne	SHORT $LN76@BuildCompo
; Line 14320
	cmp	BYTE PTR _IndKnb$[ebp], 0
	ja	$LN78@BuildCompo
; Line 14321
	mov	BYTE PTR _ShrKnbRange$[ebp], 0
; Line 14322
	mov	BYTE PTR _ShrKnbRange$[ebp+1], 1
; Line 14323
	jmp	SHORT $LN74@BuildCompo
$LN76@BuildCompo:
; Line 14324
	mov	al, BYTE PTR _IndKnb$[ebp]
	mov	BYTE PTR _ShrKnbRange$[ebp], al
; Line 14325
	inc	al
	mov	BYTE PTR _ShrKnbRange$[ebp+1], al
$LN74@BuildCompo:
; Line 14327
	movzx	ecx, BYTE PTR _IndRnk$[ebp]
	movzx	eax, BYTE PTR _IndChn$[ebp]
	add	ecx, edi
	xor	bl, bl
	lea	esi, DWORD PTR [ecx+eax*4]
	mov	BYTE PTR _IndStb$[ebp], bl
	mov	DWORD PTR tv970[ebp], esi
	cmp	BYTE PTR [esi+55454], bl
	jbe	$LN78@BuildCompo
$LL73@BuildCompo:
; Line 14328
	lea	eax, DWORD PTR _MaxBits$[ebp]
	push	eax
	push	1
	push	DWORD PTR _IndStb$[ebp]
	push	DWORD PTR _IndRnk$[ebp]
	push	DWORD PTR _IndChn$[ebp]
	push	edi
	call	_IsStrobeValid
	add	esp, 24					; 00000018H
	test	al, al
	je	$LN72@BuildCompo
; Line 14331
	mov	al, BYTE PTR _MaxBits$[ebp]
	cmp	al, BYTE PTR [esi+55462]
	jbe	SHORT $LN113@BuildCompo
; Line 14332
	mov	DWORD PTR [edi+65333], 40		; 00000028H
	call	_MrcDeadLoop
$LN113@BuildCompo:
; Line 14334
	test	BYTE PTR _SharedFlag$[ebp], 4
	je	SHORT $LN68@BuildCompo
; Line 14335
	test	bl, bl
	ja	$LN72@BuildCompo
; Line 14337
	mov	al, BYTE PTR [esi+55454]
	mov	BYTE PTR _ShrStbRange$[ebp], 0
; Line 14338
	jmp	SHORT $LN180@BuildCompo
$LN68@BuildCompo:
; Line 14340
	mov	al, bl
	mov	BYTE PTR _ShrStbRange$[ebp], bl
	inc	al
$LN180@BuildCompo:
	mov	BYTE PTR _ShrStbRange$[ebp+1], al
; Line 14342
	xor	al, al
	mov	BYTE PTR _IndBit$[ebp], al
	cmp	BYTE PTR _MaxBits$[ebp], al
	jbe	$LN72@BuildCompo
	mov	ecx, DWORD PTR _SharedFlag$[ebp]
	and	ecx, 8
; Line 14368
	mov	DWORD PTR tv2664[ebp], ecx
$LL177@BuildCompo:
; Line 14343
	cmp	WORD PTR tv2664[ebp], 8
	jne	SHORT $LN62@BuildCompo
; Line 14344
	test	al, al
	ja	$LN64@BuildCompo
; Line 14346
	mov	al, BYTE PTR _MaxBits$[ebp]
	mov	BYTE PTR _ShrBitRange$[ebp], 0
; Line 14347
	jmp	SHORT $LN181@BuildCompo
$LN62@BuildCompo:
; Line 14348
	mov	BYTE PTR _ShrBitRange$[ebp], al
; Line 14349
	inc	al
$LN181@BuildCompo:
	mov	BYTE PTR _ShrBitRange$[ebp+1], al
; Line 14354
	xor	eax, eax
; Line 14359
	test	BYTE PTR _CompositeFlag$[ebp], 3
	mov	WORD PTR _Edge$[ebp], ax
	mov	eax, 65535				; 0000ffffH
	mov	WORD PTR _Edge$[ebp+2], ax
	je	$LN52@BuildCompo
; Line 14360
	xor	bl, bl
	cmp	BYTE PTR _NumberCounts$[ebp], bl
	jbe	SHORT $LN56@BuildCompo
	movzx	ecx, BYTE PTR _NumberCounts$[ebp]
	movzx	edx, ax
	mov	eax, edx
	shl	edx, 16					; 00000010H
	or	eax, edx
	shr	ecx, 1
	lea	edi, DWORD PTR _CompositeCount$[ebp]
	rep stosd
	adc	ecx, ecx
	rep stosw
$LL58@BuildCompo:
; Line 14362
	cmp	bl, 5
	jb	SHORT $LN115@BuildCompo
; Line 14363
	mov	eax, DWORD PTR _MrcData$[ebp]
	mov	DWORD PTR [eax+65333], 40		; 00000028H
	call	_MrcDeadLoop
$LN115@BuildCompo:
	inc	bl
	cmp	bl, BYTE PTR _NumberCounts$[ebp]
	jb	SHORT $LL58@BuildCompo
$LN56@BuildCompo:
; Line 14367
	mov	al, BYTE PTR _CompositeFlag$[ebp]
	and	al, 4
	movzx	ax, al
	shl	ax, 2
	movzx	eax, ax
; Line 14368
	movzx	eax, ax
	inc	eax
	mov	BYTE PTR _Loop$[ebp], 0
	mov	DWORD PTR tv1005[ebp], eax
	test	eax, eax
	jle	$LN52@BuildCompo
$LL54@BuildCompo:
; Line 14369
	mov	al, BYTE PTR _ShrChnRange$[ebp]
	mov	BYTE PTR _ShrChn$[ebp], al
	cmp	al, BYTE PTR _ShrChnRange$[ebp+1]
	jae	$LN53@BuildCompo
	movzx	eax, al
	mov	DWORD PTR tv2475[ebp], eax
$LL51@BuildCompo:
; Line 14370
	mov	al, BYTE PTR _ShrRnkRange$[ebp]
	mov	BYTE PTR _ShrRnk$[ebp], al
	cmp	al, BYTE PTR _ShrRnkRange$[ebp+1]
	jae	$LN50@BuildCompo
	movzx	eax, al
	mov	DWORD PTR tv2458[ebp], eax
$LL48@BuildCompo:
; Line 14371
	push	DWORD PTR _ShrRnk$[ebp]
	push	DWORD PTR _ShrChn$[ebp]
	push	DWORD PTR _MrcData$[ebp]
	call	_RunOnThisChannel
	add	esp, 12					; 0000000cH
	test	al, al
	je	$LN47@BuildCompo
; Line 14372
	mov	al, BYTE PTR _ShrTimingRange$[ebp+1]
	cmp	BYTE PTR _ShrTimingRange$[ebp], al
	jae	$LN47@BuildCompo
	movzx	eax, BYTE PTR _ShrTimingRange$[ebp]
	add	eax, eax
	mov	DWORD PTR tv2396[ebp], eax
	mov	al, BYTE PTR _ShrTimingRange$[ebp+1]
	sub	al, BYTE PTR _ShrTimingRange$[ebp]
	movzx	eax, al
	mov	DWORD PTR tv360[ebp], eax
$LL44@BuildCompo:
; Line 14373
	mov	al, BYTE PTR _ShrKnbRange$[ebp]
	mov	BYTE PTR _ShrKnb$[ebp], al
	cmp	al, BYTE PTR _ShrKnbRange$[ebp+1]
	jae	$LN43@BuildCompo
	movzx	eax, al
	mov	DWORD PTR tv2299[ebp], eax
$LL41@BuildCompo:
; Line 14374
	cmp	BYTE PTR _ShrKnb$[ebp], 1
	jb	SHORT $LN117@BuildCompo
; Line 14375
	mov	eax, DWORD PTR _MrcData$[ebp]
	mov	DWORD PTR [eax+65333], 40		; 00000028H
	call	_MrcDeadLoop
$LN117@BuildCompo:
; Line 14377
	mov	al, BYTE PTR _ShrStbRange$[ebp]
	mov	BYTE PTR _ShrStb$[ebp], al
	cmp	al, BYTE PTR _ShrStbRange$[ebp+1]
	jae	$LN40@BuildCompo
	mov	ecx, DWORD PTR tv2475[ebp]
	mov	eax, DWORD PTR tv2458[ebp]
	lea	eax, DWORD PTR [eax+ecx*4]
	mov	ecx, DWORD PTR _MrcData$[ebp]
	lea	eax, DWORD PTR [eax+ecx+55454]
	mov	DWORD PTR tv2484[ebp], eax
	movzx	eax, BYTE PTR _ShrStbRange$[ebp]
	mov	DWORD PTR tv2255[ebp], eax
$LL37@BuildCompo:
; Line 14378
	mov	al, BYTE PTR _ShrStb$[ebp]
	mov	ecx, DWORD PTR tv2484[ebp]
	cmp	al, BYTE PTR [ecx]
	jbe	SHORT $LN172@BuildCompo
; Line 14379
	mov	eax, DWORD PTR _MrcData$[ebp]
	mov	DWORD PTR [eax+65333], 40		; 00000028H
	call	_MrcDeadLoop
$LN172@BuildCompo:
; Line 14381
	push	0
	push	0
	push	DWORD PTR _ShrStb$[ebp]
	push	DWORD PTR _ShrRnk$[ebp]
	push	DWORD PTR _ShrChn$[ebp]
	push	DWORD PTR _MrcData$[ebp]
	call	_IsStrobeValid
	add	esp, 24					; 00000018H
	test	al, al
	je	$LN36@BuildCompo
; Line 14384
	mov	al, BYTE PTR _ShrBitRange$[ebp]
	mov	BYTE PTR _ShrBit$[ebp], al
	cmp	al, BYTE PTR _ShrBitRange$[ebp+1]
	jae	$LN36@BuildCompo
	mov	al, BYTE PTR _CompositeFlag$[ebp]
	movzx	edi, BYTE PTR _ShrBitRange$[ebp]
	and	al, 2
	mov	BYTE PTR tv1029[ebp], al
	mov	al, BYTE PTR _CompositeFlag$[ebp]
	and	al, 1
	mov	BYTE PTR tv1054[ebp], al
$LL32@BuildCompo:
; Line 14385
	cmp	BYTE PTR _ShrBit$[ebp], 0
	jbe	SHORT $LN173@BuildCompo
; Line 14386
	push	14386					; 00003832H
	push	OFFSET ??_C@_0P@HLPDKILJ@BuildComposite?$AA@
	push	DWORD PTR _MrcData$[ebp]
	call	_CheckPerBitSupport
	add	esp, 12					; 0000000cH
$LN173@BuildCompo:
; Line 14388
	cmp	BYTE PTR _ShrBit$[ebp], 7
	jbe	SHORT $LN121@BuildCompo
; Line 14389
	mov	eax, DWORD PTR _MrcData$[ebp]
	mov	DWORD PTR [eax+65333], 40		; 00000028H
	call	_MrcDeadLoop
$LN121@BuildCompo:
; Line 14395
	cmp	BYTE PTR _Loop$[ebp], 0
	jne	$LN27@BuildCompo
; Line 14399
	cmp	BYTE PTR tv1029[ebp], 2
	jne	SHORT $LN23@BuildCompo
; Line 14400
	mov	ecx, DWORD PTR tv2396[ebp]
	mov	eax, DWORD PTR tv2475[ebp]
	add	eax, ecx
	mov	ecx, DWORD PTR tv2458[ebp]
	lea	eax, DWORD PTR [ecx+eax*4]
	add	eax, DWORD PTR tv2299[ebp]
	mov	ecx, DWORD PTR _Results$[ebp]
	imul	eax, 18					; 00000012H
	add	eax, DWORD PTR tv2255[ebp]
	lea	eax, DWORD PTR [edi+eax*8]
	lea	eax, DWORD PTR [ecx+eax*4]
	movzx	ecx, WORD PTR [eax]
	movzx	eax, WORD PTR [eax+2]
	cmp	cx, ax
	ja	SHORT $LN23@BuildCompo
; Line 14401
	cmp	WORD PTR _Edge$[ebp], cx
	jae	SHORT $LN24@BuildCompo
; Line 14402
	mov	WORD PTR _Edge$[ebp], cx
$LN24@BuildCompo:
; Line 14403
	cmp	WORD PTR _Edge$[ebp+2], ax
	jbe	SHORT $LN23@BuildCompo
; Line 14404
	mov	WORD PTR _Edge$[ebp+2], ax
$LN23@BuildCompo:
; Line 14410
	cmp	BYTE PTR tv1054[ebp], 1
	jne	$LN31@BuildCompo
; Line 14411
	cmp	BYTE PTR _NumberCounts$[ebp], 0
	mov	BYTE PTR _CountLoop$[ebp], 0
	jbe	$LN31@BuildCompo
	mov	ecx, DWORD PTR tv2396[ebp]
	mov	eax, DWORD PTR tv2475[ebp]
	add	eax, ecx
	mov	ecx, DWORD PTR tv2458[ebp]
	lea	eax, DWORD PTR [ecx+eax*4]
	add	eax, DWORD PTR tv2299[ebp]
	mov	DWORD PTR tv1356[ebp], 2
	imul	eax, 18					; 00000012H
	add	eax, DWORD PTR tv2255[ebp]
	lea	esi, DWORD PTR [edi+eax*8]
	add	esi, DWORD PTR _Count$[ebp]
; Line 14420
	and	DWORD PTR tv1354[ebp], 0
$LL175@BuildCompo:
; Line 14412
	cmp	BYTE PTR _CountLoop$[ebp], 5
	jb	SHORT $LN123@BuildCompo
; Line 14413
	mov	eax, DWORD PTR _MrcData$[ebp]
	mov	DWORD PTR [eax+65333], 40		; 00000028H
	call	_MrcDeadLoop
$LN123@BuildCompo:
; Line 14415
	movzx	ax, BYTE PTR [esi]
	mov	ebx, DWORD PTR tv1354[ebp]
	lea	ebx, DWORD PTR _CompositeCount$[ebp+ebx]
	cmp	ax, WORD PTR [ebx]
	jae	SHORT $LN20@BuildCompo
; Line 14417
	cmp	DWORD PTR tv1356[ebp], 7
	mov	WORD PTR [ebx], ax
	jl	SHORT $LN125@BuildCompo
; Line 14418
	mov	eax, DWORD PTR _MrcData$[ebp]
	mov	DWORD PTR [eax+65333], 40		; 00000028H
	call	_MrcDeadLoop
$LN125@BuildCompo:
; Line 14420
	mov	ax, WORD PTR [ebx]
	mov	ecx, DWORD PTR tv1354[ebp]
	mov	WORD PTR _Edge$[ebp+ecx+4], ax
$LN20@BuildCompo:
	inc	BYTE PTR _CountLoop$[ebp]
	mov	al, BYTE PTR _CountLoop$[ebp]
	inc	DWORD PTR tv1356[ebp]
	add	DWORD PTR tv1354[ebp], 2
	add	esi, 2304				; 00000900H
	cmp	al, BYTE PTR _NumberCounts$[ebp]
	jb	SHORT $LL175@BuildCompo
; Line 14424
	jmp	$LN31@BuildCompo
$LN27@BuildCompo:
; Line 14429
	cmp	BYTE PTR tv1029[ebp], 2
	jne	SHORT $LN14@BuildCompo
; Line 14430
	mov	ecx, DWORD PTR tv2396[ebp]
	mov	eax, DWORD PTR tv2475[ebp]
	add	eax, ecx
	mov	ecx, DWORD PTR tv2458[ebp]
	lea	eax, DWORD PTR [ecx+eax*4]
	add	eax, DWORD PTR tv2299[ebp]
	mov	ecx, DWORD PTR _Results$[ebp]
	imul	eax, 18					; 00000012H
	add	eax, DWORD PTR tv2255[ebp]
	lea	eax, DWORD PTR [edi+eax*8]
	lea	eax, DWORD PTR [ecx+eax*4]
	mov	cx, WORD PTR _Edge$[ebp]
	mov	WORD PTR [eax], cx
; Line 14431
	mov	cx, WORD PTR _Edge$[ebp+2]
	mov	WORD PTR [eax+2], cx
$LN14@BuildCompo:
; Line 14437
	cmp	BYTE PTR tv1054[ebp], 1
	jne	SHORT $LN31@BuildCompo
; Line 14438
	cmp	BYTE PTR _NumberCounts$[ebp], 0
	mov	BYTE PTR _CountLoop$[ebp], 0
	jbe	SHORT $LN31@BuildCompo
	mov	ecx, DWORD PTR tv2396[ebp]
	mov	eax, DWORD PTR tv2475[ebp]
	add	eax, ecx
	mov	ecx, DWORD PTR tv2458[ebp]
	lea	eax, DWORD PTR [ecx+eax*4]
	add	eax, DWORD PTR tv2299[ebp]
	lea	ebx, DWORD PTR _CompositeCount$[ebp]
	imul	eax, 18					; 00000012H
	add	eax, DWORD PTR tv2255[ebp]
	lea	esi, DWORD PTR [edi+eax*8]
	add	esi, DWORD PTR _Count$[ebp]
$LL12@BuildCompo:
; Line 14439
	cmp	BYTE PTR _CountLoop$[ebp], 5
	jb	SHORT $LN127@BuildCompo
; Line 14440
	mov	eax, DWORD PTR _MrcData$[ebp]
	mov	DWORD PTR [eax+65333], 40		; 00000028H
	call	_MrcDeadLoop
$LN127@BuildCompo:
; Line 14442
	movzx	ax, BYTE PTR _MaxCount$[ebp]
	cmp	WORD PTR [ebx], ax
	jae	SHORT $LN8@BuildCompo
; Line 14443
	xor	eax, eax
	mov	WORD PTR [ebx], ax
$LN8@BuildCompo:
; Line 14445
	mov	al, BYTE PTR [ebx]
	inc	BYTE PTR _CountLoop$[ebp]
	mov	BYTE PTR [esi], al
	mov	al, BYTE PTR _CountLoop$[ebp]
	add	esi, 2304				; 00000900H
	inc	ebx
	inc	ebx
	cmp	al, BYTE PTR _NumberCounts$[ebp]
	jb	SHORT $LL12@BuildCompo
$LN31@BuildCompo:
; Line 14384
	inc	BYTE PTR _ShrBit$[ebp]
	mov	al, BYTE PTR _ShrBit$[ebp]
	inc	edi
	cmp	al, BYTE PTR _ShrBitRange$[ebp+1]
	jb	$LL32@BuildCompo
$LN36@BuildCompo:
; Line 14377
	inc	BYTE PTR _ShrStb$[ebp]
	mov	al, BYTE PTR _ShrStb$[ebp]
	inc	DWORD PTR tv2255[ebp]
	cmp	al, BYTE PTR _ShrStbRange$[ebp+1]
	jb	$LL37@BuildCompo
$LN40@BuildCompo:
; Line 14373
	inc	BYTE PTR _ShrKnb$[ebp]
	mov	al, BYTE PTR _ShrKnb$[ebp]
	inc	DWORD PTR tv2299[ebp]
	cmp	al, BYTE PTR _ShrKnbRange$[ebp+1]
	jb	$LL41@BuildCompo
$LN43@BuildCompo:
; Line 14372
	add	DWORD PTR tv2396[ebp], 2
	dec	DWORD PTR tv360[ebp]
	jne	$LL44@BuildCompo
$LN47@BuildCompo:
; Line 14370
	inc	BYTE PTR _ShrRnk$[ebp]
	mov	al, BYTE PTR _ShrRnk$[ebp]
	inc	DWORD PTR tv2458[ebp]
	cmp	al, BYTE PTR _ShrRnkRange$[ebp+1]
	jb	$LL48@BuildCompo
$LN50@BuildCompo:
; Line 14369
	inc	BYTE PTR _ShrChn$[ebp]
	mov	al, BYTE PTR _ShrChn$[ebp]
	inc	DWORD PTR tv2475[ebp]
	cmp	al, BYTE PTR _ShrChnRange$[ebp+1]
	jb	$LL51@BuildCompo
$LN53@BuildCompo:
; Line 14368
	inc	BYTE PTR _Loop$[ebp]
	movzx	eax, BYTE PTR _Loop$[ebp]
	cmp	eax, DWORD PTR tv1005[ebp]
	jl	$LL54@BuildCompo
$LN52@BuildCompo:
; Line 14462
	cmp	DWORD PTR _TestFunction$[ebp], -1
	je	SHORT $LN174@BuildCompo
; Line 14474
	push	DWORD PTR _Param$[ebp]
	lea	eax, DWORD PTR _Edge$[ebp]
	push	DWORD PTR _IndTiming$[ebp]
	push	DWORD PTR _IndBit$[ebp]
	push	DWORD PTR _IndStb$[ebp]
	push	DWORD PTR _IndKnb$[ebp]
	push	DWORD PTR _IndRnk$[ebp]
	push	DWORD PTR _IndChn$[ebp]
	push	eax
	push	DWORD PTR _MrcData$[ebp]
	call	DWORD PTR _TestFunction$[ebp]
	add	esp, 36					; 00000024H
$LN174@BuildCompo:
	mov	esi, DWORD PTR tv970[ebp]
	mov	edi, DWORD PTR _MrcData$[ebp]
$LN64@BuildCompo:
	mov	al, BYTE PTR _IndBit$[ebp]
	inc	al
	mov	BYTE PTR _IndBit$[ebp], al
	cmp	al, BYTE PTR _MaxBits$[ebp]
	jb	$LL177@BuildCompo
; Line 14342
	mov	bl, BYTE PTR _IndStb$[ebp]
$LN72@BuildCompo:
; Line 14327
	inc	bl
	mov	BYTE PTR _IndStb$[ebp], bl
	cmp	bl, BYTE PTR [esi+55454]
	jb	$LL73@BuildCompo
$LN78@BuildCompo:
; Line 14318
	inc	BYTE PTR _IndKnb$[ebp]
	cmp	BYTE PTR _IndKnb$[ebp], 1
	jb	$LL79@BuildCompo
$LN84@BuildCompo:
; Line 14309
	inc	BYTE PTR _IndTiming$[ebp]
	mov	al, BYTE PTR _IndTiming$[ebp]
	cmp	al, BYTE PTR [edi+55393]
	jb	$LL85@BuildCompo
$LN92@BuildCompo:
; Line 14298
	inc	BYTE PTR _IndRnk$[ebp]
	cmp	BYTE PTR _IndRnk$[ebp], 4
	jb	$LL93@BuildCompo
	inc	BYTE PTR _IndChn$[ebp]
	cmp	BYTE PTR _IndChn$[ebp], 2
	jb	$LL178@BuildCompo
	pop	edi
	pop	esi
	pop	ebx
; Line 14482
	add	ebp, 84					; 00000054H
	leave
	ret	0
_BuildComposite ENDP
_TEXT	ENDS
PUBLIC	_GetSet
; Function compile flags: /Ogspy
;	COMDAT _GetSet
_TEXT	SEGMENT
tv152 = -20						; size = 4
tv457 = -16						; size = 4
_value$ = -12						; size = 4
_bit$ = -5						; size = 1
_BitLoop$ = -1						; size = 1
_MrcData$ = 8						; size = 4
_Range$ = 12						; size = 4
_Channel$ = 16						; size = 1
_Rank$ = 20						; size = 1
_Knob$ = 24						; size = 1
_Strobe$ = 28						; size = 1
_Bit$ = 32						; size = 1
_Timing$ = 36						; size = 1
_Param$ = 40						; size = 4
_index$ = 43						; size = 1
_GetSet	PROC						; COMDAT
; Line 15073
	push	ebp
	mov	ebp, esp
	sub	esp, 20					; 00000014H
; Line 15085
	and	DWORD PTR _value$[ebp], 0
	push	esi
; Line 15090
	mov	esi, DWORD PTR _Param$[ebp]
	movzx	eax, BYTE PTR [esi+4]
	mov	ecx, DWORD PTR [esi]
	imul	eax, 45					; 0000002dH
	mov	al, BYTE PTR [eax+ecx+31]
	mov	ecx, DWORD PTR [esi+12]
	movzx	ecx, WORD PTR [ecx]
	push	edi
; Line 15100
	mov	BYTE PTR _index$[ebp], 0
$LL15@GetSet:
; Line 15101
	movzx	edx, BYTE PTR _index$[ebp]
	mov	edi, DWORD PTR _Range$[ebp]
	cmp	WORD PTR [edi+edx*2+4], cx
	je	SHORT $LN22@GetSet
	inc	BYTE PTR _index$[ebp]
	cmp	BYTE PTR _index$[ebp], 2
	jb	SHORT $LL15@GetSet
; Line 15136
	or	eax, -1
	jmp	$LN17@GetSet
$LN22@GetSet:
; Line 15108
	dec	al
	cmp	al, 2
	jb	$LN1@GetSet
	movzx	edx, BYTE PTR _index$[ebp]
	movzx	ecx, al
	mov	edi, ecx
	add	edx, ecx
	imul	edi, 45					; 0000002dH
	dec	al
	movzx	eax, al
	lea	ecx, DWORD PTR [edx+edx-6]
	push	ebx
	mov	ebx, DWORD PTR _MrcData$[ebp]
	mov	DWORD PTR tv457[ebp], ecx
	mov	DWORD PTR tv152[ebp], eax
$LL28@GetSet:
; Line 15112
	cmp	BYTE PTR _index$[ebp], 0
	jne	SHORT $LN8@GetSet
; Line 15113
	lea	eax, DWORD PTR _value$[ebp]
	push	eax
	mov	eax, DWORD PTR [esi]
	movzx	eax, WORD PTR [edi+eax]
	push	3
	push	eax
	movzx	eax, BYTE PTR [ebx+55392]
	push	255					; 000000ffH
	push	eax
	push	DWORD PTR _Bit$[ebp]
	push	DWORD PTR _Strobe$[ebp]
	push	DWORD PTR _Rank$[ebp]
	push	0
	push	DWORD PTR _Channel$[ebp]
	push	0
	push	ebx
	call	_GetSetDdrioGroup
	add	esp, 48					; 00000030H
; Line 15114
	jmp	SHORT $LN7@GetSet
$LN8@GetSet:
; Line 15115
	movzx	eax, BYTE PTR _Channel$[ebp]
	add	eax, DWORD PTR tv457[ebp]
	movzx	ecx, BYTE PTR _Rank$[ebp]
	lea	eax, DWORD PTR [ecx+eax*4]
	movzx	ecx, BYTE PTR _Knob$[ebp]
	add	eax, ecx
	movzx	ecx, BYTE PTR _Strobe$[ebp]
	imul	eax, 18					; 00000012H
	add	eax, ecx
	mov	ecx, DWORD PTR [esi+8]
	lea	eax, DWORD PTR [ecx+eax*8]
	movzx	ecx, BYTE PTR _Bit$[ebp]
	movzx	eax, BYTE PTR [eax+ecx]
	mov	DWORD PTR _value$[ebp], eax
$LN7@GetSet:
; Line 15118
	mov	eax, DWORD PTR [esi]
	mov	al, BYTE PTR [edi+eax+23]
; Line 15120
	mov	cl, BYTE PTR _Bit$[ebp]
	and	al, 24					; 00000018H
	cmp	al, 24					; 00000018H
	jne	SHORT $LN6@GetSet
; Line 15119
	mov	BYTE PTR _BitLoop$[ebp], 8
; Line 15120
	jmp	SHORT $LN5@GetSet
$LN6@GetSet:
; Line 15121
	mov	al, cl
	inc	al
	mov	BYTE PTR _BitLoop$[ebp], al
$LN5@GetSet:
; Line 15123
	mov	BYTE PTR _bit$[ebp], cl
	cmp	cl, BYTE PTR _BitLoop$[ebp]
	jae	SHORT $LN10@GetSet
$LL27@GetSet:
; Line 15124
	lea	eax, DWORD PTR _value$[ebp]
	push	eax
	mov	eax, DWORD PTR [esi]
	movzx	eax, WORD PTR [edi+eax]
	push	24					; 00000018H
	push	eax
	movzx	eax, BYTE PTR [ebx+55392]
	push	255					; 000000ffH
	push	eax
	push	DWORD PTR _bit$[ebp]
	push	DWORD PTR _Strobe$[ebp]
	push	DWORD PTR _Rank$[ebp]
	push	0
	push	DWORD PTR _Channel$[ebp]
	push	0
	push	ebx
	call	_GetSetDdrioGroup
	add	esp, 48					; 00000030H
	inc	BYTE PTR _bit$[ebp]
	mov	al, BYTE PTR _bit$[ebp]
	cmp	al, BYTE PTR _BitLoop$[ebp]
	jb	SHORT $LL27@GetSet
$LN10@GetSet:
; Line 15108
	sub	DWORD PTR tv457[ebp], 2
	sub	edi, 45					; 0000002dH
	dec	DWORD PTR tv152[ebp]
	jne	$LL28@GetSet
	pop	ebx
$LN1@GetSet:
; Line 15139
	xor	eax, eax
$LN17@GetSet:
	pop	edi
	pop	esi
; Line 15140
	leave
	ret	0
_GetSet	ENDP
_TEXT	ENDS
PUBLIC	_PrintCount
; Function compile flags: /Ogspy
;	COMDAT _PrintCount
_TEXT	SEGMENT
_value$ = -8						; size = 4
_index$ = -1						; size = 1
_MrcData$ = 8						; size = 4
_Range$ = 12						; size = 4
_Channel$ = 16						; size = 1
_Rank$ = 20						; size = 1
_Knob$ = 24						; size = 1
_Strobe$ = 28						; size = 1
_Bit$ = 32						; size = 1
_Timing$ = 36						; size = 1
_Param$ = 40						; size = 4
_PrintCount PROC					; COMDAT
; Line 15170
	push	ebp
	mov	ebp, esp
	push	ecx
	push	ecx
; Line 15183
	mov	ecx, DWORD PTR _Param$[ebp]
	mov	eax, DWORD PTR [ecx]
	mov	al, BYTE PTR [eax+31]
	dec	al
	mov	BYTE PTR _index$[ebp], al
	je	$LN11@PrintCount
	push	ebx
	push	esi
	movzx	ebx, al
	push	edi
	imul	ebx, 45					; 0000002dH
	mov	edi, DWORD PTR _MrcData$[ebp]
	mov	esi, 255				; 000000ffH
	jmp	SHORT $LN13@PrintCount
$LL23@PrintCount:
	mov	al, BYTE PTR _index$[ebp]
$LN13@PrintCount:
; Line 15184
	mov	edx, DWORD PTR [ecx]
	cmp	al, BYTE PTR [edx+31]
	jb	SHORT $LN17@PrintCount
; Line 15185
	mov	DWORD PTR [edi+65333], 40		; 00000028H
	call	_MrcDeadLoop
	mov	ecx, DWORD PTR _Param$[ebp]
$LN17@PrintCount:
; Line 15187
	mov	eax, DWORD PTR [ecx]
	mov	cl, BYTE PTR [eax+43]
	cmp	cl, 1
	jbe	SHORT $LN8@PrintCount
; Line 15189
	movzx	ecx, cl
	imul	ecx, 45					; 0000002dH
	movzx	eax, WORD PTR [ecx+eax]
	lea	edx, DWORD PTR _value$[ebp]
	push	edx
; Line 15190
	jmp	SHORT $LN24@PrintCount
$LN8@PrintCount:
; Line 15192
	movzx	eax, WORD PTR [ebx+eax]
	lea	ecx, DWORD PTR _value$[ebp]
	push	ecx
$LN24@PrintCount:
	push	3
	push	eax
	movzx	eax, BYTE PTR [edi+55392]
	push	esi
	push	eax
	push	DWORD PTR _Bit$[ebp]
	push	DWORD PTR _Strobe$[ebp]
	push	DWORD PTR _Rank$[ebp]
	push	0
	push	DWORD PTR _Channel$[ebp]
	push	0
	push	edi
	call	_GetSetDdrioGroup
	mov	ecx, DWORD PTR _Param$[ebp]
	add	esp, 48					; 00000030H
	dec	BYTE PTR _index$[ebp]
	sub	ebx, 45					; 0000002dH
	cmp	BYTE PTR _index$[ebp], 0
	ja	SHORT $LL23@PrintCount
	pop	edi
	pop	esi
	pop	ebx
$LN11@PrintCount:
; Line 15209
	mov	edx, DWORD PTR _Range$[ebp]
	mov	eax, DWORD PTR [ecx+8]
	mov	dx, WORD PTR [edx+4]
	cmp	dx, WORD PTR [eax]
	je	SHORT $LN4@PrintCount
; Line 15210
	mov	BYTE PTR [ecx+12], 0
$LN4@PrintCount:
; Line 15219
	xor	eax, eax
; Line 15220
	leave
	ret	0
_PrintCount ENDP
_TEXT	ENDS
PUBLIC	??_C@_0N@PPPKKAFK@SetCriteria2?$AA@		; `string'
PUBLIC	_SetCriteria2
;	COMDAT ??_C@_0N@PPPKKAFK@SetCriteria2?$AA@
CONST	SEGMENT
??_C@_0N@PPPKKAFK@SetCriteria2?$AA@ DB 'SetCriteria2', 00H ; `string'
; Function compile flags: /Ogspy
CONST	ENDS
;	COMDAT _SetCriteria2
_TEXT	SEGMENT
_MrcData$ = 8						; size = 4
_Range$ = 12						; size = 4
_BitLoop$ = 15						; size = 1
_Channel$ = 16						; size = 1
_Rank$ = 20						; size = 1
_Knob$ = 24						; size = 1
_Strobe$ = 28						; size = 1
_Bit$ = 32						; size = 1
_Timing$ = 36						; size = 1
_Param$ = 40						; size = 4
_i$ = 43						; size = 1
_MaxBit$ = 43						; size = 1
_SetCriteria2 PROC					; COMDAT
; Line 15251
	push	ebp
	mov	ebp, esp
; Line 15265
	mov	ecx, DWORD PTR _Range$[ebp]
	push	ebx
	push	esi
	mov	esi, DWORD PTR _Param$[ebp]
	mov	eax, DWORD PTR [esi]
	mov	ax, WORD PTR [eax]
	mov	ebx, DWORD PTR [esi+12]
	cmp	ax, WORD PTR [ecx+4]
; Line 15269
	je	$LN12@SetCriteri
; Line 15275
	movzx	eax, BYTE PTR [esi+4]
	imul	eax, 45					; 0000002dH
	mov	al, BYTE PTR [eax+ebx+23]
	and	al, 24					; 00000018H
	push	edi
	mov	edi, DWORD PTR _MrcData$[ebp]
	cmp	al, 24					; 00000018H
	jne	SHORT $LN5@SetCriteri
; Line 15276
	lea	eax, DWORD PTR _MaxBit$[ebp]
	push	eax
	push	1
	push	DWORD PTR _Strobe$[ebp]
	push	DWORD PTR _Rank$[ebp]
	push	DWORD PTR _Channel$[ebp]
	push	edi
	call	_IsStrobeValid
; Line 15277
	mov	al, BYTE PTR _MaxBit$[ebp]
; Line 15278
	push	15278					; 00003baeH
	push	OFFSET ??_C@_0N@PPPKKAFK@SetCriteria2?$AA@
	push	edi
	mov	BYTE PTR _BitLoop$[ebp], al
	call	_CheckPerBitSupport
	add	esp, 36					; 00000024H
; Line 15279
	jmp	SHORT $LN4@SetCriteri
$LN5@SetCriteri:
; Line 15280
	mov	BYTE PTR _BitLoop$[ebp], 1
$LN4@SetCriteri:
; Line 15287
	cmp	BYTE PTR _BitLoop$[ebp], 0
	mov	BYTE PTR _i$[ebp], 0
	jbe	SHORT $LN1@SetCriteri
$LL11@SetCriteri:
; Line 15289
	lea	eax, DWORD PTR [esi+8]
	push	eax
	movzx	eax, BYTE PTR [esi+4]
	imul	eax, 45					; 0000002dH
	movzx	eax, WORD PTR [eax+ebx]
	push	24					; 00000018H
	push	eax
	movzx	eax, BYTE PTR [edi+55392]
	push	255					; 000000ffH
	push	eax
	mov	al, BYTE PTR _i$[ebp]
	add	al, BYTE PTR _Bit$[ebp]
	movzx	eax, al
	push	eax
	push	DWORD PTR _Strobe$[ebp]
	push	DWORD PTR _Rank$[ebp]
	push	0
	push	DWORD PTR _Channel$[ebp]
	push	0
	push	edi
	call	_GetSetDdrioGroup
	add	esp, 48					; 00000030H
	inc	BYTE PTR _i$[ebp]
	mov	al, BYTE PTR _i$[ebp]
	cmp	al, BYTE PTR _BitLoop$[ebp]
	jb	SHORT $LL11@SetCriteri
$LN1@SetCriteri:
	pop	edi
$LN12@SetCriteri:
	pop	esi
; Line 15291
	xor	eax, eax
	pop	ebx
; Line 15292
	pop	ebp
	ret	0
_SetCriteria2 ENDP
_TEXT	ENDS
PUBLIC	_CalculateCenter2
; Function compile flags: /Ogspy
;	COMDAT _CalculateCenter2
_TEXT	SEGMENT
_Param$ = -48						; size = 48
_MrcData$ = 8						; size = 4
_ResultsV$ = 12						; size = 4
tv191 = 16						; size = 4
_Flags$ = 16						; size = 2
_NumberSamples$ = 20					; size = 1
_PiCenter$ = 24						; size = 4
_Max$ = 28						; size = 4
_CalculateCenter2 PROC					; COMDAT
; Line 15782
	push	ebp
	mov	ebp, esp
	sub	esp, 48					; 00000030H
	push	ebx
; Line 15790
	xor	ebx, ebx
	push	esi
	mov	esi, DWORD PTR _Flags$[ebp]
	cmp	BYTE PTR _NumberSamples$[ebp], bl
	jbe	SHORT $LN1@CalculateC
	mov	eax, DWORD PTR _ResultsV$[ebp]
	push	edi
	movzx	edi, BYTE PTR _NumberSamples$[ebp]
	mov	DWORD PTR tv191[ebp], eax
$LL8@CalculateC:
; Line 15792
	push	-1
	push	ebx
	push	DWORD PTR tv191[ebp]
	push	ebx
	push	ebx
	push	1
	push	6
	push	esi
	push	DWORD PTR _MrcData$[ebp]
	call	_BuildComposite
	add	DWORD PTR tv191[ebp], 9216		; 00002400H
	add	esp, 36					; 00000024H
	dec	edi
	jne	SHORT $LL8@CalculateC
	pop	edi
$LN1@CalculateC:
; Line 15799
	movzx	ax, BYTE PTR _NumberSamples$[ebp]
	mov	WORD PTR _Param$[ebp+12], ax
; Line 15800
	mov	eax, DWORD PTR _ResultsV$[ebp]
	mov	DWORD PTR _Param$[ebp+8], eax
; Line 15801
	mov	eax, DWORD PTR _Max$[ebp]
; Line 15806
	push	OFFSET _FinalCalculateCenter2
	mov	DWORD PTR _Param$[ebp], eax
	mov	eax, DWORD PTR _PiCenter$[ebp]
	mov	DWORD PTR _Param$[ebp+4], eax
	lea	eax, DWORD PTR _Param$[ebp]
	push	eax
	push	ebx
	push	ebx
	push	ebx
	push	1
	push	ebx
	push	esi
	push	DWORD PTR _MrcData$[ebp]
	mov	WORD PTR _Param$[ebp+14], si
	call	_BuildComposite
	add	esp, 36					; 00000024H
	pop	esi
; Line 15808
	xor	eax, eax
	pop	ebx
; Line 15809
	leave
	ret	0
_CalculateCenter2 ENDP
_TEXT	ENDS
PUBLIC	_CalculateCenter1
; Function compile flags: /Ogspy
;	COMDAT _CalculateCenter1
_TEXT	SEGMENT
_Min$ = -11568						; size = 4608
_Max$ = -6960						; size = 4608
_AccumWeights$ = -2352					; size = 2304
_Param$ = -48						; size = 48
_MrcData$ = 8						; size = 4
_ResultsV$ = 12						; size = 4
_Flags$ = 16						; size = 2
_EyeMask$ = 20						; size = 4
_SelectedEyeMask$ = 24					; size = 1
_PICenter$ = 28						; size = 4
_CalculateCenter1 PROC					; COMDAT
; Line 15834
	push	ebp
	mov	ebp, esp
	sub	esp, 11568				; 00002d30H
	push	ebx
	push	esi
	push	edi
; Line 15845
	mov	esi, 4608				; 00001200H
	push	esi
	lea	eax, DWORD PTR _Min$[ebp]
	push	255					; 000000ffH
	push	eax
	call	_memset
; Line 15846
	push	esi
	xor	edi, edi
	lea	eax, DWORD PTR _Max$[ebp]
	push	edi
	push	eax
	call	_memset
; Line 15847
	push	2304					; 00000900H
	lea	eax, DWORD PTR _AccumWeights$[ebp]
	push	edi
	push	eax
	call	_memset
; Line 15848
	push	esi
	push	edi
	push	DWORD PTR _PICenter$[ebp]
	call	_MmrcMemset
	add	esp, 48					; 00000030H
	push	2
	pop	eax
$LL11@CalculateC@2:
; Line 15853
	dec	eax
; Line 15854
	lea	ecx, DWORD PTR _Max$[ebp]
	mov	DWORD PTR _Param$[ebp+4], ecx
; Line 15855
	lea	ecx, DWORD PTR _Min$[ebp]
	mov	DWORD PTR _Param$[ebp], ecx
	jne	SHORT $LL11@CalculateC@2
; Line 15858
	movzx	eax, BYTE PTR _SelectedEyeMask$[ebp]
	mov	edi, DWORD PTR _EyeMask$[ebp]
	xor	bl, bl
	lea	esi, DWORD PTR [edi+eax*4]
	xor	eax, eax
	jmp	SHORT $LN43@CalculateC@2
$LL41@CalculateC@2:
; Line 15861
	push	OFFSET _FindMaxMinEW
	lea	eax, DWORD PTR _Param$[ebp]
	push	eax
	movzx	eax, bl
	imul	eax, 9216				; 00002400H
	add	eax, DWORD PTR _ResultsV$[ebp]
	push	eax
	movzx	eax, BYTE PTR [edi]
	push	0
	push	eax
	push	1
	push	2
	push	DWORD PTR _Flags$[ebp]
	push	DWORD PTR _MrcData$[ebp]
	call	_BuildComposite
	add	esp, 36					; 00000024H
	inc	bl
	movzx	ax, bl
$LN43@CalculateC@2:
; Line 15858
	cmp	ax, WORD PTR [esi]
	jb	SHORT $LL41@CalculateC@2
; Line 15869
	lea	eax, DWORD PTR _Max$[ebp]
	mov	DWORD PTR _Param$[ebp+4], eax
; Line 15870
	lea	eax, DWORD PTR _Min$[ebp]
	mov	DWORD PTR _Param$[ebp], eax
; Line 15871
	mov	eax, DWORD PTR _PICenter$[ebp]
	mov	DWORD PTR _Param$[ebp+8], eax
; Line 15872
	lea	eax, DWORD PTR _AccumWeights$[ebp]
	mov	DWORD PTR _Param$[ebp+12], eax
; Line 15874
	xor	bl, bl
	xor	eax, eax
	jmp	SHORT $LN45@CalculateC@2
$LL42@CalculateC@2:
; Line 15881
	movzx	ecx, cx
	movzx	eax, bl
	dec	ecx
	cmp	eax, ecx
	jne	SHORT $LN2@CalculateC@2
; Line 15882
	mov	BYTE PTR _Param$[ebp+16], 1
; Line 15883
	mov	BYTE PTR _Param$[ebp+17], 1
; Line 15884
	jmp	SHORT $LN1@CalculateC@2
$LN2@CalculateC@2:
; Line 15885
	mov	BYTE PTR _Param$[ebp+16], 0
; Line 15886
	mov	BYTE PTR _Param$[ebp+17], 0
$LN1@CalculateC@2:
; Line 15889
	imul	eax, 9216				; 00002400H
	add	eax, DWORD PTR _ResultsV$[ebp]
	push	OFFSET _ApplyMaxMinEWWeight
	lea	ecx, DWORD PTR _Param$[ebp]
	push	ecx
	push	eax
	movzx	eax, BYTE PTR [edi]
	push	0
	push	eax
	push	1
	push	2
	push	DWORD PTR _Flags$[ebp]
	push	DWORD PTR _MrcData$[ebp]
	call	_BuildComposite
	add	esp, 36					; 00000024H
	inc	bl
	movzx	ax, bl
$LN45@CalculateC@2:
	movzx	ecx, WORD PTR [esi]
	cmp	ax, cx
	jb	SHORT $LL42@CalculateC@2
	pop	edi
	pop	esi
; Line 15892
	xor	eax, eax
	pop	ebx
; Line 15893
	leave
	ret	0
_CalculateCenter1 ENDP
_TEXT	ENDS
PUBLIC	_ProgramSetGetLinear
; Function compile flags: /Ogspy
;	COMDAT _ProgramSetGetLinear
_TEXT	SEGMENT
_MrcData$ = 8						; size = 4
_Range$ = 12						; size = 4
_Channel$ = 16						; size = 1
_Rank$ = 20						; size = 1
_Knob$ = 24						; size = 1
_Strobe$ = 28						; size = 1
_Bit$ = 32						; size = 1
_Timing$ = 36						; size = 1
_Param$ = 40						; size = 4
_ProgramSetGetLinear PROC				; COMDAT
; Line 16209
	push	ebp
	mov	ebp, esp
	push	ebx
	push	esi
; Line 16211
	mov	esi, DWORD PTR _Param$[ebp]
	cmp	BYTE PTR [esi+8], 0
	push	edi
	mov	edi, DWORD PTR _MrcData$[ebp]
	mov	ebx, 255				; 000000ffH
	jne	SHORT $LN3@ProgramSet
; Line 16212
	movzx	ecx, BYTE PTR _Rank$[ebp]
	movzx	eax, BYTE PTR _Channel$[ebp]
	lea	eax, DWORD PTR [ecx+eax*4]
	movzx	ecx, BYTE PTR _Knob$[ebp]
	add	eax, ecx
	movzx	ecx, BYTE PTR _Strobe$[ebp]
	imul	eax, 18					; 00000012H
	add	eax, ecx
	mov	ecx, DWORD PTR [esi+12]
	lea	eax, DWORD PTR [ecx+eax*8]
	movzx	ecx, BYTE PTR _Bit$[ebp]
	cmp	BYTE PTR [eax+ecx], 1
; Line 16213
	je	SHORT $LN1@ProgramSet
; Line 16214
	movzx	eax, WORD PTR [esi+6]
	push	esi
	push	24					; 00000018H
	push	eax
	movzx	eax, BYTE PTR [edi+55392]
	push	ebx
	push	eax
	push	DWORD PTR _Bit$[ebp]
	push	DWORD PTR _Strobe$[ebp]
	push	DWORD PTR _Rank$[ebp]
	push	0
	push	DWORD PTR _Channel$[ebp]
	push	0
	push	edi
	call	_GetSetDdrioGroup
	add	esp, 48					; 00000030H
$LN3@ProgramSet:
; Line 16217
	cmp	BYTE PTR [esi+8], 1
	jne	SHORT $LN1@ProgramSet
; Line 16218
	movzx	eax, WORD PTR [esi+6]
	push	esi
	push	24					; 00000018H
	push	eax
	movzx	eax, BYTE PTR [edi+55392]
	push	ebx
	push	eax
	push	DWORD PTR _Bit$[ebp]
	push	DWORD PTR _Strobe$[ebp]
	push	DWORD PTR _Rank$[ebp]
	push	0
	push	DWORD PTR _Channel$[ebp]
	push	0
	push	edi
	call	_GetSetDdrioGroup
	add	esp, 48					; 00000030H
$LN1@ProgramSet:
	pop	edi
	pop	esi
; Line 16221
	xor	eax, eax
	pop	ebx
; Line 16222
	pop	ebp
	ret	0
_ProgramSetGetLinear ENDP
_TEXT	ENDS
PUBLIC	_PrintHiLow
; Function compile flags: /Ogspy
;	COMDAT _PrintHiLow
_TEXT	SEGMENT
_value$ = -36						; size = 4
tv147 = -32						; size = 4
tv369 = -28						; size = 4
tv364 = -24						; size = 4
tv304 = -20						; size = 4
_Strobe$ = -13						; size = 1
_Channel$ = -9						; size = 1
_Rank$ = -5						; size = 1
_Bit$ = -1						; size = 1
_MrcData$ = 8						; size = 4
_Param$ = 12						; size = 4
_PrintHiLow PROC					; COMDAT
; Line 17123
	push	ebp
	mov	ebp, esp
	sub	esp, 36					; 00000024H
; Line 17133
	and	DWORD PTR tv364[ebp], 0
	push	ebx
	push	esi
	mov	esi, DWORD PTR _MrcData$[ebp]
	push	edi
	mov	edi, DWORD PTR _Param$[ebp]
	mov	BYTE PTR _Channel$[ebp], 0
	mov	ebx, 255				; 000000ffH
$LL37@PrintHiLow:
; Line 17134
	and	DWORD PTR tv304[ebp], 0
	mov	BYTE PTR _Rank$[ebp], 0
$LL19@PrintHiLow:
; Line 17135
	push	DWORD PTR _Rank$[ebp]
	push	DWORD PTR _Channel$[ebp]
	push	esi
	call	_RunOnThisChannel
	add	esp, 12					; 0000000cH
	test	al, al
	je	$LN18@PrintHiLow
	mov	eax, DWORD PTR tv364[ebp]
	mov	ecx, DWORD PTR tv304[ebp]
	add	eax, ecx
	add	eax, esi
	mov	DWORD PTR tv369[ebp], eax
; Line 17137
	mov	DWORD PTR tv147[ebp], 2
$LL12@PrintHiLow:
; Line 17138
	cmp	BYTE PTR [eax+55454], 0
	mov	BYTE PTR _Strobe$[ebp], 0
	jbe	$LN11@PrintHiLow
$LL9@PrintHiLow:
; Line 17139
	cmp	BYTE PTR [eax+55462], 0
	mov	BYTE PTR _Bit$[ebp], 0
	jbe	$LN8@PrintHiLow
$LL6@PrintHiLow:
; Line 17143
	cmp	BYTE PTR _Bit$[ebp], 0
	jne	SHORT $LN5@PrintHiLow
; Line 17146
	mov	ecx, DWORD PTR [edi+4]
	lea	eax, DWORD PTR _value$[ebp]
	push	eax
	movzx	eax, BYTE PTR [edi+16]
	imul	eax, 45					; 0000002dH
	movzx	eax, WORD PTR [eax+ecx]
	push	3
	push	eax
	movzx	eax, BYTE PTR [esi+55392]
	push	ebx
	push	eax
	xor	eax, eax
	push	eax
	push	DWORD PTR _Strobe$[ebp]
	push	DWORD PTR _Rank$[ebp]
	push	eax
	push	DWORD PTR _Channel$[ebp]
	push	eax
	push	esi
	call	_GetSetDdrioGroup
; Line 17148
	mov	al, BYTE PTR [esi+55393]
	add	esp, 48					; 00000030H
	cmp	al, 1
	jbe	SHORT $LN38@PrintHiLow
	mov	cl, BYTE PTR [edi+16]
	cmp	cl, al
	jae	SHORT $LN38@PrintHiLow
; Line 17151
	lea	eax, DWORD PTR _value$[ebp]
	push	eax
	movzx	eax, cl
	mov	ecx, DWORD PTR [edi+4]
	inc	eax
	imul	eax, 45					; 0000002dH
	movzx	eax, WORD PTR [eax+ecx]
	push	3
	push	eax
	movzx	eax, BYTE PTR [esi+55392]
	push	ebx
	push	eax
	xor	eax, eax
	push	eax
	push	DWORD PTR _Strobe$[ebp]
	push	DWORD PTR _Rank$[ebp]
	push	eax
	push	DWORD PTR _Channel$[ebp]
	push	eax
	push	esi
	call	_GetSetDdrioGroup
	add	esp, 48					; 00000030H
$LN38@PrintHiLow:
	mov	eax, DWORD PTR tv369[ebp]
$LN5@PrintHiLow:
; Line 17139
	inc	BYTE PTR _Bit$[ebp]
	mov	cl, BYTE PTR _Bit$[ebp]
	cmp	cl, BYTE PTR [eax+55462]
	jb	$LL6@PrintHiLow
$LN8@PrintHiLow:
; Line 17138
	inc	BYTE PTR _Strobe$[ebp]
	mov	cl, BYTE PTR _Strobe$[ebp]
	cmp	cl, BYTE PTR [eax+55454]
	jb	$LL9@PrintHiLow
$LN11@PrintHiLow:
; Line 17137
	dec	DWORD PTR tv147[ebp]
	jne	$LL12@PrintHiLow
$LN18@PrintHiLow:
; Line 17134
	inc	BYTE PTR _Rank$[ebp]
	inc	DWORD PTR tv304[ebp]
	cmp	BYTE PTR _Rank$[ebp], 4
	jb	$LL19@PrintHiLow
	inc	BYTE PTR _Channel$[ebp]
	add	DWORD PTR tv364[ebp], 4
	cmp	BYTE PTR _Channel$[ebp], 2
	jb	$LL37@PrintHiLow
	pop	edi
	pop	esi
; Line 17166
	xor	eax, eax
	pop	ebx
; Line 17167
	leave
	ret	0
_PrintHiLow ENDP
_TEXT	ENDS
PUBLIC	_ReceiveEnableDramEntryExit
EXTRN	_ReadMrsCommand:PROC
; Function compile flags: /Ogspy
;	COMDAT _ReceiveEnableDramEntryExit
_TEXT	SEGMENT
_MrcData$ = 8						; size = 4
_ExecuteMode$ = 11					; size = 1
_Channel$ = 12						; size = 1
_Rank$ = 16						; size = 1
_Entry$ = 20						; size = 1
_ReceiveEnableDramEntryExit PROC			; COMDAT
; Line 1461
	push	ebp
	mov	ebp, esp
; Line 1472
	cmp	BYTE PTR _Entry$[ebp], 1
	push	ebx
; Line 1477
	mov	ebx, DWORD PTR _Channel$[ebp]
	push	esi
	mov	esi, DWORD PTR _MrcData$[ebp]
	mov	al, BYTE PTR [esi+55508]
	mov	BYTE PTR _ExecuteMode$[ebp], al
	mov	BYTE PTR [esi+55508], 0
	movzx	eax, bl
	jne	SHORT $LN4@ReceiveEna
	cmp	BYTE PTR [eax+esi+31272], 7
	jne	SHORT $LN1@ReceiveEna
	push	edi
; Line 1478
	mov	edi, DWORD PTR _Rank$[ebp]
	push	edi
	push	ebx
	push	esi
	call	_PrechargeAll
; Line 1479
	push	1
	push	edi
	push	ebx
	push	esi
	call	_ToggleMprMode
; Line 1480
	push	4
	push	edi
	push	ebx
	push	esi
	call	_ReadMrsCommand
; Line 1481
	or	eax, 262144				; 00040000H
; Line 1482
	push	eax
	push	edi
	push	ebx
	push	esi
	call	_WriteDramCommandSideWrap
; Line 1487
	push	edi
	push	ebx
	push	esi
	call	_CpgcExecuteParallel
	add	esp, 72					; 00000048H
	pop	edi
; Line 1491
	jmp	SHORT $LN1@ReceiveEna
$LN4@ReceiveEna:
; Line 1496
	cmp	BYTE PTR [eax+esi+31272], 7
	jne	SHORT $LN1@ReceiveEna
; Line 1497
	push	4
	push	DWORD PTR _Rank$[ebp]
	push	ebx
	push	esi
	call	_ReadMrsCommand
; Line 1498
	push	eax
	push	DWORD PTR _Rank$[ebp]
	push	ebx
	push	esi
	call	_WriteDramCommandSideWrap
; Line 1499
	push	DWORD PTR _Entry$[ebp]
	push	DWORD PTR _Rank$[ebp]
	push	ebx
	push	esi
	call	_ToggleMprMode
	add	esp, 48					; 00000030H
$LN1@ReceiveEna:
; Line 1503
	mov	al, BYTE PTR _ExecuteMode$[ebp]
	mov	BYTE PTR [esi+55508], al
	pop	esi
; Line 1506
	xor	eax, eax
	pop	ebx
; Line 1507
	pop	ebp
	ret	0
_ReceiveEnableDramEntryExit ENDP
_TEXT	ENDS
PUBLIC	_JedecInitFunction
; Function compile flags: /Ogspy
;	COMDAT _JedecInitFunction
_TEXT	SEGMENT
_Rank$ = 8						; size = 1
_MrcData$ = 8						; size = 4
_CapsuleStartIndex$ = 12				; size = 2
_StringIndex$ = 16					; size = 2
_Channel$ = 20						; size = 1
_JedecInitFunction PROC					; COMDAT
; Line 1777
	push	ebp
	mov	ebp, esp
	push	ebx
	push	esi
	push	edi
; Line 1782
	push	DWORD PTR _Channel$[ebp]
	mov	esi, 14461				; 0000387dH
	push	esi
	call	_SearchSubtaskName
	pop	ecx
	movzx	eax, ax
	push	eax
	push	esi
	mov	esi, DWORD PTR _MrcData$[ebp]
	push	esi
	call	_MmrcExecuteTask
; Line 1783
	movzx	ebx, BYTE PTR _Channel$[ebp]
	mov	eax, ebx
	imul	eax, 4336				; 000010f0H
	add	esp, 16					; 00000010H
	cmp	DWORD PTR [eax+esi+55966], 1
	jne	$LN14@JedecInitF
	cmp	DWORD PTR [eax+esi+55970], 0
	jne	$LN14@JedecInitF
; Line 1788
	push	DWORD PTR _Channel$[ebp]
	mov	edi, 9394				; 000024b2H
	push	edi
	call	_SearchSubtaskName
	pop	ecx
	movzx	eax, ax
	push	eax
	push	edi
	push	esi
	call	_MmrcExecuteTask
; Line 1792
	push	500					; 000001f4H
	push	1
	call	_MspDelay
	add	esp, 24					; 00000018H
; Line 1796
	push	DWORD PTR _Channel$[ebp]
	mov	edi, 14597				; 00003905H
	push	edi
	call	_SearchSubtaskName
	pop	ecx
	movzx	eax, ax
	push	eax
	push	edi
	push	esi
	call	_MmrcExecuteTask
; Line 1800
	push	100					; 00000064H
	push	2
	call	_MspDelay
	add	esp, 24					; 00000018H
; Line 1805
	push	DWORD PTR _Channel$[ebp]
	mov	edi, 9973				; 000026f5H
	push	edi
	call	_SearchSubtaskName
	pop	ecx
	movzx	eax, ax
	push	eax
	push	edi
	push	esi
	call	_MmrcExecuteTask
	add	esp, 16					; 00000010H
; Line 1809
	mov	BYTE PTR _Rank$[ebp], 0
	lea	edi, DWORD PTR [esi+ebx*4+55438]
$LL13@JedecInitF:
; Line 1810
	cmp	BYTE PTR [edi], 0
	je	SHORT $LN12@JedecInitF
; Line 1814
	push	DWORD PTR _Rank$[ebp]
	push	DWORD PTR _Channel$[ebp]
	push	esi
	call	_PrechargeAll
	add	esp, 12					; 0000000cH
$LN12@JedecInitF:
	inc	BYTE PTR _Rank$[ebp]
	inc	edi
	cmp	BYTE PTR _Rank$[ebp], 4
	jb	SHORT $LL13@JedecInitF
; Line 1816
	jmp	SHORT $LN9@JedecInitF
$LN14@JedecInitF:
; Line 1820
	push	DWORD PTR _Channel$[ebp]
	mov	edi, 14597				; 00003905H
	push	edi
	call	_SearchSubtaskName
	pop	ecx
	movzx	eax, ax
	push	eax
	push	edi
	push	esi
	call	_MmrcExecuteTask
	add	esp, 16					; 00000010H
$LN9@JedecInitF:
; Line 1825
	lea	ebx, DWORD PTR [esi+ebx*4+55438]
	mov	BYTE PTR _Rank$[ebp], 0
	mov	edi, ebx
$LL8@JedecInitF:
; Line 1826
	cmp	BYTE PTR [edi], 0
	je	SHORT $LN7@JedecInitF
; Line 1831
	push	DWORD PTR _Rank$[ebp]
	push	DWORD PTR _Channel$[ebp]
	push	esi
	call	_NopCommands
	add	esp, 12					; 0000000cH
$LN7@JedecInitF:
	inc	BYTE PTR _Rank$[ebp]
	inc	edi
	cmp	BYTE PTR _Rank$[ebp], 4
	jb	SHORT $LL8@JedecInitF
; Line 1836
	push	DWORD PTR _Channel$[ebp]
	mov	edi, 10050				; 00002742H
	push	edi
	call	_SearchSubtaskName
	pop	ecx
	movzx	eax, ax
	push	eax
	push	edi
	push	esi
	call	_MmrcExecuteTask
	add	esp, 16					; 00000010H
; Line 1840
	mov	BYTE PTR _Rank$[ebp], 0
$LL4@JedecInitF:
; Line 1841
	cmp	BYTE PTR [ebx], 0
	je	SHORT $LN3@JedecInitF
; Line 1845
	push	DWORD PTR _Rank$[ebp]
	push	DWORD PTR _Channel$[ebp]
	push	esi
	call	_PrechargeAll
	add	esp, 12					; 0000000cH
$LN3@JedecInitF:
	inc	BYTE PTR _Rank$[ebp]
	inc	ebx
	cmp	BYTE PTR _Rank$[ebp], 4
	jb	SHORT $LL4@JedecInitF
; Line 1850
	push	DWORD PTR _Channel$[ebp]
	push	esi
	call	_DoZqCal
	pop	ecx
	pop	ecx
; Line 1854
	push	DWORD PTR _Channel$[ebp]
	mov	edi, 14480				; 00003890H
	push	edi
	call	_SearchSubtaskName
	pop	ecx
	movzx	eax, ax
	push	eax
	push	edi
	push	esi
	call	_MmrcExecuteTask
	add	esp, 16					; 00000010H
	pop	edi
	pop	esi
; Line 1855
	xor	eax, eax
	pop	ebx
; Line 1856
	pop	ebp
	ret	0
_JedecInitFunction ENDP
_TEXT	ENDS
PUBLIC	_GetSetDdrioGroup2
; Function compile flags: /Ogspy
;	COMDAT _GetSetDdrioGroup2
_TEXT	SEGMENT
_MrcData$ = 8						; size = 4
_Channel$ = 12						; size = 1
_Rank$ = 16						; size = 1
_Strobe$ = 20						; size = 1
_Type$ = 24						; size = 2
_Cmd$ = 28						; size = 1
_Value$ = 32						; size = 4
_GetSetDdrioGroup2 PROC					; COMDAT
; Line 2903
	push	ebp
	mov	ebp, esp
	push	ebx
; Line 2904
	mov	ebx, DWORD PTR _Strobe$[ebp]
	push	esi
	cmp	bl, 4
	jb	SHORT $LN8@GetSetDdri@2
	cmp	bl, 7
	jbe	SHORT $LN9@GetSetDdri@2
$LN8@GetSetDdri@2:
	mov	al, bl
	sub	al, 13					; 0000000dH
	cmp	al, 3
	ja	SHORT $LN13@GetSetDdri@2
$LN9@GetSetDdri@2:
; Line 2913
	mov	eax, DWORD PTR _Type$[ebp]
	mov	edx, 20501				; 00005015H
	mov	ecx, edx
	cmp	ax, cx
	jne	SHORT $LN7@GetSetDdri@2
; Line 2914
	lea	eax, DWORD PTR [edx+2]
	jmp	SHORT $LN1@GetSetDdri@2
$LN7@GetSetDdri@2:
; Line 2915
	mov	ecx, 20502				; 00005016H
	mov	esi, ecx
	cmp	ax, si
	jne	SHORT $LN5@GetSetDdri@2
; Line 2916
	lea	eax, DWORD PTR [ecx+2]
	jmp	SHORT $LN1@GetSetDdri@2
$LN5@GetSetDdri@2:
; Line 2917
	mov	esi, 20503				; 00005017H
	cmp	ax, si
	jne	SHORT $LN3@GetSetDdri@2
; Line 2918
	mov	eax, edx
	jmp	SHORT $LN1@GetSetDdri@2
$LN3@GetSetDdri@2:
; Line 2919
	mov	edx, 20504				; 00005018H
	cmp	ax, dx
