 StatusCodeSmm

 Timestamp is 6448e7ec (Wed Apr 26 16:59:24 2023)

 Preferred load address is 0000000000000000

 Start         Length     Name                   Class
 0001:00000000 00002223H .text                   CODE
 0002:00000000 00000930H .data                   DATA
 0002:00000930 000005feH .rdata                  DATA
 0002:00000f40 00000a59H .bss                    DATA
 0003:00000000 000000d8H .pdata                  DATA
 0004:00000000 000000ecH .xdata                  DATA

  Address         Publics by Value              Rva+Base               Lib:Object

 0000:00000000       __ImageBase                0000000000000000     <linker-defined>
 0001:00000000       _ModuleEntryPoint          00000000000002a0 f   UefiDriverEntryPoint:DriverEntryPoint.obj
 0001:000000e8       SmmUnregister              0000000000000388 f   StatusCodeSmm:StatusCodeSmm.obj
 0001:00000130       SmmRegister                00000000000003d0 f   StatusCodeSmm:StatusCodeSmm.obj
 0001:000001bc       SmmReportStatusCode        000000000000045c f   StatusCodeSmm:StatusCodeSmm.obj
 0001:0000034c       DebugPrintHelper           00000000000005ec f   StatusCodeSmm:StatusCodeSmm.obj
 0001:000003dc       DebugAssertHelper          000000000000067c f   StatusCodeSmm:StatusCodeSmm.obj
 0001:00000470       SmmInitStatusCode          0000000000000710 f   StatusCodeSmm:StatusCodeSmm.obj
 0001:00000540       ReportAssertString         00000000000007e0 f   StatusCodeSmm:StatusCodeCommon.obj
 0001:0000058c       ReportData                 000000000000082c f   StatusCodeSmm:StatusCodeCommon.obj
 0001:00000620       CreateString               00000000000008c0 f   StatusCodeSmm:StatusCodeCommon.obj
 0001:000007e4       SerialOutput               0000000000000a84 f   StatusCodeSmm:StatusCodeCommon.obj
 0001:00000858       StringStatusReport         0000000000000af8 f   StatusCodeSmm:StatusCodeCommon.obj
 0001:00000890       NullDebugServiceAssertGate 0000000000000b30 f   StatusCodeSmm:StatusCodeCommon.obj
 0001:00000890       NullDebugServicePrintGate  0000000000000b30 f   StatusCodeSmm:StatusCodeCommon.obj
 0001:00000894       Port80Checkpoint           0000000000000b34 f   StatusCodeSmm:StatusCodeCommon.obj
 0001:0000089c       CheckPointStatus           0000000000000b3c f   StatusCodeSmm:StatusCodeCommon.obj
 0001:00000924       InternalAssertJumpBuffer   0000000000000bc4 f   BaseLib:SetJump.obj
 0001:00000928       ItoaHelper                 0000000000000bc8 f   AmiDxeLib:StdLibC.obj
 0001:0000099c       StrtolEx                   0000000000000c3c f   AmiDxeLib:StdLibC.obj
 0001:00000a64       GetStatusCodeString        0000000000000d04 f   AmiDxeLib:StdLibC.obj
 0001:00000b4c       Sprintf_s_va_list          0000000000000dec f   AmiDxeLib:StdLibC.obj
 0001:00000f34       Sprintf_s                  00000000000011d4 f   AmiDxeLib:StdLibC.obj
 0001:00000f54       MemCmp                     00000000000011f4 f   AmiDxeLib:Memory.obj
 0001:00000fc8       SerialPortWrite            0000000000001268 f   BaseSerialPortLib16550Override:BaseSerialPortLib16550.obj
 0001:00001064       AsciiSPrint                0000000000001304 f   BasePrintLib:PrintLib.obj
 0001:00001090       BasePrintLibFillBuffer     0000000000001330 f   BasePrintLib:PrintLibInternal.obj
 0001:000010c4       BasePrintLibSPrintMarker   0000000000001364 f   BasePrintLib:PrintLibInternal.obj
 0001:00001f40       BasePrintLibSPrint         00000000000021e0 f   BasePrintLib:PrintLibInternal.obj
 0001:00001f70       SetJump                    0000000000002210     BaseLib:SetJump.obj
 0001:00002000       InternalLongJump           00000000000022a0     BaseLib:LongJump.obj
 0001:00002080       checkpoint                 0000000000002320 f   AmiDxeLib:checkpoint.obj
 0001:00002090       GetCpuTimer                0000000000002330 f   AmiDxeLib:GetCpuTimer.obj
 0001:000020a0       CPULib_CpuID               0000000000002340 f   AmiDxeLib:CpuLib_CpuId.obj
 0001:000020e0       memset                     0000000000002380     AmiDxeLib:MemSet.obj
 0001:000020ee       MemSetAsm                  000000000000238e f   AmiDxeLib:MemSet.obj
 0001:00002140       MemCpyAsm                  00000000000023e0 f   AmiDxeLib:MemCpy.obj
 0001:00002140       memcpy                     00000000000023e0     AmiDxeLib:MemCpy.obj
 0001:000021f0       CpuPause                   0000000000002490     BaseLib:CpuPause.obj
 0001:00002200       DisableInterrupts          00000000000024a0     BaseLib:DisableInterrupts.obj
 0001:00002210       EnableInterrupts           00000000000024b0     BaseLib:EnableInterrupts.obj
 0001:00002220       AsmReadEflags              00000000000024c0     BaseLib:ReadEflags.obj
 0002:00000000       gEfiStatusCodeSpecificDataGuid 00000000000024e0     StatusCodeSmm:AutoGen.obj
 0002:00000010       gEfiStatusCodeDataTypeStringGuid 00000000000024f0     StatusCodeSmm:AutoGen.obj
 0002:00000020       gEfiStatusCodeDataTypeDebugGuid 0000000000002500     StatusCodeSmm:AutoGen.obj
 0002:00000030       gEfiSmmRscHandlerProtocolGuid 0000000000002510     StatusCodeSmm:AutoGen.obj
 0002:00000040       gEfiSmmStatusCodeProtocolGuid 0000000000002520     StatusCodeSmm:AutoGen.obj
 0002:00000050       gAmiSmmDebugServiceProtocolGuid 0000000000002530     StatusCodeSmm:AutoGen.obj
 0002:00000060       gEfiSmmBase2ProtocolGuid   0000000000002540     StatusCodeSmm:AutoGen.obj
 0002:00000090       EfiErrorStatus             0000000000002570     AmiDxeLib:StdLibC.obj
 0002:000003d0       PiErrorStatus              00000000000028b0     AmiDxeLib:StdLibC.obj
 0002:00000420       AmiErrorStatus             0000000000002900     AmiDxeLib:StdLibC.obj
 0002:00000460       EfiWarningStatus           0000000000002940     AmiDxeLib:StdLibC.obj
 0002:000004d0       PiWarningStatus            00000000000029b0     AmiDxeLib:StdLibC.obj
 0002:00000518       EfiUnknown                 00000000000029f8     AmiDxeLib:StdLibC.obj
 0002:000005e0       ProgressCheckpointMap      0000000000002ac0     StatusCodeSmm:StatusCodeMap.obj
 0002:00000768       StringMaxSize              0000000000002c48     StatusCodeSmm:StatusCodeSmm.obj
 0002:00000770       ErrorCheckpointMap         0000000000002c50     StatusCodeSmm:StatusCodeMap.obj
 0002:000007e0       ErrorBeepMap               0000000000002cc0     StatusCodeSmm:StatusCodeMap.obj
 0002:00000830       CheckPointStatusCodes      0000000000002d10     StatusCodeSmm:StatusCodeCommon.obj
 0002:00000840       BeepStatusCodes            0000000000002d20     StatusCodeSmm:StatusCodeCommon.obj
 0002:00000850       StringList                 0000000000002d30     StatusCodeSmm:StatusCodeSmm.obj
 0002:00000860       SimpleList                 0000000000002d40     StatusCodeSmm:StatusCodeSmm.obj
 0002:00000870       CheckpointList             0000000000002d50     StatusCodeSmm:StatusCodeSmm.obj
 0002:00000880       DebugServicePrintGate      0000000000002d60     StatusCodeSmm:StatusCodeSmm.obj
 0002:00000888       DebugServiceAssertGate     0000000000002d68     StatusCodeSmm:StatusCodeSmm.obj
 0002:00000890       ErrorMessage               0000000000002d70     StatusCodeSmm:StatusCodeSmm.obj
 0002:00000910       SmmRscHandlerProtocol      0000000000002df0     StatusCodeSmm:StatusCodeSmm.obj
 0002:00000920       SmmStatusCode              0000000000002e00     StatusCodeSmm:StatusCodeSmm.obj
 0002:00000928       _gPcd_BinaryPatch_PcdSerialRegisterBase 0000000000002e08     StatusCodeSmm:AutoGen.obj
 0002:00000930       _gUefiDriverRevision       0000000000002e10     StatusCodeSmm:AutoGen.obj
 0002:00000938       ??_C@_0BM@ONHGHICJ@Uncorrectable?5CPU?5ECC?5error?$AA@ 0000000000002e18     StatusCodeSmm:StatusCodeSmm.obj
 0002:00000958       ??_C@_0BK@FMOMOIEI@Correctable?5CPU?5ECC?5error?$AA@ 0000000000002e38     StatusCodeSmm:StatusCodeSmm.obj
 0002:00000978       ??_C@_0BB@OKOHDPBF@CPU?5high?5voltage?$AA@ 0000000000002e58     StatusCodeSmm:StatusCodeSmm.obj
 0002:00000990       ??_C@_0BA@EAIAFMLE@CPU?5low?5voltage?$AA@ 0000000000002e70     StatusCodeSmm:StatusCodeSmm.obj
 0002:000009a0       ??_C@_0BC@GKNGMLOF@CPU?5thermal?5error?$AA@ 0000000000002e80     StatusCodeSmm:StatusCodeSmm.obj
 0002:000009b8       ??_C@_0BL@MKDONBBB@Uncorrectable?5memory?5error?$AA@ 0000000000002e98     StatusCodeSmm:StatusCodeSmm.obj
 0002:000009d8       ??_C@_0BJ@FLEHJECK@Correctable?5memory?5error?$AA@ 0000000000002eb8     StatusCodeSmm:StatusCodeSmm.obj
 0002:000009f8       ??_C@_0L@NGODPBLK@ERROR?3?5?$CFa?6?$AA@ 0000000000002ed8     StatusCodeSmm:StatusCodeSmm.obj
 0002:00000a08       ??_C@_0BI@PEEPINON@ASSERT?5in?5?$CFs?5on?5?$CFi?3?5?$CFs?6?$AA@ 0000000000002ee8     StatusCodeSmm:StatusCodeCommon.obj
 0002:00000a20       ??_C@_0CN@KEDECEKD@ERROR?3?5Class?3?$CFX?$DL?5Subclass?3?$CFX?$DL?5Op@ 0000000000002f00     StatusCodeSmm:StatusCodeCommon.obj
 0002:00000a50       ??_C@_02PCIJFNDE@?$AN?6?$AA@ 0000000000002f30     StatusCodeSmm:StatusCodeCommon.obj
 0002:00000a58       ??_C@_0BD@OMEPNDED@ASSERT?5?$CFa?$CI?$CFd?$CJ?3?5?$CFa?6?$AA@ 0000000000002f38     StatusCodeSmm:StatusCodeCommon.obj
 0002:00000a70       ??_C@_0M@LCCONGAO@EFI_SUCCESS?$AA@ 0000000000002f50     AmiDxeLib:StdLibC.obj
 0002:00000a80       ??_C@_0DB@PMLHLBMO@?$CF08x?9?$CF04x?9?$CF04x?9?$CF02x?$CF02x?9?$CF02x?$CF02x@ 0000000000002f60     AmiDxeLib:StdLibC.obj
 0002:00000ab4       ??_C@_06DCBEJCPP@?$CFs?$CI?$CFX?$CJ?$AA@ 0000000000002f94     AmiDxeLib:StdLibC.obj
 0002:00000abc       ??_C@_02DKCKIIND@?$CFs?$AA@ 0000000000002f9c     AmiDxeLib:StdLibC.obj
 0002:00000ac0       ??_C@_0BB@MFGDFIJM@Compromised?5Data?$AA@ 0000000000002fa0     BasePrintLib:PrintLibInternal.obj
 0002:00000ad8       ??_C@_0BB@KFJAMCOC@Invalid?5Language?$AA@ 0000000000002fb8     BasePrintLib:PrintLibInternal.obj
 0002:00000af0       ??_C@_0M@FKGOBENP@End?5of?5File?$AA@ 0000000000002fd0     BasePrintLib:PrintLibInternal.obj
 0002:00000b00       ??_C@_0O@GLPDOMCP@Reserved?5?$CI30?$CJ?$AA@ 0000000000002fe0     BasePrintLib:PrintLibInternal.obj
 0002:00000b10       ??_C@_0O@NMJOLAMF@Reserved?5?$CI29?$CJ?$AA@ 0000000000002ff0     BasePrintLib:PrintLibInternal.obj
 0002:00000b20       ??_C@_0N@JEJDHPO@End?5of?5Media?$AA@ 0000000000003000     BasePrintLib:PrintLibInternal.obj
 0002:00000b30       ??_C@_09BOMAGJEG@CRC?5Error?$AA@ 0000000000003010     BasePrintLib:PrintLibInternal.obj
 0002:00000b40       ??_C@_0BD@KHMPCIOG@Security?5Violation?$AA@ 0000000000003020     BasePrintLib:PrintLibInternal.obj
 0002:00000b58       ??_C@_0BF@EHOBGFMI@Incompatible?5Version?$AA@ 0000000000003038     BasePrintLib:PrintLibInternal.obj
 0002:00000b70       ??_C@_0P@NCJHBCLM@Protocol?5Error?$AA@ 0000000000003050     BasePrintLib:PrintLibInternal.obj
 0002:00000b80       ??_C@_0L@DJKNJKHM@TFTP?5Error?$AA@ 0000000000003060     BasePrintLib:PrintLibInternal.obj
 0002:00000b90       ??_C@_0L@LKIFCMNO@ICMP?5Error?$AA@ 0000000000003070     BasePrintLib:PrintLibInternal.obj
 0002:00000ba0       ??_C@_07LCKDCBKK@Aborted?$AA@ 0000000000003080     BasePrintLib:PrintLibInternal.obj
 0002:00000ba8       ??_C@_0BA@IGIBFFPH@Already?5started?$AA@ 0000000000003088     BasePrintLib:PrintLibInternal.obj
 0002:00000bb8       ??_C@_0M@DCJFAFHJ@Not?5started?$AA@ 0000000000003098     BasePrintLib:PrintLibInternal.obj
 0002:00000bc8       ??_C@_08PAFJCNGP@Time?5out?$AA@ 00000000000030a8     BasePrintLib:PrintLibInternal.obj
 0002:00000bd8       ??_C@_0L@IFPBNFC@No?5mapping?$AA@ 00000000000030b8     BasePrintLib:PrintLibInternal.obj
 0002:00000be8       ??_C@_0M@ENKCBFEP@No?5Response?$AA@ 00000000000030c8     BasePrintLib:PrintLibInternal.obj
 0002:00000bf8       ??_C@_0O@NFHOBIDO@Access?5Denied?$AA@ 00000000000030d8     BasePrintLib:PrintLibInternal.obj
 0002:00000c08       ??_C@_09CFCBFJND@Not?5Found?$AA@ 00000000000030e8     BasePrintLib:PrintLibInternal.obj
 0002:00000c18       ??_C@_0O@JNCJKCCD@Media?5changed?$AA@ 00000000000030f8     BasePrintLib:PrintLibInternal.obj
 0002:00000c28       ??_C@_08KEGAJDNN@No?5Media?$AA@ 0000000000003108     BasePrintLib:PrintLibInternal.obj
 0002:00000c38       ??_C@_0M@HDLEPOFA@Volume?5Full?$AA@ 0000000000003118     BasePrintLib:PrintLibInternal.obj
 0002:00000c48       ??_C@_0P@EIOJGIF@Volume?5Corrupt?$AA@ 0000000000003128     BasePrintLib:PrintLibInternal.obj
 0002:00000c58       ??_C@_0BB@GOILNEAA@Out?5of?5Resources?$AA@ 0000000000003138     BasePrintLib:PrintLibInternal.obj
 0002:00000c70       ??_C@_0BA@LNEDDFNB@Write?5Protected?$AA@ 0000000000003150     BasePrintLib:PrintLibInternal.obj
 0002:00000c80       ??_C@_0N@HHEABDHO@Device?5Error?$AA@ 0000000000003160     BasePrintLib:PrintLibInternal.obj
 0002:00000c90       ??_C@_09NKFGCIPN@Not?5Ready?$AA@ 0000000000003170     BasePrintLib:PrintLibInternal.obj
 0002:00000ca0       ??_C@_0BB@EGELJFOB@Buffer?5Too?5Small?$AA@ 0000000000003180     BasePrintLib:PrintLibInternal.obj
 0002:00000cb8       ??_C@_0BA@FLNMPMCF@Bad?5Buffer?5Size?$AA@ 0000000000003198     BasePrintLib:PrintLibInternal.obj
 0002:00000cc8       ??_C@_0M@BEECMOIL@Unsupported?$AA@ 00000000000031a8     BasePrintLib:PrintLibInternal.obj
 0002:00000cd8       ??_C@_0BC@HOFHKGJN@Invalid?5Parameter?$AA@ 00000000000031b8     BasePrintLib:PrintLibInternal.obj
 0002:00000cf0       ??_C@_0L@PLPBEPPC@Load?5Error?$AA@ 00000000000031d0     BasePrintLib:PrintLibInternal.obj
 0002:00000d00       ??_C@_0BD@IFJNJCCO@Warning?5Stale?5Data?$AA@ 00000000000031e0     BasePrintLib:PrintLibInternal.obj
 0002:00000d18       ??_C@_0BJ@ODIPDGHB@Warning?5Buffer?5Too?5Small?$AA@ 00000000000031f8     BasePrintLib:PrintLibInternal.obj
 0002:00000d38       ??_C@_0BG@ECIJMOED@Warning?5Write?5Failure?$AA@ 0000000000003218     BasePrintLib:PrintLibInternal.obj
 0002:00000d50       ??_C@_0BH@GKKCJEPJ@Warning?5Delete?5Failure?$AA@ 0000000000003230     BasePrintLib:PrintLibInternal.obj
 0002:00000d68       ??_C@_0BG@CFJMNNJK@Warning?5Unknown?5Glyph?$AA@ 0000000000003248     BasePrintLib:PrintLibInternal.obj
 0002:00000d80       ??_C@_07PBILKAFL@Success?$AA@ 0000000000003260     BasePrintLib:PrintLibInternal.obj
 0002:00000d88       mHexStr                    0000000000003268     BasePrintLib:PrintLibInternal.obj
 0002:00000da0       mStatusString              0000000000003280     BasePrintLib:PrintLibInternal.obj
 0002:00000ed8       ??_C@_0O@MLOLIMFM@?$DMnull?5string?$DO?$AA@ 00000000000033b8     BasePrintLib:PrintLibInternal.obj
 0002:00000ee8       ??_C@_0M@BJJDNPHK@?$DMnull?5guid?$DO?$AA@ 00000000000033c8     BasePrintLib:PrintLibInternal.obj
 0002:00000ef8       ??_C@_0M@LHGBCIKM@?$DMnull?5time?$DO?$AA@ 00000000000033d8     BasePrintLib:PrintLibInternal.obj
 0002:00000f08       ??_C@_0BK@FCPKCIDD@?$CF02d?1?$CF02d?1?$CF04d?5?5?$CF02d?3?$CF02d?$AA@ 00000000000033e8     BasePrintLib:PrintLibInternal.obj
 0002:00000f24       ??_C@_04JIMNDDED@?$CF08X?$AA@ 0000000000003404     BasePrintLib:PrintLibInternal.obj
 0002:00000f2c       ??_C@_01LIIJDEN@?$AN?$AA@  000000000000340c     BasePrintLib:PrintLibInternal.obj
 0002:00001050       InitPartsList              0000000000003530     StatusCodeSmm:StatusCodeSmm.obj
 0002:00001058       MiscList                   0000000000003538     StatusCodeSmm:StatusCodeSmm.obj
 0002:00001060       DebugServicePrintList      0000000000003540     StatusCodeSmm:StatusCodeSmm.obj
 0002:00001068       DebugServiceAssertList     0000000000003548     StatusCodeSmm:StatusCodeSmm.obj
 0002:00001070       ErrorCodeActions           0000000000003550     StatusCodeSmm:StatusCodeSmm.obj
 0002:00001080       StatusRuntime              0000000000003560     StatusCodeSmm:StatusCodeCommon.obj
 0002:00001088       RtErrorCodeActions         0000000000003568     StatusCodeSmm:StatusCodeCommon.obj
 0002:00001098       ProgressBeepMap            0000000000003578     StatusCodeSmm:StatusCodeMap.obj
 0002:000010a0       gImageHandle               0000000000003580     UefiBootServicesTableLib:UefiBootServicesTableLib.obj
 0002:000010a8       gST                        0000000000003588     UefiBootServicesTableLib:UefiBootServicesTableLib.obj
 0002:000010b0       gBS                        0000000000003590     UefiBootServicesTableLib:UefiBootServicesTableLib.obj
 0002:000010b8       gSmst                      0000000000003598     SmmServicesTableLib:SmmServicesTableLib.obj
 0002:00001100       pST                        00000000000035e0     AmiDxeLib:EfiLib.obj
 0002:00001108       pBS                        00000000000035e8     AmiDxeLib:EfiLib.obj
 0002:00001110       pRS                        00000000000035f0     AmiDxeLib:EfiLib.obj
 0002:00001118       TheImageHandle             00000000000035f8     AmiDxeLib:EfiLib.obj
 0002:00001120       gNullVaList                0000000000003600     <common>
 0002:00001128       mPerformanceMeasurementEnabled 0000000000003608     <common>
 0002:00001140       String                     0000000000003620     <common>
 0002:00001940       SmmRouterCallbackStr       0000000000003e20     <common>
 0002:00001998       RouterRecurciveStatus      0000000000003e78     <common>

 entry point at        0001:00000000

 Static symbols

