; Listing generated by Microsoft (R) Optimizing Compiler Version 15.00.30729.207 

	TITLE	d:\bios\z124-002\z124-002\DenvertonPkg\SystemAgent\Mrc\Mmrc\ProjectData\DNV\External\Source\ConfigMemData.c
	.686P
	.XMM
	include listing.inc
	.model	flat

INCLUDELIB LIBCMT
INCLUDELIB OLDNAMES

PUBLIC	_TimingGuardbands
PUBLIC	_mDdrMemoryFrequencyTable
PUBLIC	_mCoreFrequencyTable
PUBLIC	_mDdr3Freq2WLTable
PUBLIC	_mDdr4Freq2WLTable
PUBLIC	_mDdrMaxSreDly
PUBLIC	_mFawTableDdr3
PUBLIC	_mFawTableDdr4
PUBLIC	_mDmapRegisters
PUBLIC	_mDimmConfigs
PUBLIC	_mDimmActivate
PUBLIC	_RaplDimmConfigs
PUBLIC	_RaplBandWidthScaleValues
_DATA	SEGMENT
COMM	_CPGC_CONFIG_TYPES:DWORD
_TimingGuardbands DB 06H
	DB	07H
	DB	09H
	DB	05H
	DB	0aH
	DB	02H
	DB	02H
	DB	02H
	DB	02H
	DB	02H
	DB	02H
	DB	02H
	DB	02H
	DB	02H
	DB	02H
	DB	02H
	DB	02H
	DB	02H
	DB	02H
	DB	02H
	DB	02H
	DB	02H
	DB	02H
	DB	02H
	DB	02H
	DB	00H
	DB	00H
	DB	00H
	DB	00H
	DB	00H
	DB	02H
	DB	02H
	DB	02H
	DB	02H
	DB	07H
	DB	03H
	DB	03H
	DB	03H
	DB	03H
	DB	03H
	DB	02H
	DB	02H
	DB	02H
	DB	02H
	DB	02H
	DB	00H
	DB	00H
	DB	00H
	DB	00H
	DB	00H
	DB	02H
	DB	02H
	DB	02H
	DB	02H
	DB	02H
	DB	03H
	DB	03H
	DB	03H
	DB	03H
	DB	03H
_mDdrMemoryFrequencyTable DW 0640H
	DW	074aH
	DW	0855H
	DW	0960H
	DW	0a6aH
	ORG $+2
_mCoreFrequencyTable DW 0320H
	DW	042aH
	ORG $+2
	ORG $+2
_mDdr3Freq2WLTable DB 08H
	DB	09H
	DB	0aH
	DB	0bH
	DB	0cH
	ORG $+3
_mDdr4Freq2WLTable DB 0bH
	DB	0cH
	DB	0eH
	DB	010H
	DB	012H
	ORG $+3
_mDdrMaxSreDly DW 0514H
	DW	044cH
	DW	03b6H
	DW	0352H
	DW	02eeH
	ORG $+2
_mFawTableDdr3 DB 018H
	DB	020H
	DB	01aH
	DB	021H
	DB	00H
	DB	00H
	DB	00H
	DB	00H
	DB	00H
	DB	00H
	ORG $+2
_mFawTableDdr4 DB 010H
	DB	014H
	DB	01cH
	DB	010H
	DB	016H
	DB	01cH
	DB	010H
	DB	017H
	DB	020H
	DB	010H
	DB	01aH
	DB	024H
	DB	010H
	DB	01cH
	DB	028H
	ORG $+1
_mDmapRegisters DD 07ffb167H
	DD	03fH
	DD	020f73528H
	DD	02d5a4e51H
	DD	03fffe717H
	DD	06543210H
	DD	027ffb167H
	DD	03fH
	DD	01ee6a928H
	DD	02b49ca30H
	DD	03ffce2f6H
	DD	06543210H
	DD	029ffb167H
	DD	01fH
	DD	01ee6a928H
	DD	02b49ca30H
	DD	03ffd62f6H
	DD	06543210H
	DD	0272fb167H
	DD	03fH
	DD	01ee6a928H
	DD	02b49ca30H
	DD	03fffe2f6H
	DD	06543210H
	DD	0292fb167H
	DD	03fH
	DD	01ee6a928H
	DD	02b49ca30H
	DD	03ffd62f6H
	DD	06543210H
	DD	02b2fb167H
	DD	020H
	DD	01ee6a928H
	DD	02b49ca30H
	DD	03ffde2f6H
	DD	06543210H
	DD	03fffb167H
	DD	03fH
	DD	01ee6a928H
	DD	02b49ca30H
	DD	03fffe2f6H
	DD	06543210H
	DD	027ffb167H
	DD	03fH
	DD	01ee6a928H
	DD	02b49ca30H
	DD	03ffce2f6H
	DD	06543210H
	DD	07ffb167H
	DD	03fH
	DD	020f73528H
	DD	02d5a4e51H
	DD	03ffd6717H
	DD	06543210H
	DD	029ffb167H
	DD	020H
	DD	01ee6a928H
	DD	02b49ca30H
	DD	03ffce2f6H
	DD	06543210H
	DD	073fb167H
	DD	03fH
	DD	020f73528H
	DD	02d5a4e51H
	DD	03ffd6717H
	DD	06543210H
	DD	0293fb167H
	DD	03fH
	DD	01ee6a928H
	DD	02b49ca30H
	DD	03ffce2f6H
	DD	06543210H
	DD	02b3fb167H
	DD	021H
	DD	01ee6a928H
	DD	02b49ca30H
	DD	03ffce2f6H
	DD	06543210H
	DD	03fffb167H
	DD	03fH
	DD	01ee6a928H
	DD	02b49ca30H
	DD	03ffce2f6H
	DD	06543210H
	DD	029ffb167H
	DD	01fH
	DD	01ee6a928H
	DD	02b49ca30H
	DD	03ffd62f6H
	DD	06543210H
	DD	029ffb167H
	DD	020H
	DD	01ee6a928H
	DD	02b49ca30H
	DD	03ffce2f6H
	DD	06543210H
	DD	07ffb167H
	DD	01fH
	DD	020f73528H
	DD	02d5a4e51H
	DD	03ffdeb17H
	DD	06543210H
	DD	0292fb167H
	DD	020H
	DD	01ee6a928H
	DD	02b49ca30H
	DD	03ffce2f6H
	DD	06543210H
	DD	074fb167H
	DD	021H
	DD	020f73528H
	DD	02d5a4e51H
	DD	03ffd6717H
	DD	06543210H
	DD	02b4fb167H
	DD	01fH
	DD	01ee6a928H
	DD	02b49ca30H
	DD	03ffd62f6H
	DD	06543210H
	DD	03fffb167H
	DD	01fH
	DD	01ee6a928H
	DD	02b49ca30H
	DD	03ffd62f6H
	DD	06543210H
	DD	07ffb167H
	DD	03fH
	DD	020f73528H
	DD	02d5a4e51H
	DD	03fffff17H
	DD	06543210H
	DD	025ffb167H
	DD	03fH
	DD	01ee6a928H
	DD	02b49ca30H
	DD	03fffe2f6H
	DD	06543210H
	DD	027ffb167H
	DD	03fH
	DD	01ee6a928H
	DD	02b49ca30H
	DD	03ffce2f6H
	DD	06543210H
	DD	0251fb167H
	DD	03fH
	DD	01ee6a928H
	DD	02b49ca30H
	DD	03ffffef6H
	DD	06543210H
	DD	0271fb167H
	DD	03fH
	DD	01ee6a928H
	DD	02b49ca30H
	DD	03fffe6f6H
	DD	06543210H
	DD	0291fb167H
	DD	03fH
	DD	01ee6a928H
	DD	02b49ca30H
	DD	03ffd66f6H
	DD	06543210H
	DD	03fffb167H
	DD	03fH
	DD	01ee6a928H
	DD	02b49ca30H
	DD	03ffffef6H
	DD	06543210H
	DD	025ffb167H
	DD	03fH
	DD	01ee6a928H
	DD	02b49ca30H
	DD	03fffe2f6H
	DD	06543210H
	DD	07ffb167H
	DD	03fH
	DD	020f73528H
	DD	02d5a4e51H
	DD	03fffe717H
	DD	06543210H
	DD	027ffb167H
	DD	03fH
	DD	01ee6a928H
	DD	02b49ca30H
	DD	03ffce2f6H
	DD	06543210H
	DD	072fb167H
	DD	03fH
	DD	020f73528H
	DD	02d5a4e51H
	DD	03fffe717H
	DD	06543210H
	DD	0272fb167H
	DD	03fH
	DD	01ee6a928H
	DD	02b49ca30H
	DD	03fffe2f6H
	DD	06543210H
	DD	0292fb167H
	DD	03fH
	DD	01ee6a928H
	DD	02b49ca30H
	DD	03ffd62f6H
	DD	06543210H
	DD	03fffb167H
	DD	03fH
	DD	01ee6a928H
	DD	02b49ca30H
	DD	03fffe2f6H
	DD	06543210H
	DD	027ffb167H
	DD	03fH
	DD	01ee6a928H
	DD	02b49ca30H
	DD	03ffce2f6H
	DD	06543210H
	DD	027ffb167H
	DD	03fH
	DD	01ee6a928H
	DD	02b49ca30H
	DD	03ffce2f6H
	DD	06543210H
	DD	07ffb167H
	DD	03fH
	DD	020f73528H
	DD	02d5a4e51H
	DD	03ffd6717H
	DD	06543210H
	DD	0271fb167H
	DD	03fH
	DD	01ee6a928H
	DD	02b49ca30H
	DD	03ffce2f6H
	DD	06543210H
	DD	073fb167H
	DD	03fH
	DD	020f73528H
	DD	02d5a4e51H
	DD	03ffd6717H
	DD	06543210H
	DD	0293fb167H
	DD	03fH
	DD	01ee6a928H
	DD	02b49ca30H
	DD	03ffce2f6H
	DD	06543210H
	DD	03fffb167H
	DD	03fH
	DD	01ee6a928H
	DD	02b49ca30H
	DD	03ffce2f6H
	DD	06543210H
	DD	0272fb167H
	DD	03fH
	DD	01ee6a928H
	DD	02b49ca30H
	DD	03fffe2f6H
	DD	06543210H
	DD	073fb167H
	DD	03fH
	DD	020f73528H
	DD	02d5a4e51H
	DD	03ffd6717H
	DD	06543210H
	DD	0292fb167H
	DD	020H
	DD	01ee6a928H
	DD	02b49ca30H
	DD	03ffce2f6H
	DD	06543210H
	DD	061fb167H
	DD	03fH
	DD	02307b9a9H
	DD	02f6ad272H
	DD	03fffeb38H
	DD	06543210H
	DD	0281fb167H
	DD	03fH
	DD	020f73549H
	DD	02d5a4e51H
	DD	03ffd6717H
	DD	06543210H
	DD	02a1fb167H
	DD	020H
	DD	020f73549H
	DD	02d5a4e51H
	DD	03ffde717H
	DD	06543210H
	DD	03e1fb167H
	DD	03fH
	DD	020f73549H
	DD	02d5a4e51H
	DD	03fffe717H
	DD	06543210H
	DD	0292fb167H
	DD	03fH
	DD	01ee6a928H
	DD	02b49ca30H
	DD	03ffd62f6H
	DD	06543210H
	DD	0293fb167H
	DD	03fH
	DD	01ee6a928H
	DD	02b49ca30H
	DD	03ffce2f6H
	DD	06543210H
	DD	074fb167H
	DD	021H
	DD	020f73528H
	DD	02d5a4e51H
	DD	03ffd6717H
	DD	06543210H
	DD	0281fb167H
	DD	03fH
	DD	020f73549H
	DD	02d5a4e51H
	DD	03ffd6717H
	DD	06543210H
	DD	061fb167H
	DD	03fH
	DD	02307b9a9H
	DD	02f6ad272H
	DD	03ffdeb38H
	DD	06543210H
	DD	02a1fb167H
	DD	021H
	DD	020f73549H
	DD	02d5a4e51H
	DD	03ffd6717H
	DD	06543210H
	DD	03e1fb167H
	DD	03fH
	DD	020f73549H
	DD	02d5a4e51H
	DD	03ffd6717H
	DD	06543210H
	DD	02b2fb167H
	DD	020H
	DD	01ee6a928H
	DD	02b49ca30H
	DD	03ffde2f6H
	DD	06543210H
	DD	02b3fb167H
	DD	021H
	DD	01ee6a928H
	DD	02b49ca30H
	DD	03ffce2f6H
	DD	06543210H
	DD	02b4fb167H
	DD	01fH
	DD	01ee6a928H
	DD	02b49ca30H
	DD	03ffd62f6H
	DD	06543210H
	DD	02a1fb167H
	DD	020H
	DD	020f73549H
	DD	02d5a4e51H
	DD	03ffde717H
	DD	06543210H
	DD	02a1fb167H
	DD	021H
	DD	020f73549H
	DD	02d5a4e51H
	DD	03ffd6717H
	DD	06543210H
	DD	061fb167H
	DD	01fH
	DD	02307b9a9H
	DD	02f6ad272H
	DD	03ffe6f58H
	DD	06543210H
	DD	03e1fb167H
	DD	01fH
	DD	020f73549H
	DD	02d5a4e51H
	DD	03ffdeb17H
	DD	06543210H
	DD	0251fb167H
	DD	03fH
	DD	01ee6a928H
	DD	02b49ca30H
	DD	03ffffef6H
	DD	06543210H
	DD	072fb167H
	DD	03fH
	DD	020f73528H
	DD	02d5a4e51H
	DD	03fffe717H
	DD	06543210H
	DD	0271fb167H
	DD	03fH
	DD	01ee6a928H
	DD	02b49ca30H
	DD	03ffce2f6H
	DD	06543210H
	DD	061fb167H
	DD	03fH
	DD	02307b9a9H
	DD	02f6ad272H
	DD	03fffff38H
	DD	06543210H
	DD	0261fb167H
	DD	03fH
	DD	020f73549H
	DD	02d5a4e51H
	DD	03fffe717H
	DD	06543210H
	DD	0281fb167H
	DD	03fH
	DD	020f73549H
	DD	02d5a4e51H
	DD	03ffd6717H
	DD	06543210H
	DD	03e1fb167H
	DD	03fH
	DD	020f73549H
	DD	02d5a4e51H
	DD	03fffff17H
	DD	06543210H
	DD	0271fb167H
	DD	03fH
	DD	01ee6a928H
	DD	02b49ca30H
	DD	03fffe6f6H
	DD	06543210H
	DD	0272fb167H
	DD	03fH
	DD	01ee6a928H
	DD	02b49ca30H
	DD	03fffe2f6H
	DD	06543210H
	DD	073fb167H
	DD	03fH
	DD	020f73528H
	DD	02d5a4e51H
	DD	03ffd6717H
	DD	06543210H
	DD	0261fb167H
	DD	03fH
	DD	020f73549H
	DD	02d5a4e51H
	DD	03fffe717H
	DD	06543210H
	DD	061fb167H
	DD	03fH
	DD	02307b9a9H
	DD	02f6ad272H
	DD	03fffeb38H
	DD	06543210H
	DD	0281fb167H
	DD	03fH
	DD	020f73549H
	DD	02d5a4e51H
	DD	03ffd6717H
	DD	06543210H
	DD	03e1fb167H
	DD	03fH
	DD	020f73549H
	DD	02d5a4e51H
	DD	03fffe717H
	DD	06543210H
	DD	0291fb167H
	DD	03fH
	DD	01ee6a928H
	DD	02b49ca30H
	DD	03ffd66f6H
	DD	06543210H
	DD	0292fb167H
	DD	03fH
	DD	01ee6a928H
	DD	02b49ca30H
	DD	03ffd62f6H
	DD	06543210H
	DD	0293fb167H
	DD	03fH
	DD	01ee6a928H
	DD	02b49ca30H
	DD	03ffce2f6H
	DD	06543210H
	DD	0281fb167H
	DD	03fH
	DD	020f73549H
	DD	02d5a4e51H
	DD	03ffd6717H
	DD	06543210H
	DD	0281fb167H
	DD	03fH
	DD	020f73549H
	DD	02d5a4e51H
	DD	03ffd6717H
	DD	06543210H
	DD	061fb167H
	DD	03fH
	DD	02307b9a9H
	DD	02f6ad272H
	DD	03ffdeb38H
	DD	06543210H
	DD	03e1fb167H
	DD	03fH
	DD	020f73549H
	DD	02d5a4e51H
	DD	03ffd6717H
	DD	06543210H
	DD	07f61dabH
	DD	03fH
	DD	02307b928H
	DD	02f6ad272H
	DD	03fffeb38H
	DD	06543210H
	DD	029f61dabH
	DD	03fH
	DD	020f72928H
	DD	02d5a4e51H
	DD	03ffd6717H
	DD	06543210H
	DD	02bf61dabH
	DD	03fH
	DD	020f72928H
	DD	02d5a4e51H
	DD	03fbd6717H
	DD	06543210H
	DD	02df61dabH
	DD	03fH
	DD	020f72928H
	DD	02d5a4e51H
	DD	039bd6717H
	DD	06543210H
	DD	07f601abH
	DD	03fH
	DD	02307b928H
	DD	02f6ad272H
	DD	03fffeb38H
	DD	07654321H
	DD	029f601abH
	DD	03fH
	DD	020f72928H
	DD	02d5a4e51H
	DD	03ffd6717H
	DD	07654321H
	DD	02bf601abH
	DD	03fH
	DD	020f72928H
	DD	02d5a4e51H
	DD	03fbd6717H
	DD	07654321H
	DD	02df601abH
	DD	03fH
	DD	020f72928H
	DD	02d5a4e51H
	DD	039bd6717H
	DD	07654321H
	DD	07f081abH
	DD	03fH
	DD	02307b989H
	DD	02f6ad272H
	DD	03fffeb38H
	DD	08765432H
	DD	029f081abH
	DD	03fH
	DD	020f73149H
	DD	02d5a4e51H
	DD	03ffd6717H
	DD	08765432H
	DD	02bf081abH
	DD	03fH
	DD	020f73149H
	DD	02d5a4e51H
	DD	03fbd6717H
	DD	08765432H
	DD	02df081abH
	DD	03fH
	DD	020f73149H
	DD	02d5a4e51H
	DD	039bd6717H
	DD	08765432H
	DD	029361dabH
	DD	03fH
	DD	020f72928H
	DD	02d5a4e51H
	DD	03fffe717H
	DD	06543210H
	DD	02b361dabH
	DD	03fH
	DD	020f72928H
	DD	02d5a4e51H
	DD	03ffde717H
	DD	06543210H
	DD	02d361dabH
	DD	03fH
	DD	020f72928H
	DD	02d5a4e51H
	DD	03fcde717H
	DD	06543210H
	DD	02f361dabH
	DD	03fH
	DD	020f72928H
	DD	02d5a4e51H
	DD	03bcde717H
	DD	06543210H
	DD	0293601abH
	DD	03fH
	DD	020f72928H
	DD	02d5a4e51H
	DD	03fffe717H
	DD	07654321H
	DD	02b3601abH
	DD	03fH
	DD	020f72928H
	DD	02d5a4e51H
	DD	03ffde717H
	DD	07654321H
	DD	02d3601abH
	DD	03fH
	DD	020f72928H
	DD	02d5a4e51H
	DD	03fcde717H
	DD	07654321H
	DD	02f3601abH
	DD	03fH
	DD	020f72928H
	DD	02d5a4e51H
	DD	03bcde717H
	DD	07654321H
	DD	0293081abH
	DD	03fH
	DD	020f73149H
	DD	02d5a4e51H
	DD	03fffe717H
	DD	08765432H
	DD	02b3081abH
	DD	03fH
	DD	020f73149H
	DD	02d5a4e51H
	DD	03ffde717H
	DD	08765432H
	DD	02d3081abH
	DD	03fH
	DD	020f73149H
	DD	02d5a4e51H
	DD	03fcde717H
	DD	08765432H
	DD	02f3081abH
	DD	03fH
	DD	020f73149H
	DD	02d5a4e51H
	DD	03bcde717H
	DD	08765432H
	DD	03ff61dabH
	DD	03fH
	DD	020f72928H
	DD	02d5a4e51H
	DD	03fffe717H
	DD	06543210H
	DD	03ff601abH
	DD	03fH
	DD	020f72928H
	DD	02d5a4e51H
	DD	03fffe717H
	DD	07654321H
	DD	03ff081abH
	DD	03fH
	DD	020f73149H
	DD	02d5a4e51H
	DD	03fffe717H
	DD	08765432H
	DD	029f61dabH
	DD	03fH
	DD	020f72928H
	DD	02d5a4e51H
	DD	03ffd6717H
	DD	06543210H
	DD	07f61dabH
	DD	03fH
	DD	02307b928H
	DD	02f6ad272H
	DD	03ffdeb38H
	DD	06543210H
	DD	02bf61dabH
	DD	03fH
	DD	020f72928H
	DD	02d5a4e51H
	DD	03fbd6717H
	DD	06543210H
	DD	02df61dabH
	DD	03fH
	DD	020f72928H
	DD	02d5a4e51H
	DD	039bd6717H
	DD	06543210H
	DD	029f601abH
	DD	03fH
	DD	020f72928H
	DD	02d5a4e51H
	DD	03ffd6717H
	DD	07654321H
	DD	07f601abH
	DD	03fH
	DD	02307b928H
	DD	02f6ad272H
	DD	03ffdeb38H
	DD	07654321H
	DD	02bf601abH
	DD	03fH
	DD	020f72928H
	DD	02d5a4e51H
	DD	03fbd6717H
	DD	07654321H
	DD	02df601abH
	DD	03fH
	DD	020f72928H
	DD	02d5a4e51H
	DD	039bd6717H
	DD	07654321H
	DD	029f081abH
	DD	03fH
	DD	020f73149H
	DD	02d5a4e51H
	DD	03ffd6717H
	DD	08765432H
	DD	07f081abH
	DD	03fH
	DD	02307b989H
	DD	02f6ad272H
	DD	03ffdeb38H
	DD	08765432H
	DD	02bf081abH
	DD	03fH
	DD	020f73149H
	DD	02d5a4e51H
	DD	03fbd6717H
	DD	08765432H
	DD	02df081abH
	DD	03fH
	DD	020f73149H
	DD	02d5a4e51H
	DD	039bd6717H
	DD	08765432H
	DD	07461dabH
	DD	03fH
	DD	02307b928H
	DD	02f6ad272H
	DD	03ffdeb38H
	DD	06543210H
	DD	02b461dabH
	DD	03fH
	DD	020f72928H
	DD	02d5a4e51H
	DD	03ffd6717H
	DD	06543210H
	DD	02d461dabH
	DD	03fH
	DD	020f72928H
	DD	02d5a4e51H
	DD	03fcd6717H
	DD	06543210H
	DD	02f461dabH
	DD	03fH
	DD	020f72928H
	DD	02d5a4e51H
	DD	03bcd6717H
	DD	06543210H
	DD	074601abH
	DD	03fH
	DD	02307b928H
	DD	02f6ad272H
	DD	03ffdeb38H
	DD	07654321H
	DD	02b4601abH
	DD	03fH
	DD	020f72928H
	DD	02d5a4e51H
	DD	03ffd6717H
	DD	07654321H
	DD	02d4601abH
	DD	03fH
	DD	020f72928H
	DD	02d5a4e51H
	DD	03fcd6717H
	DD	07654321H
	DD	02f4601abH
	DD	03fH
	DD	020f72928H
	DD	02d5a4e51H
	DD	03bcd6717H
	DD	07654321H
	DD	074081abH
	DD	03fH
	DD	02307b989H
	DD	02f6ad272H
	DD	03ffdeb38H
	DD	08765432H
	DD	02b4081abH
	DD	03fH
	DD	020f73149H
	DD	02d5a4e51H
	DD	03ffd6717H
	DD	08765432H
	DD	02d4081abH
	DD	03fH
	DD	020f73149H
	DD	02d5a4e51H
	DD	03fcd6717H
	DD	08765432H
	DD	02f4081abH
	DD	03fH
	DD	020f73149H
	DD	02d5a4e51H
	DD	03bcd6717H
	DD	08765432H
	DD	03ff61dabH
	DD	03fH
	DD	020f72928H
	DD	02d5a4e51H
	DD	03ffd6717H
	DD	06543210H
	DD	03ff601abH
	DD	03fH
	DD	020f72928H
	DD	02d5a4e51H
	DD	03ffd6717H
	DD	07654321H
	DD	03ff081abH
	DD	03fH
	DD	020f73149H
	DD	02d5a4e51H
	DD	03ffd6717H
	DD	08765432H
	DD	02bf61dabH
	DD	03fH
	DD	020f72928H
	DD	02d5a4e51H
	DD	03fbd6717H
	DD	06543210H
	DD	02bf61dabH
	DD	03fH
	DD	020f72928H
	DD	02d5a4e51H
	DD	03fbd6717H
	DD	06543210H
	DD	07f61dabH
	DD	03fH
	DD	02307b928H
	DD	02f6ad272H
	DD	03fcdeb38H
	DD	06543210H
	DD	02df61dabH
	DD	03fH
	DD	020f72928H
	DD	02d5a4e51H
	DD	039bd6717H
	DD	06543210H
	DD	02bf601abH
	DD	03fH
	DD	020f72928H
	DD	02d5a4e51H
	DD	03fbd6717H
	DD	07654321H
	DD	02bf601abH
	DD	03fH
	DD	020f72928H
	DD	02d5a4e51H
	DD	03fbd6717H
	DD	07654321H
	DD	07f601abH
	DD	03fH
	DD	02307b928H
	DD	02f6ad272H
	DD	03fcdeb38H
	DD	07654321H
	DD	02df601abH
	DD	03fH
	DD	020f72928H
	DD	02d5a4e51H
	DD	039bd6717H
	DD	07654321H
	DD	02bf081abH
	DD	03fH
	DD	020f73149H
	DD	02d5a4e51H
	DD	03fbd6717H
	DD	08765432H
	DD	02bf081abH
	DD	03fH
	DD	020f73149H
	DD	02d5a4e51H
	DD	03fbd6717H
	DD	08765432H
	DD	07f081abH
	DD	03fH
	DD	02307b989H
	DD	02f6ad272H
	DD	03fcdeb38H
	DD	08765432H
	DD	02df081abH
	DD	03fH
	DD	020f73149H
	DD	02d5a4e51H
	DD	039bd6717H
	DD	08765432H
	DD	02b361dabH
	DD	03fH
	DD	020f72928H
	DD	02d5a4e51H
	DD	03fbd6717H
	DD	06543210H
	DD	07561dabH
	DD	03fH
	DD	02307b928H
	DD	02f6ad272H
	DD	03fcdeb38H
	DD	06543210H
	DD	02d561dabH
	DD	03fH
	DD	020f72928H
	DD	02d5a4e51H
	DD	03fbd6717H
	DD	06543210H
	DD	02f561dabH
	DD	03fH
	DD	020f72928H
	DD	02d5a4e51H
	DD	03bbd6717H
	DD	06543210H
	DD	02b3601abH
	DD	03fH
	DD	020f72928H
	DD	02d5a4e51H
	DD	03fbd6717H
	DD	07654321H
	DD	075601abH
	DD	03fH
	DD	02307b928H
	DD	02f6ad272H
	DD	03fcdeb38H
	DD	07654321H
	DD	02d5601abH
	DD	03fH
	DD	020f72928H
	DD	02d5a4e51H
	DD	03fbd6717H
	DD	07654321H
	DD	02f5601abH
	DD	03fH
	DD	020f72928H
	DD	02d5a4e51H
	DD	03bbd6717H
	DD	07654321H
	DD	02b3081abH
	DD	03fH
	DD	020f73149H
	DD	02d5a4e51H
	DD	03fbd6717H
	DD	08765432H
	DD	075081abH
	DD	03fH
	DD	02307b989H
	DD	02f6ad272H
	DD	03fcdeb38H
	DD	08765432H
	DD	02d5081abH
	DD	03fH
	DD	020f73149H
	DD	02d5a4e51H
	DD	03fbd6717H
	DD	08765432H
	DD	02f5081abH
	DD	03fH
	DD	020f73149H
	DD	02d5a4e51H
	DD	03bbd6717H
	DD	08765432H
	DD	03ff61dabH
	DD	03fH
	DD	020f72928H
	DD	02d5a4e51H
	DD	03fbd6717H
	DD	06543210H
	DD	03ff601abH
	DD	03fH
	DD	020f72928H
	DD	02d5a4e51H
	DD	03fbd6717H
	DD	07654321H
	DD	03ff081abH
	DD	03fH
	DD	020f73149H
	DD	02d5a4e51H
	DD	03fbd6717H
	DD	08765432H
	DD	02df61dabH
	DD	03fH
	DD	020f72928H
	DD	02d5a4e51H
	DD	039bd6717H
	DD	06543210H
	DD	02df61dabH
	DD	03fH
	DD	020f72928H
	DD	02d5a4e51H
	DD	039bd6717H
	DD	06543210H
	DD	02df61dabH
	DD	03fH
	DD	020f72928H
	DD	02d5a4e51H
	DD	039bd6717H
	DD	06543210H
	DD	07f61dabH
	DD	03fH
	DD	02307b928H
	DD	02f6ad272H
	DD	03bcdeb38H
	DD	06543210H
	DD	02df601abH
	DD	03fH
	DD	020f72928H
	DD	02d5a4e51H
	DD	039bd6717H
	DD	07654321H
	DD	02df601abH
	DD	03fH
	DD	020f72928H
	DD	02d5a4e51H
	DD	039bd6717H
	DD	07654321H
	DD	02df601abH
	DD	03fH
	DD	020f72928H
	DD	02d5a4e51H
	DD	039bd6717H
	DD	07654321H
	DD	07f601abH
	DD	03fH
	DD	02307b928H
	DD	02f6ad272H
	DD	03bcdeb38H
	DD	07654321H
	DD	02df081abH
	DD	03fH
	DD	020f73149H
	DD	02d5a4e51H
	DD	039bd6717H
	DD	08765432H
	DD	02df081abH
	DD	03fH
	DD	020f73149H
	DD	02d5a4e51H
	DD	039bd6717H
	DD	08765432H
	DD	02df081abH
	DD	03fH
	DD	020f73149H
	DD	02d5a4e51H
	DD	039bd6717H
	DD	08765432H
	DD	07f081abH
	DD	03fH
	DD	02307b989H
	DD	02f6ad272H
	DD	03bcdeb38H
	DD	08765432H
	DD	02d361dabH
	DD	03fH
	DD	020f72928H
	DD	02d5a4e51H
	DD	039bd6717H
	DD	06543210H
	DD	02d461dabH
	DD	03fH
	DD	020f72928H
	DD	02d5a4e51H
	DD	039bd6717H
	DD	06543210H
	DD	07661dabH
	DD	03fH
	DD	02307b928H
	DD	02f6ad272H
	DD	03bcdeb38H
	DD	06543210H
	DD	02f661dabH
	DD	03fH
	DD	020f72928H
	DD	02d5a4e51H
	DD	039bd6717H
	DD	06543210H
	DD	02d3601abH
	DD	03fH
	DD	020f72928H
	DD	02d5a4e51H
	DD	039bd6717H
	DD	07654321H
	DD	02d4601abH
	DD	03fH
	DD	020f72928H
	DD	02d5a4e51H
	DD	039bd6717H
	DD	07654321H
	DD	076601abH
	DD	03fH
	DD	02307b928H
	DD	02f6ad272H
	DD	03bcdeb38H
	DD	07654321H
	DD	02f6601abH
	DD	03fH
	DD	020f72928H
	DD	02d5a4e51H
	DD	039bd6717H
	DD	07654321H
	DD	02d3081abH
	DD	03fH
	DD	020f73149H
	DD	02d5a4e51H
	DD	039bd6717H
	DD	08765432H
	DD	02d4081abH
	DD	03fH
	DD	020f73149H
	DD	02d5a4e51H
	DD	039bd6717H
	DD	08765432H
	DD	076081abH
	DD	03fH
	DD	02307b989H
	DD	02f6ad272H
	DD	03bcdeb38H
	DD	08765432H
	DD	02f6081abH
	DD	03fH
	DD	020f73149H
	DD	02d5a4e51H
	DD	039bd6717H
	DD	08765432H
	DD	03ff61dabH
	DD	03fH
	DD	020f72928H
	DD	02d5a4e51H
	DD	039bd6717H
	DD	06543210H
	DD	03ff601abH
	DD	03fH
	DD	020f72928H
	DD	02d5a4e51H
	DD	039bd6717H
	DD	07654321H
	DD	03ff081abH
	DD	03fH
	DD	020f73149H
	DD	02d5a4e51H
	DD	039bd6717H
	DD	08765432H
	DD	07f61dabH
	DD	03fH
	DD	02307b928H
	DD	02f6ad272H
	DD	03fffff38H
	DD	06543210H
	DD	027f61dabH
	DD	03fH
	DD	020f72928H
	DD	02d5a4e51H
	DD	03fffe717H
	DD	06543210H
	DD	029f61dabH
	DD	03fH
	DD	020f72928H
	DD	02d5a4e51H
	DD	03ffd6717H
	DD	06543210H
	DD	02bf61dabH
	DD	03fH
	DD	020f72928H
	DD	02d5a4e51H
	DD	03fbd6717H
	DD	06543210H
	DD	07f601abH
	DD	03fH
	DD	02307b928H
	DD	02f6ad272H
	DD	03fffff38H
	DD	07654321H
	DD	027f601abH
	DD	03fH
	DD	020f72928H
	DD	02d5a4e51H
	DD	03fffe717H
	DD	07654321H
	DD	029f601abH
	DD	03fH
	DD	020f72928H
	DD	02d5a4e51H
	DD	03ffd6717H
	DD	07654321H
	DD	02bf601abH
	DD	03fH
	DD	020f72928H
	DD	02d5a4e51H
	DD	03fbd6717H
	DD	07654321H
	DD	07f081abH
	DD	03fH
	DD	02307b989H
	DD	02f6ad272H
	DD	03fffff38H
	DD	08765432H
	DD	027f081abH
	DD	03fH
	DD	020f73149H
	DD	02d5a4e51H
	DD	03fffe717H
	DD	08765432H
	DD	029f081abH
	DD	03fH
	DD	020f73149H
	DD	02d5a4e51H
	DD	03ffd6717H
	DD	08765432H
	DD	02bf081abH
	DD	03fH
	DD	020f73149H
	DD	02d5a4e51H
	DD	03fbd6717H
	DD	08765432H
	DD	027261dabH
	DD	03fH
	DD	020f72928H
	DD	02d5a4e51H
	DD	03fffff17H
	DD	06543210H
	DD	029261dabH
	DD	03fH
	DD	020f72928H
	DD	02d5a4e51H
	DD	03fffeb17H
	DD	06543210H
	DD	02b261dabH
	DD	03fH
	DD	020f72928H
	DD	02d5a4e51H
	DD	03ffdeb17H
	DD	06543210H
	DD	02d261dabH
	DD	03fH
	DD	020f72928H
	DD	02d5a4e51H
	DD	03fcdeb17H
	DD	06543210H
	DD	0272601abH
	DD	03fH
	DD	020f72928H
	DD	02d5a4e51H
	DD	03fffff17H
	DD	07654321H
	DD	0292601abH
	DD	03fH
	DD	020f72928H
	DD	02d5a4e51H
	DD	03fffeb17H
	DD	07654321H
	DD	02b2601abH
	DD	03fH
	DD	020f72928H
	DD	02d5a4e51H
	DD	03ffdeb17H
	DD	07654321H
	DD	02d2601abH
	DD	03fH
	DD	020f72928H
	DD	02d5a4e51H
	DD	03fcdeb17H
	DD	07654321H
	DD	0272081abH
	DD	03fH
	DD	020f73149H
	DD	02d5a4e51H
	DD	03fffff17H
	DD	08765432H
	DD	0292081abH
	DD	03fH
	DD	020f73149H
	DD	02d5a4e51H
	DD	03fffeb17H
	DD	08765432H
	DD	02b2081abH
	DD	03fH
	DD	020f73149H
	DD	02d5a4e51H
	DD	03ffdeb17H
	DD	08765432H
	DD	02d2081abH
	DD	03fH
	DD	020f73149H
	DD	02d5a4e51H
	DD	03fcdeb17H
	DD	08765432H
	DD	03ff61dabH
	DD	03fH
	DD	020f72928H
	DD	02d5a4e51H
	DD	03fffff17H
	DD	06543210H
	DD	03ff601abH
	DD	03fH
	DD	020f72928H
	DD	02d5a4e51H
	DD	03fffff17H
	DD	07654321H
	DD	03ff081abH
	DD	03fH
	DD	020f73149H
	DD	02d5a4e51H
	DD	03fffff17H
	DD	08765432H
	DD	027f61dabH
	DD	03fH
	DD	020f72928H
	DD	02d5a4e51H
	DD	03fffe717H
	DD	06543210H
	DD	07f61dabH
	DD	03fH
	DD	02307b928H
	DD	02f6ad272H
	DD	03fffeb38H
	DD	06543210H
	DD	029f61dabH
	DD	03fH
	DD	020f72928H
	DD	02d5a4e51H
	DD	03ffd6717H
	DD	06543210H
	DD	02bf61dabH
	DD	03fH
	DD	020f72928H
	DD	02d5a4e51H
	DD	03fbd6717H
	DD	06543210H
	DD	027f601abH
	DD	03fH
	DD	020f72928H
	DD	02d5a4e51H
	DD	03fffe717H
	DD	07654321H
	DD	07f601abH
	DD	03fH
	DD	02307b928H
	DD	02f6ad272H
	DD	03fffeb38H
	DD	07654321H
	DD	029f601abH
	DD	03fH
	DD	020f72928H
	DD	02d5a4e51H
	DD	03ffd6717H
	DD	07654321H
	DD	02bf601abH
	DD	03fH
	DD	020f72928H
	DD	02d5a4e51H
	DD	03fbd6717H
	DD	07654321H
	DD	027f081abH
	DD	03fH
	DD	020f73149H
	DD	02d5a4e51H
	DD	03fffe717H
	DD	08765432H
	DD	07f081abH
	DD	03fH
	DD	02307b989H
	DD	02f6ad272H
	DD	03fffeb38H
	DD	08765432H
	DD	029f081abH
	DD	03fH
	DD	020f73149H
	DD	02d5a4e51H
	DD	03ffd6717H
	DD	08765432H
	DD	02bf081abH
	DD	03fH
	DD	020f73149H
	DD	02d5a4e51H
	DD	03fbd6717H
	DD	08765432H
	DD	07361dabH
	DD	03fH
	DD	02307b928H
	DD	02f6ad272H
	DD	03fffeb38H
	DD	06543210H
	DD	029361dabH
	DD	03fH
	DD	020f72928H
	DD	02d5a4e51H
	DD	03fffe717H
	DD	06543210H
	DD	02b361dabH
	DD	03fH
	DD	020f72928H
	DD	02d5a4e51H
	DD	03ffde717H
	DD	06543210H
	DD	02d361dabH
	DD	03fH
	DD	020f72928H
	DD	02d5a4e51H
	DD	03fcde717H
	DD	06543210H
	DD	073601abH
	DD	03fH
	DD	02307b928H
	DD	02f6ad272H
	DD	03fffeb38H
	DD	07654321H
	DD	0293601abH
	DD	03fH
	DD	020f72928H
	DD	02d5a4e51H
	DD	03fffe717H
	DD	07654321H
	DD	02b3601abH
	DD	03fH
	DD	020f72928H
	DD	02d5a4e51H
	DD	03ffde717H
	DD	07654321H
	DD	02d3601abH
	DD	03fH
	DD	020f72928H
	DD	02d5a4e51H
	DD	03fcde717H
	DD	07654321H
	DD	073081abH
	DD	03fH
	DD	02307b989H
	DD	02f6ad272H
	DD	03fffeb38H
	DD	08765432H
	DD	0293081abH
	DD	03fH
	DD	020f73149H
	DD	02d5a4e51H
	DD	03fffe717H
	DD	08765432H
	DD	02b3081abH
	DD	03fH
	DD	020f73149H
	DD	02d5a4e51H
	DD	03ffde717H
	DD	08765432H
	DD	02d3081abH
	DD	03fH
	DD	020f73149H
	DD	02d5a4e51H
	DD	03fcde717H
	DD	08765432H
	DD	03ff61dabH
	DD	03fH
	DD	020f72928H
	DD	02d5a4e51H
	DD	03fffe717H
	DD	06543210H
	DD	03ff601abH
	DD	03fH
	DD	020f72928H
	DD	02d5a4e51H
	DD	03fffe717H
	DD	07654321H
	DD	03ff081abH
	DD	03fH
	DD	020f73149H
	DD	02d5a4e51H
	DD	03fffe717H
	DD	08765432H
	DD	029f61dabH
	DD	03fH
	DD	020f72928H
	DD	02d5a4e51H
	DD	03ffd6717H
	DD	06543210H
	DD	029f61dabH
	DD	03fH
	DD	020f72928H
	DD	02d5a4e51H
	DD	03ffd6717H
	DD	06543210H
	DD	07f61dabH
	DD	03fH
	DD	02307b928H
	DD	02f6ad272H
	DD	03ffdeb38H
	DD	06543210H
	DD	02bf61dabH
	DD	03fH
	DD	020f72928H
	DD	02d5a4e51H
	DD	03fbd6717H
	DD	06543210H
	DD	029f601abH
	DD	03fH
	DD	020f72928H
	DD	02d5a4e51H
	DD	03ffd6717H
	DD	07654321H
	DD	029f601abH
	DD	03fH
	DD	020f72928H
	DD	02d5a4e51H
	DD	03ffd6717H
	DD	07654321H
	DD	07f601abH
	DD	03fH
	DD	02307b928H
	DD	02f6ad272H
	DD	03ffdeb38H
	DD	07654321H
	DD	02bf601abH
	DD	03fH
	DD	020f72928H
	DD	02d5a4e51H
	DD	03fbd6717H
	DD	07654321H
	DD	029f081abH
	DD	03fH
	DD	020f73149H
	DD	02d5a4e51H
	DD	03ffd6717H
	DD	08765432H
	DD	029f081abH
	DD	03fH
	DD	020f73149H
	DD	02d5a4e51H
	DD	03ffd6717H
	DD	08765432H
	DD	07f081abH
	DD	03fH
	DD	02307b989H
	DD	02f6ad272H
	DD	03ffdeb38H
	DD	08765432H
	DD	02bf081abH
	DD	03fH
	DD	020f73149H
	DD	02d5a4e51H
	DD	03fbd6717H
	DD	08765432H
	DD	029261dabH
	DD	03fH
	DD	020f72928H
	DD	02d5a4e51H
	DD	03ffd6717H
	DD	06543210H
	DD	07461dabH
	DD	03fH
	DD	02307b928H
	DD	02f6ad272H
	DD	03ffdeb38H
	DD	06543210H
	DD	02b461dabH
	DD	03fH
	DD	020f72928H
	DD	02d5a4e51H
	DD	03ffd6717H
	DD	06543210H
	DD	02d461dabH
	DD	03fH
	DD	020f72928H
	DD	02d5a4e51H
	DD	03fcd6717H
	DD	06543210H
	DD	0292601abH
	DD	03fH
	DD	020f72928H
	DD	02d5a4e51H
	DD	03ffd6717H
	DD	07654321H
	DD	074601abH
	DD	03fH
	DD	02307b928H
	DD	02f6ad272H
	DD	03ffdeb38H
	DD	07654321H
	DD	02b4601abH
	DD	03fH
	DD	020f72928H
	DD	02d5a4e51H
	DD	03ffd6717H
	DD	07654321H
	DD	02d4601abH
	DD	03fH
	DD	020f72928H
	DD	02d5a4e51H
	DD	03fcd6717H
	DD	07654321H
	DD	0292081abH
	DD	03fH
	DD	020f73149H
	DD	02d5a4e51H
	DD	03ffd6717H
	DD	08765432H
	DD	074081abH
	DD	03fH
	DD	02307b989H
	DD	02f6ad272H
	DD	03ffdeb38H
	DD	08765432H
	DD	02b4081abH
	DD	03fH
	DD	020f73149H
	DD	02d5a4e51H
	DD	03ffd6717H
	DD	08765432H
	DD	02d4081abH
	DD	03fH
	DD	020f73149H
	DD	02d5a4e51H
	DD	03fcd6717H
	DD	08765432H
	DD	03ff61dabH
	DD	03fH
	DD	020f72928H
	DD	02d5a4e51H
	DD	03ffd6717H
	DD	06543210H
	DD	03ff601abH
	DD	03fH
	DD	020f72928H
	DD	02d5a4e51H
	DD	03ffd6717H
	DD	07654321H
	DD	03ff081abH
	DD	03fH
	DD	020f73149H
	DD	02d5a4e51H
	DD	03ffd6717H
	DD	08765432H
	DD	02bf61dabH
	DD	03fH
	DD	020f72928H
	DD	02d5a4e51H
	DD	03fbd6717H
	DD	06543210H
	DD	02bf61dabH
	DD	03fH
	DD	020f72928H
	DD	02d5a4e51H
	DD	03fbd6717H
	DD	06543210H
	DD	02bf61dabH
	DD	03fH
	DD	020f72928H
	DD	02d5a4e51H
	DD	03fbd6717H
	DD	06543210H
	DD	07f61dabH
	DD	03fH
	DD	02307b928H
	DD	02f6ad272H
	DD	03fcdeb38H
	DD	06543210H
	DD	02bf601abH
	DD	03fH
	DD	020f72928H
	DD	02d5a4e51H
	DD	03fbd6717H
	DD	07654321H
	DD	02bf601abH
	DD	03fH
	DD	020f72928H
	DD	02d5a4e51H
	DD	03fbd6717H
	DD	07654321H
	DD	02bf601abH
	DD	03fH
	DD	020f72928H
	DD	02d5a4e51H
	DD	03fbd6717H
	DD	07654321H
	DD	07f601abH
	DD	03fH
	DD	02307b928H
	DD	02f6ad272H
	DD	03fcdeb38H
	DD	07654321H
	DD	02bf081abH
	DD	03fH
	DD	020f73149H
	DD	02d5a4e51H
	DD	03fbd6717H
	DD	08765432H
	DD	02bf081abH
	DD	03fH
	DD	020f73149H
	DD	02d5a4e51H
	DD	03fbd6717H
	DD	08765432H
	DD	02bf081abH
	DD	03fH
	DD	020f73149H
	DD	02d5a4e51H
	DD	03fbd6717H
	DD	08765432H
	DD	07f081abH
	DD	03fH
	DD	02307b989H
	DD	02f6ad272H
	DD	03fcdeb38H
	DD	08765432H
	DD	02b261dabH
	DD	03fH
	DD	020f72928H
	DD	02d5a4e51H
	DD	03fbd6717H
	DD	06543210H
	DD	02b361dabH
	DD	03fH
	DD	020f72928H
	DD	02d5a4e51H
	DD	03fbd6717H
	DD	06543210H
	DD	07561dabH
	DD	03fH
	DD	02307b928H
	DD	02f6ad272H
	DD	03fcdeb38H
	DD	06543210H
	DD	02d561dabH
	DD	03fH
	DD	020f72928H
	DD	02d5a4e51H
	DD	03fbd6717H
	DD	06543210H
	DD	02b2601abH
	DD	03fH
	DD	020f72928H
	DD	02d5a4e51H
	DD	03fbd6717H
	DD	07654321H
	DD	02b3601abH
	DD	03fH
	DD	020f72928H
	DD	02d5a4e51H
	DD	03fbd6717H
	DD	07654321H
	DD	075601abH
	DD	03fH
	DD	02307b928H
	DD	02f6ad272H
	DD	03fcdeb38H
	DD	07654321H
	DD	02d5601abH
	DD	03fH
	DD	020f72928H
	DD	02d5a4e51H
	DD	03fbd6717H
	DD	07654321H
	DD	02b2081abH
	DD	03fH
	DD	020f73149H
	DD	02d5a4e51H
	DD	03fbd6717H
	DD	08765432H
	DD	02b3081abH
	DD	03fH
	DD	020f73149H
	DD	02d5a4e51H
	DD	03fbd6717H
	DD	08765432H
	DD	075081abH
	DD	03fH
	DD	02307b989H
	DD	02f6ad272H
	DD	03fcdeb38H
	DD	08765432H
	DD	02d5081abH
	DD	03fH
	DD	020f73149H
	DD	02d5a4e51H
	DD	03fbd6717H
	DD	08765432H
	DD	03ff61dabH
	DD	03fH
	DD	020f72928H
	DD	02d5a4e51H
	DD	03fbd6717H
	DD	06543210H
	DD	03ff601abH
	DD	03fH
	DD	020f72928H
	DD	02d5a4e51H
	DD	03fbd6717H
	DD	07654321H
	DD	03ff081abH
	DD	03fH
	DD	020f73149H
	DD	02d5a4e51H
	DD	03fbd6717H
	DD	08765432H
	DD	07ff9dabH
	DD	03fH
	DD	020f73128H
	DD	02d5a4e51H
	DD	03fffff17H
	DD	06543210H
	DD	025ff9dabH
	DD	03fH
	DD	01ee62928H
	DD	02b49ca30H
	DD	03fffe2f6H
	DD	06543210H
	DD	027ff9dabH
	DD	03fH
	DD	01ee62928H
	DD	02b49ca30H
	DD	03ffce2f6H
	DD	06543210H
	DD	029ff9dabH
	DD	03fH
	DD	01ee62928H
	DD	02b49ca30H
	DD	03face2f6H
	DD	06543210H
	DD	07ff81abH
	DD	03fH
	DD	020f73128H
	DD	02d5a4e51H
	DD	03fffff17H
	DD	07654321H
	DD	025ff81abH
	DD	03fH
	DD	01ee62928H
	DD	02b49ca30H
	DD	03fffe2f6H
	DD	07654321H
	DD	027ff81abH
	DD	03fH
	DD	01ee62928H
	DD	02b49ca30H
	DD	03ffce2f6H
	DD	07654321H
	DD	029ff81abH
	DD	03fH
	DD	01ee62928H
	DD	02b49ca30H
	DD	03face2f6H
	DD	07654321H
	DD	0251f9dabH
	DD	03fH
	DD	01ee62928H
	DD	02b49ca30H
	DD	03ffffef6H
	DD	06543210H
	DD	0271f9dabH
	DD	03fH
	DD	01ee62928H
	DD	02b49ca30H
	DD	03fffe6f6H
	DD	06543210H
	DD	0291f9dabH
	DD	03fH
	DD	01ee62928H
	DD	02b49ca30H
	DD	03ffd66f6H
	DD	06543210H
	DD	02b1f9dabH
	DD	03fH
	DD	01ee62928H
	DD	02b49ca30H
	DD	03fbd66f6H
	DD	06543210H
	DD	0251f81abH
	DD	03fH
	DD	01ee62928H
	DD	02b49ca30H
	DD	03ffffef6H
	DD	07654321H
	DD	0271f81abH
	DD	03fH
	DD	01ee62928H
	DD	02b49ca30H
	DD	03fffe6f6H
	DD	07654321H
	DD	0291f81abH
	DD	03fH
	DD	01ee62928H
	DD	02b49ca30H
	DD	03ffd66f6H
	DD	07654321H
	DD	02b1f81abH
	DD	03fH
	DD	01ee62928H
	DD	02b49ca30H
	DD	03fbd66f6H
	DD	07654321H
	DD	03fff9dabH
	DD	03fH
	DD	01ee62928H
	DD	02b49ca30H
	DD	03ffffef6H
	DD	06543210H
	DD	03fff81abH
	DD	03fH
	DD	01ee62928H
	DD	02b49ca30H
	DD	03ffffef6H
	DD	07654321H
	DD	025ff9dabH
	DD	03fH
	DD	01ee62928H
	DD	02b49ca30H
	DD	03fffe2f6H
	DD	06543210H
	DD	07ff9dabH
	DD	03fH
	DD	020f73128H
	DD	02d5a4e51H
	DD	03fffe717H
	DD	06543210H
	DD	027ff9dabH
	DD	03fH
	DD	01ee62928H
	DD	02b49ca30H
	DD	03ffce2f6H
	DD	06543210H
	DD	029ff9dabH
	DD	03fH
	DD	01ee62928H
	DD	02b49ca30H
	DD	03face2f6H
	DD	06543210H
	DD	025ff81abH
	DD	03fH
	DD	01ee62928H
	DD	02b49ca30H
	DD	03fffe2f6H
	DD	07654321H
	DD	07ff81abH
	DD	03fH
	DD	020f73128H
	DD	02d5a4e51H
	DD	03fffe717H
	DD	07654321H
	DD	027ff81abH
	DD	03fH
	DD	01ee62928H
	DD	02b49ca30H
	DD	03ffce2f6H
	DD	07654321H
	DD	029ff81abH
	DD	03fH
	DD	01ee62928H
	DD	02b49ca30H
	DD	03face2f6H
	DD	07654321H
	DD	072f9dabH
	DD	03fH
	DD	020f73128H
	DD	02d5a4e51H
	DD	03fffe717H
	DD	06543210H
	DD	0272f9dabH
	DD	03fH
	DD	01ee62928H
	DD	02b49ca30H
	DD	03fffe2f6H
	DD	06543210H
	DD	0292f9dabH
	DD	03fH
	DD	01ee62928H
	DD	02b49ca30H
	DD	03ffd62f6H
	DD	06543210H
	DD	02b2f9dabH
	DD	03fH
	DD	01ee62928H
	DD	02b49ca30H
	DD	03fbd62f6H
	DD	06543210H
	DD	072f81abH
	DD	03fH
	DD	020f73128H
	DD	02d5a4e51H
	DD	03fffe717H
	DD	07654321H
	DD	0272f81abH
	DD	03fH
	DD	01ee62928H
	DD	02b49ca30H
	DD	03fffe2f6H
	DD	07654321H
	DD	0292f81abH
	DD	03fH
	DD	01ee62928H
	DD	02b49ca30H
	DD	03ffd62f6H
	DD	07654321H
	DD	02b2f81abH
	DD	03fH
	DD	01ee62928H
	DD	02b49ca30H
	DD	03fbd62f6H
	DD	07654321H
	DD	03fff9dabH
	DD	03fH
	DD	01ee62928H
	DD	02b49ca30H
	DD	03fffe2f6H
	DD	06543210H
	DD	03fff81abH
	DD	03fH
	DD	01ee62928H
	DD	02b49ca30H
	DD	03fffe2f6H
	DD	07654321H
	DD	027ff9dabH
	DD	03fH
	DD	01ee62928H
	DD	02b49ca30H
	DD	03ffce2f6H
	DD	06543210H
	DD	027ff9dabH
	DD	03fH
	DD	01ee62928H
	DD	02b49ca30H
	DD	03ffce2f6H
	DD	06543210H
	DD	07ff9dabH
	DD	03fH
	DD	020f73128H
	DD	02d5a4e51H
	DD	03ffd6717H
	DD	06543210H
	DD	029ff9dabH
	DD	03fH
	DD	01ee62928H
	DD	02b49ca30H
	DD	03face2f6H
	DD	06543210H
	DD	027ff81abH
	DD	03fH
	DD	01ee62928H
	DD	02b49ca30H
	DD	03ffce2f6H
	DD	07654321H
	DD	027ff81abH
	DD	03fH
	DD	01ee62928H
	DD	02b49ca30H
	DD	03ffce2f6H
	DD	07654321H
	DD	07ff81abH
	DD	03fH
	DD	020f73128H
	DD	02d5a4e51H
	DD	03ffd6717H
	DD	07654321H
	DD	029ff81abH
	DD	03fH
	DD	01ee62928H
	DD	02b49ca30H
	DD	03face2f6H
	DD	07654321H
	DD	0271f9dabH
	DD	03fH
	DD	01ee62928H
	DD	02b49ca30H
	DD	03ffce2f6H
	DD	06543210H
	DD	073f9dabH
	DD	03fH
	DD	020f73128H
	DD	02d5a4e51H
	DD	03ffd6717H
	DD	06543210H
	DD	0293f9dabH
	DD	03fH
	DD	01ee62928H
	DD	02b49ca30H
	DD	03ffce2f6H
	DD	06543210H
	DD	02b3f9dabH
	DD	03fH
	DD	01ee62928H
	DD	02b49ca30H
	DD	03fbce2f6H
	DD	06543210H
	DD	0271f81abH
	DD	03fH
	DD	01ee62928H
	DD	02b49ca30H
	DD	03ffce2f6H
	DD	07654321H
	DD	073f81abH
	DD	03fH
	DD	020f73128H
	DD	02d5a4e51H
	DD	03ffd6717H
	DD	07654321H
	DD	0293f81abH
	DD	03fH
	DD	01ee62928H
	DD	02b49ca30H
	DD	03ffce2f6H
	DD	07654321H
	DD	02b3f81abH
	DD	03fH
	DD	01ee62928H
	DD	02b49ca30H
	DD	03fbce2f6H
	DD	07654321H
	DD	03fff9dabH
	DD	03fH
	DD	01ee62928H
	DD	02b49ca30H
	DD	03ffce2f6H
	DD	06543210H
	DD	03fff81abH
	DD	03fH
	DD	01ee62928H
	DD	02b49ca30H
	DD	03ffce2f6H
	DD	07654321H
	DD	029ff9dabH
	DD	03fH
	DD	01ee62928H
	DD	02b49ca30H
	DD	03face2f6H
	DD	06543210H
	DD	029ff9dabH
	DD	03fH
	DD	01ee62928H
	DD	02b49ca30H
	DD	03face2f6H
	DD	06543210H
	DD	029ff9dabH
	DD	03fH
	DD	01ee62928H
	DD	02b49ca30H
	DD	03face2f6H
	DD	06543210H
	DD	07ff9dabH
	DD	03fH
	DD	020f73128H
	DD	02d5a4e51H
	DD	03fbd6717H
	DD	06543210H
	DD	029ff81abH
	DD	03fH
	DD	01ee62928H
	DD	02b49ca30H
	DD	03face2f6H
	DD	07654321H
	DD	029ff81abH
	DD	03fH
	DD	01ee62928H
	DD	02b49ca30H
	DD	03face2f6H
	DD	07654321H
	DD	029ff81abH
	DD	03fH
	DD	01ee62928H
	DD	02b49ca30H
	DD	03face2f6H
	DD	07654321H
	DD	07ff81abH
	DD	03fH
	DD	020f73128H
	DD	02d5a4e51H
	DD	03fbd6717H
	DD	07654321H
	DD	0291f9dabH
	DD	03fH
	DD	01ee62928H
	DD	02b49ca30H
	DD	03face2f6H
	DD	06543210H
	DD	0292f9dabH
	DD	03fH
	DD	01ee62928H
	DD	02b49ca30H
	DD	03face2f6H
	DD	06543210H
	DD	074f9dabH
	DD	03fH
	DD	020f73128H
	DD	02d5a4e51H
	DD	03fbd6717H
	DD	06543210H
	DD	02b4f9dabH
	DD	03fH
	DD	01ee62928H
	DD	02b49ca30H
	DD	03face2f6H
	DD	06543210H
	DD	0291f81abH
	DD	03fH
	DD	01ee62928H
	DD	02b49ca30H
	DD	03face2f6H
	DD	07654321H
	DD	0292f81abH
	DD	03fH
	DD	01ee62928H
	DD	02b49ca30H
	DD	03face2f6H
	DD	07654321H
	DD	074f81abH
	DD	03fH
	DD	020f73128H
	DD	02d5a4e51H
	DD	03fbd6717H
	DD	07654321H
	DD	02b4f81abH
	DD	03fH
	DD	01ee62928H
	DD	02b49ca30H
	DD	03face2f6H
	DD	07654321H
	DD	03fff9dabH
	DD	03fH
	DD	01ee62928H
	DD	02b49ca30H
	DD	03face2f6H
	DD	06543210H
	DD	03fff81abH
	DD	03fH
	DD	01ee62928H
	DD	02b49ca30H
	DD	03face2f6H
	DD	07654321H
	DD	029361dabH
	DD	03fH
	DD	020f72928H
	DD	02d5a4e51H
	DD	03fffe717H
	DD	06543210H
	DD	07461dabH
	DD	03fH
	DD	02307b928H
	DD	02f6ad272H
	DD	03ffdeb38H
	DD	06543210H
	DD	02b361dabH
	DD	03fH
	DD	020f72928H
	DD	02d5a4e51H
	DD	03fbd6717H
	DD	06543210H
	DD	02d361dabH
	DD	03fH
	DD	020f72928H
	DD	02d5a4e51H
	DD	039bd6717H
	DD	06543210H
	DD	0293601abH
	DD	03fH
	DD	020f72928H
	DD	02d5a4e51H
	DD	03fffe717H
	DD	07654321H
	DD	074601abH
	DD	03fH
	DD	02307b928H
	DD	02f6ad272H
	DD	03ffdeb38H
	DD	07654321H
	DD	02b3601abH
	DD	03fH
	DD	020f72928H
	DD	02d5a4e51H
	DD	03fbd6717H
	DD	07654321H
	DD	02d3601abH
	DD	03fH
	DD	020f72928H
	DD	02d5a4e51H
	DD	039bd6717H
	DD	07654321H
	DD	0293081abH
	DD	03fH
	DD	020f73149H
	DD	02d5a4e51H
	DD	03fffe717H
	DD	08765432H
	DD	074081abH
	DD	03fH
	DD	02307b989H
	DD	02f6ad272H
	DD	03ffdeb38H
	DD	08765432H
	DD	02b3081abH
	DD	03fH
	DD	020f73149H
	DD	02d5a4e51H
	DD	03fbd6717H
	DD	08765432H
	DD	02d3081abH
	DD	03fH
	DD	020f73149H
	DD	02d5a4e51H
	DD	039bd6717H
	DD	08765432H
	DD	06161dabH
	DD	03fH
	DD	025183dc9H
	DD	0317b5693H
	DD	03fffef59H
	DD	06543210H
	DD	02a161dabH
	DD	03fH
	DD	02307b949H
	DD	02f6ad272H
	DD	03ffdeb38H
	DD	06543210H
	DD	02c161dabH
	DD	03fH
	DD	02307b949H
	DD	02f6ad272H
	DD	03fcdeb38H
	DD	06543210H
	DD	02e161dabH
	DD	03fH
	DD	02307b949H
	DD	02f6ad272H
	DD	03bcdeb38H
	DD	06543210H
	DD	061601abH
	DD	03fH
	DD	025183dc9H
	DD	0317b5693H
	DD	03fffef59H
	DD	07654321H
	DD	02a1601abH
	DD	03fH
	DD	02307b949H
	DD	02f6ad272H
	DD	03ffdeb38H
	DD	07654321H
	DD	02c1601abH
	DD	03fH
	DD	02307b949H
	DD	02f6ad272H
	DD	03fcdeb38H
	DD	07654321H
	DD	02e1601abH
	DD	03fH
	DD	02307b949H
	DD	02f6ad272H
	DD	03bcdeb38H
	DD	07654321H
	DD	061081abH
	DD	03fH
	DD	025183dccH
	DD	0317b5693H
	DD	03fffef59H
	DD	09765432H
	DD	02a1081abH
	DD	03fH
	DD	02307b98aH
	DD	02f6ad272H
	DD	03ffdeb38H
	DD	09765432H
	DD	02c1081abH
	DD	03fH
	DD	02307b98aH
	DD	02f6ad272H
	DD	03fcdeb38H
	DD	09765432H
	DD	02e1081abH
	DD	03fH
	DD	02307b98aH
	DD	02f6ad272H
	DD	03bcdeb38H
	DD	09765432H
	DD	03e161dabH
	DD	03fH
	DD	02307b949H
	DD	02f6ad272H
	DD	03fffeb38H
	DD	06543210H
	DD	03e1601abH
	DD	03fH
	DD	02307b949H
	DD	02f6ad272H
	DD	03fffeb38H
	DD	07654321H
	DD	03e1081abH
	DD	03fH
	DD	02307b98aH
	DD	02f6ad272H
	DD	03fffeb38H
	DD	09765432H
	DD	02b361dabH
	DD	03fH
	DD	020f72928H
	DD	02d5a4e51H
	DD	03ffde717H
	DD	06543210H
	DD	02b461dabH
	DD	03fH
	DD	020f72928H
	DD	02d5a4e51H
	DD	03ffd6717H
	DD	06543210H
	DD	07561dabH
	DD	03fH
	DD	02307b928H
	DD	02f6ad272H
	DD	03fcdeb38H
	DD	06543210H
	DD	02d461dabH
	DD	03fH
	DD	020f72928H
	DD	02d5a4e51H
	DD	039bd6717H
	DD	06543210H
	DD	02b3601abH
	DD	03fH
	DD	020f72928H
	DD	02d5a4e51H
	DD	03ffde717H
	DD	07654321H
	DD	02b4601abH
	DD	03fH
	DD	020f72928H
	DD	02d5a4e51H
	DD	03ffd6717H
	DD	07654321H
	DD	075601abH
	DD	03fH
	DD	02307b928H
	DD	02f6ad272H
	DD	03fcdeb38H
	DD	07654321H
	DD	02d4601abH
	DD	03fH
	DD	020f72928H
	DD	02d5a4e51H
	DD	039bd6717H
	DD	07654321H
	DD	02b3081abH
	DD	03fH
	DD	020f73149H
	DD	02d5a4e51H
	DD	03ffde717H
	DD	08765432H
	DD	02b4081abH
	DD	03fH
	DD	020f73149H
	DD	02d5a4e51H
	DD	03ffd6717H
	DD	08765432H
	DD	075081abH
	DD	03fH
	DD	02307b989H
	DD	02f6ad272H
	DD	03fcdeb38H
	DD	08765432H
	DD	02d4081abH
	DD	03fH
	DD	020f73149H
	DD	02d5a4e51H
	DD	039bd6717H
	DD	08765432H
	DD	02a161dabH
	DD	03fH
	DD	02307b949H
	DD	02f6ad272H
	DD	03ffdeb38H
	DD	06543210H
	DD	06161dabH
	DD	03fH
	DD	025183dc9H
	DD	0317b5693H
	DD	03ffe6f59H
	DD	06543210H
	DD	02c161dabH
	DD	03fH
	DD	02307b949H
	DD	02f6ad272H
	DD	03fcdeb38H
	DD	06543210H
	DD	02e161dabH
	DD	03fH
	DD	02307b949H
	DD	02f6ad272H
	DD	03bcdeb38H
	DD	06543210H
	DD	02a1601abH
	DD	03fH
	DD	02307b949H
	DD	02f6ad272H
	DD	03ffdeb38H
	DD	07654321H
	DD	061601abH
	DD	03fH
	DD	025183dc9H
	DD	0317b5693H
	DD	03ffe6f59H
	DD	07654321H
	DD	02c1601abH
	DD	03fH
	DD	02307b949H
	DD	02f6ad272H
	DD	03fcdeb38H
	DD	07654321H
	DD	02e1601abH
	DD	03fH
	DD	02307b949H
	DD	02f6ad272H
	DD	03bcdeb38H
	DD	07654321H
	DD	02a1081abH
	DD	03fH
	DD	02307b98aH
	DD	02f6ad272H
	DD	03ffdeb38H
	DD	09765432H
	DD	061081abH
	DD	03fH
	DD	025183dccH
	DD	0317b5693H
	DD	03ffe6f59H
	DD	09765432H
	DD	02c1081abH
	DD	03fH
	DD	02307b98aH
	DD	02f6ad272H
	DD	03fcdeb38H
	DD	09765432H
	DD	02e1081abH
	DD	03fH
	DD	02307b98aH
	DD	02f6ad272H
	DD	03bcdeb38H
	DD	09765432H
	DD	03e161dabH
	DD	03fH
	DD	02307b949H
	DD	02f6ad272H
	DD	03ffdeb38H
	DD	06543210H
	DD	03e1601abH
	DD	03fH
	DD	02307b949H
	DD	02f6ad272H
	DD	03ffdeb38H
	DD	07654321H
	DD	03e1081abH
	DD	03fH
	DD	02307b98aH
	DD	02f6ad272H
	DD	03ffdeb38H
	DD	09765432H
	DD	02d361dabH
	DD	03fH
	DD	020f72928H
	DD	02d5a4e51H
	DD	03fcde717H
	DD	06543210H
	DD	02d461dabH
	DD	03fH
	DD	020f72928H
	DD	02d5a4e51H
	DD	03fcd6717H
	DD	06543210H
	DD	02d561dabH
	DD	03fH
	DD	020f72928H
	DD	02d5a4e51H
	DD	03fbd6717H
	DD	06543210H
	DD	07661dabH
	DD	03fH
	DD	02307b928H
	DD	02f6ad272H
	DD	03bcdeb38H
	DD	06543210H
	DD	02d3601abH
	DD	03fH
	DD	020f72928H
	DD	02d5a4e51H
	DD	03fcde717H
	DD	07654321H
	DD	02d4601abH
	DD	03fH
	DD	020f72928H
	DD	02d5a4e51H
	DD	03fcd6717H
	DD	07654321H
	DD	02d5601abH
	DD	03fH
	DD	020f72928H
	DD	02d5a4e51H
	DD	03fbd6717H
	DD	07654321H
	DD	076601abH
	DD	03fH
	DD	02307b928H
	DD	02f6ad272H
	DD	03bcdeb38H
	DD	07654321H
	DD	02d3081abH
	DD	03fH
	DD	020f73149H
	DD	02d5a4e51H
	DD	03fcde717H
	DD	08765432H
	DD	02d4081abH
	DD	03fH
	DD	020f73149H
	DD	02d5a4e51H
	DD	03fcd6717H
	DD	08765432H
	DD	02d5081abH
	DD	03fH
	DD	020f73149H
	DD	02d5a4e51H
	DD	03fbd6717H
	DD	08765432H
	DD	076081abH
	DD	03fH
	DD	02307b989H
	DD	02f6ad272H
	DD	03bcdeb38H
	DD	08765432H
	DD	02c161dabH
	DD	03fH
	DD	02307b949H
	DD	02f6ad272H
	DD	03fcdeb38H
	DD	06543210H
	DD	02c161dabH
	DD	03fH
	DD	02307b949H
	DD	02f6ad272H
	DD	03fcdeb38H
	DD	06543210H
	DD	06161dabH
	DD	03fH
	DD	025183dc9H
	DD	0317b5693H
	DD	03fde6f59H
	DD	06543210H
	DD	02e161dabH
	DD	03fH
	DD	02307b949H
	DD	02f6ad272H
	DD	03bcdeb38H
	DD	06543210H
	DD	02c1601abH
	DD	03fH
	DD	02307b949H
	DD	02f6ad272H
	DD	03fcdeb38H
	DD	07654321H
	DD	02c1601abH
	DD	03fH
	DD	02307b949H
	DD	02f6ad272H
	DD	03fcdeb38H
	DD	07654321H
	DD	061601abH
	DD	03fH
	DD	025183dc9H
	DD	0317b5693H
	DD	03fde6f59H
	DD	07654321H
	DD	02e1601abH
	DD	03fH
	DD	02307b949H
	DD	02f6ad272H
	DD	03bcdeb38H
	DD	07654321H
	DD	02c1081abH
	DD	03fH
	DD	02307b98aH
	DD	02f6ad272H
	DD	03fcdeb38H
	DD	09765432H
	DD	02c1081abH
	DD	03fH
	DD	02307b98aH
	DD	02f6ad272H
	DD	03fcdeb38H
	DD	09765432H
	DD	061081abH
	DD	03fH
	DD	025183dccH
	DD	0317b5693H
	DD	03fde6f59H
	DD	09765432H
	DD	02e1081abH
	DD	03fH
	DD	02307b98aH
	DD	02f6ad272H
	DD	03bcdeb38H
	DD	09765432H
	DD	03e161dabH
	DD	03fH
	DD	02307b949H
	DD	02f6ad272H
	DD	03fcdeb38H
	DD	06543210H
	DD	03e1601abH
	DD	03fH
	DD	02307b949H
	DD	02f6ad272H
	DD	03fcdeb38H
	DD	07654321H
	DD	03e1081abH
	DD	03fH
	DD	02307b98aH
	DD	02f6ad272H
	DD	03fcdeb38H
	DD	09765432H
	DD	02f361dabH
	DD	03fH
	DD	020f72928H
	DD	02d5a4e51H
	DD	03bcde717H
	DD	06543210H
	DD	02f461dabH
	DD	03fH
	DD	020f72928H
	DD	02d5a4e51H
	DD	03bcd6717H
	DD	06543210H
	DD	02f561dabH
	DD	03fH
	DD	020f72928H
	DD	02d5a4e51H
	DD	03bbd6717H
	DD	06543210H
	DD	02f661dabH
	DD	03fH
	DD	020f72928H
	DD	02d5a4e51H
	DD	039bd6717H
	DD	06543210H
	DD	02f3601abH
	DD	03fH
	DD	020f72928H
	DD	02d5a4e51H
	DD	03bcde717H
	DD	07654321H
	DD	02f4601abH
	DD	03fH
	DD	020f72928H
	DD	02d5a4e51H
	DD	03bcd6717H
	DD	07654321H
	DD	02f5601abH
	DD	03fH
	DD	020f72928H
	DD	02d5a4e51H
	DD	03bbd6717H
	DD	07654321H
	DD	02f6601abH
	DD	03fH
	DD	020f72928H
	DD	02d5a4e51H
	DD	039bd6717H
	DD	07654321H
	DD	02f3081abH
	DD	03fH
	DD	020f73149H
	DD	02d5a4e51H
	DD	03bcde717H
	DD	08765432H
	DD	02f4081abH
	DD	03fH
	DD	020f73149H
	DD	02d5a4e51H
	DD	03bcd6717H
	DD	08765432H
	DD	02f5081abH
	DD	03fH
	DD	020f73149H
	DD	02d5a4e51H
	DD	03bbd6717H
	DD	08765432H
	DD	02f6081abH
	DD	03fH
	DD	020f73149H
	DD	02d5a4e51H
	DD	039bd6717H
	DD	08765432H
	DD	02e161dabH
	DD	03fH
	DD	02307b949H
	DD	02f6ad272H
	DD	03bcdeb38H
	DD	06543210H
	DD	02e161dabH
	DD	03fH
	DD	02307b949H
	DD	02f6ad272H
	DD	03bcdeb38H
	DD	06543210H
	DD	02e161dabH
	DD	03fH
	DD	02307b949H
	DD	02f6ad272H
	DD	03bcdeb38H
	DD	06543210H
	DD	06161dabH
	DD	03fH
	DD	025183dc9H
	DD	0317b5693H
	DD	03dde6f59H
	DD	06543210H
	DD	02e1601abH
	DD	03fH
	DD	02307b949H
	DD	02f6ad272H
	DD	03bcdeb38H
	DD	07654321H
	DD	02e1601abH
	DD	03fH
	DD	02307b949H
	DD	02f6ad272H
	DD	03bcdeb38H
	DD	07654321H
	DD	02e1601abH
	DD	03fH
	DD	02307b949H
	DD	02f6ad272H
	DD	03bcdeb38H
	DD	07654321H
	DD	061601abH
	DD	03fH
	DD	025183dc9H
	DD	0317b5693H
	DD	03dde6f59H
	DD	07654321H
	DD	02e1081abH
	DD	03fH
	DD	02307b98aH
	DD	02f6ad272H
	DD	03bcdeb38H
	DD	09765432H
	DD	02e1081abH
	DD	03fH
	DD	02307b98aH
	DD	02f6ad272H
	DD	03bcdeb38H
	DD	09765432H
	DD	02e1081abH
	DD	03fH
	DD	02307b98aH
	DD	02f6ad272H
	DD	03bcdeb38H
	DD	09765432H
	DD	061081abH
	DD	03fH
	DD	025183dccH
	DD	0317b5693H
	DD	03dde6f59H
	DD	09765432H
	DD	03e161dabH
	DD	03fH
	DD	02307b949H
	DD	02f6ad272H
	DD	03bcdeb38H
	DD	06543210H
	DD	03e1601abH
	DD	03fH
	DD	02307b949H
	DD	02f6ad272H
	DD	03bcdeb38H
	DD	07654321H
	DD	03e1081abH
	DD	03fH
	DD	02307b98aH
	DD	02f6ad272H
	DD	03bcdeb38H
	DD	09765432H
	DD	027261dabH
	DD	03fH
	DD	020f72928H
	DD	02d5a4e51H
	DD	03fffff17H
	DD	06543210H
	DD	07361dabH
	DD	03fH
	DD	02307b928H
	DD	02f6ad272H
	DD	03fffeb38H
	DD	06543210H
	DD	029261dabH
	DD	03fH
	DD	020f72928H
	DD	02d5a4e51H
	DD	03ffd6717H
	DD	06543210H
	DD	02b261dabH
	DD	03fH
	DD	020f72928H
	DD	02d5a4e51H
	DD	03fbd6717H
	DD	06543210H
	DD	0272601abH
	DD	03fH
	DD	020f72928H
	DD	02d5a4e51H
	DD	03fffff17H
	DD	07654321H
	DD	073601abH
	DD	03fH
	DD	02307b928H
	DD	02f6ad272H
	DD	03fffeb38H
	DD	07654321H
	DD	0292601abH
	DD	03fH
	DD	020f72928H
	DD	02d5a4e51H
	DD	03ffd6717H
	DD	07654321H
	DD	02b2601abH
	DD	03fH
	DD	020f72928H
	DD	02d5a4e51H
	DD	03fbd6717H
	DD	07654321H
	DD	0272081abH
	DD	03fH
	DD	020f73149H
	DD	02d5a4e51H
	DD	03fffff17H
	DD	08765432H
	DD	073081abH
	DD	03fH
	DD	02307b989H
	DD	02f6ad272H
	DD	03fffeb38H
	DD	08765432H
	DD	0292081abH
	DD	03fH
	DD	020f73149H
	DD	02d5a4e51H
	DD	03ffd6717H
	DD	08765432H
	DD	02b2081abH
	DD	03fH
	DD	020f73149H
	DD	02d5a4e51H
	DD	03fbd6717H
	DD	08765432H
	DD	06161dabH
	DD	03fH
	DD	025183dc9H
	DD	0317b5693H
	DD	03fffff59H
	DD	06543210H
	DD	028161dabH
	DD	03fH
	DD	02307b949H
	DD	02f6ad272H
	DD	03fffeb38H
	DD	06543210H
	DD	02a161dabH
	DD	03fH
	DD	02307b949H
	DD	02f6ad272H
	DD	03ffdeb38H
	DD	06543210H
	DD	02c161dabH
	DD	03fH
	DD	02307b949H
	DD	02f6ad272H
	DD	03fcdeb38H
	DD	06543210H
	DD	061601abH
	DD	03fH
	DD	025183dc9H
	DD	0317b5693H
	DD	03fffff59H
	DD	07654321H
	DD	0281601abH
	DD	03fH
	DD	02307b949H
	DD	02f6ad272H
	DD	03fffeb38H
	DD	07654321H
	DD	02a1601abH
	DD	03fH
	DD	02307b949H
	DD	02f6ad272H
	DD	03ffdeb38H
	DD	07654321H
	DD	02c1601abH
	DD	03fH
	DD	02307b949H
	DD	02f6ad272H
	DD	03fcdeb38H
	DD	07654321H
	DD	061081abH
	DD	03fH
	DD	025183dccH
	DD	0317b5693H
	DD	03fffff59H
	DD	09765432H
	DD	0281081abH
	DD	03fH
	DD	02307b98aH
	DD	02f6ad272H
	DD	03fffeb38H
	DD	09765432H
	DD	02a1081abH
	DD	03fH
	DD	02307b98aH
	DD	02f6ad272H
	DD	03ffdeb38H
	DD	09765432H
	DD	02c1081abH
	DD	03fH
	DD	02307b98aH
	DD	02f6ad272H
	DD	03fcdeb38H
	DD	09765432H
	DD	03e161dabH
	DD	03fH
	DD	02307b949H
	DD	02f6ad272H
	DD	03fffff38H
	DD	06543210H
	DD	03e1601abH
	DD	03fH
	DD	02307b949H
	DD	02f6ad272H
	DD	03fffff38H
	DD	07654321H
	DD	03e1081abH
	DD	03fH
	DD	02307b98aH
	DD	02f6ad272H
	DD	03fffff38H
	DD	09765432H
	DD	029261dabH
	DD	03fH
	DD	020f72928H
	DD	02d5a4e51H
	DD	03fffeb17H
	DD	06543210H
	DD	029361dabH
	DD	03fH
	DD	020f72928H
	DD	02d5a4e51H
	DD	03fffe717H
	DD	06543210H
	DD	07461dabH
	DD	03fH
	DD	02307b928H
	DD	02f6ad272H
	DD	03ffdeb38H
	DD	06543210H
	DD	02b361dabH
	DD	03fH
	DD	020f72928H
	DD	02d5a4e51H
	DD	03fbd6717H
	DD	06543210H
	DD	0292601abH
	DD	03fH
	DD	020f72928H
	DD	02d5a4e51H
	DD	03fffeb17H
	DD	07654321H
	DD	0293601abH
	DD	03fH
	DD	020f72928H
	DD	02d5a4e51H
	DD	03fffe717H
	DD	07654321H
	DD	074601abH
	DD	03fH
	DD	02307b928H
	DD	02f6ad272H
	DD	03ffdeb38H
	DD	07654321H
	DD	02b3601abH
	DD	03fH
	DD	020f72928H
	DD	02d5a4e51H
	DD	03fbd6717H
	DD	07654321H
	DD	0292081abH
	DD	03fH
	DD	020f73149H
	DD	02d5a4e51H
	DD	03fffeb17H
	DD	08765432H
	DD	0293081abH
	DD	03fH
	DD	020f73149H
	DD	02d5a4e51H
	DD	03fffe717H
	DD	08765432H
	DD	074081abH
	DD	03fH
	DD	02307b989H
	DD	02f6ad272H
	DD	03ffdeb38H
	DD	08765432H
	DD	02b3081abH
	DD	03fH
	DD	020f73149H
	DD	02d5a4e51H
	DD	03fbd6717H
	DD	08765432H
	DD	028161dabH
	DD	03fH
	DD	02307b949H
	DD	02f6ad272H
	DD	03fffeb38H
	DD	06543210H
	DD	06161dabH
	DD	03fH
	DD	025183dc9H
	DD	0317b5693H
	DD	03fffef59H
	DD	06543210H
	DD	02a161dabH
	DD	03fH
	DD	02307b949H
	DD	02f6ad272H
	DD	03ffdeb38H
	DD	06543210H
	DD	02c161dabH
	DD	03fH
	DD	02307b949H
	DD	02f6ad272H
	DD	03fcdeb38H
	DD	06543210H
	DD	0281601abH
	DD	03fH
	DD	02307b949H
	DD	02f6ad272H
	DD	03fffeb38H
	DD	07654321H
	DD	061601abH
	DD	03fH
	DD	025183dc9H
	DD	0317b5693H
	DD	03fffef59H
	DD	07654321H
	DD	02a1601abH
	DD	03fH
	DD	02307b949H
	DD	02f6ad272H
	DD	03ffdeb38H
	DD	07654321H
	DD	02c1601abH
	DD	03fH
	DD	02307b949H
	DD	02f6ad272H
	DD	03fcdeb38H
	DD	07654321H
	DD	0281081abH
	DD	03fH
	DD	02307b98aH
	DD	02f6ad272H
	DD	03fffeb38H
	DD	09765432H
	DD	061081abH
	DD	03fH
	DD	025183dccH
	DD	0317b5693H
	DD	03fffef59H
	DD	09765432H
	DD	02a1081abH
	DD	03fH
	DD	02307b98aH
	DD	02f6ad272H
	DD	03ffdeb38H
	DD	09765432H
	DD	02c1081abH
	DD	03fH
	DD	02307b98aH
	DD	02f6ad272H
	DD	03fcdeb38H
	DD	09765432H
	DD	03e161dabH
	DD	03fH
	DD	02307b949H
	DD	02f6ad272H
	DD	03fffeb38H
	DD	06543210H
	DD	03e1601abH
	DD	03fH
	DD	02307b949H
	DD	02f6ad272H
	DD	03fffeb38H
	DD	07654321H
	DD	03e1081abH
	DD	03fH
	DD	02307b98aH
	DD	02f6ad272H
	DD	03fffeb38H
	DD	09765432H
	DD	02b261dabH
	DD	03fH
	DD	020f72928H
	DD	02d5a4e51H
	DD	03ffdeb17H
	DD	06543210H
	DD	02b361dabH
	DD	03fH
	DD	020f72928H
	DD	02d5a4e51H
	DD	03ffde717H
	DD	06543210H
	DD	02b461dabH
	DD	03fH
	DD	020f72928H
	DD	02d5a4e51H
	DD	03ffd6717H
	DD	06543210H
	DD	07561dabH
	DD	03fH
	DD	02307b928H
	DD	02f6ad272H
	DD	03fcdeb38H
	DD	06543210H
	DD	02b2601abH
	DD	03fH
	DD	020f72928H
	DD	02d5a4e51H
	DD	03ffdeb17H
	DD	07654321H
	DD	02b3601abH
	DD	03fH
	DD	020f72928H
	DD	02d5a4e51H
	DD	03ffde717H
	DD	07654321H
	DD	02b4601abH
	DD	03fH
	DD	020f72928H
	DD	02d5a4e51H
	DD	03ffd6717H
	DD	07654321H
	DD	075601abH
	DD	03fH
	DD	02307b928H
	DD	02f6ad272H
	DD	03fcdeb38H
	DD	07654321H
	DD	02b2081abH
	DD	03fH
	DD	020f73149H
	DD	02d5a4e51H
	DD	03ffdeb17H
	DD	08765432H
	DD	02b3081abH
	DD	03fH
	DD	020f73149H
	DD	02d5a4e51H
	DD	03ffde717H
	DD	08765432H
	DD	02b4081abH
	DD	03fH
	DD	020f73149H
	DD	02d5a4e51H
	DD	03ffd6717H
	DD	08765432H
	DD	075081abH
	DD	03fH
	DD	02307b989H
	DD	02f6ad272H
	DD	03fcdeb38H
	DD	08765432H
	DD	02a161dabH
	DD	03fH
	DD	02307b949H
	DD	02f6ad272H
	DD	03ffdeb38H
	DD	06543210H
	DD	02a161dabH
	DD	03fH
	DD	02307b949H
	DD	02f6ad272H
	DD	03ffdeb38H
	DD	06543210H
	DD	06161dabH
	DD	03fH
	DD	025183dc9H
	DD	0317b5693H
	DD	03ffe6f59H
	DD	06543210H
	DD	02c161dabH
	DD	03fH
	DD	02307b949H
	DD	02f6ad272H
	DD	03fcdeb38H
	DD	06543210H
	DD	02a1601abH
	DD	03fH
	DD	02307b949H
	DD	02f6ad272H
	DD	03ffdeb38H
	DD	07654321H
	DD	02a1601abH
	DD	03fH
	DD	02307b949H
	DD	02f6ad272H
	DD	03ffdeb38H
	DD	07654321H
	DD	061601abH
	DD	03fH
	DD	025183dc9H
	DD	0317b5693H
	DD	03ffe6f59H
	DD	07654321H
	DD	02c1601abH
	DD	03fH
	DD	02307b949H
	DD	02f6ad272H
	DD	03fcdeb38H
	DD	07654321H
	DD	02a1081abH
	DD	03fH
	DD	02307b98aH
	DD	02f6ad272H
	DD	03ffdeb38H
	DD	09765432H
	DD	02a1081abH
	DD	03fH
	DD	02307b98aH
	DD	02f6ad272H
	DD	03ffdeb38H
	DD	09765432H
	DD	061081abH
	DD	03fH
	DD	025183dccH
	DD	0317b5693H
	DD	03ffe6f59H
	DD	09765432H
	DD	02c1081abH
	DD	03fH
	DD	02307b98aH
	DD	02f6ad272H
	DD	03fcdeb38H
	DD	09765432H
	DD	03e161dabH
	DD	03fH
	DD	02307b949H
	DD	02f6ad272H
	DD	03ffdeb38H
	DD	06543210H
	DD	03e1601abH
	DD	03fH
	DD	02307b949H
	DD	02f6ad272H
	DD	03ffdeb38H
	DD	07654321H
	DD	03e1081abH
	DD	03fH
	DD	02307b98aH
	DD	02f6ad272H
	DD	03ffdeb38H
	DD	09765432H
	DD	02d261dabH
	DD	03fH
	DD	020f72928H
	DD	02d5a4e51H
	DD	03fcdeb17H
	DD	06543210H
	DD	02d361dabH
	DD	03fH
	DD	020f72928H
	DD	02d5a4e51H
	DD	03fcde717H
	DD	06543210H
	DD	02d461dabH
	DD	03fH
	DD	020f72928H
	DD	02d5a4e51H
	DD	03fcd6717H
	DD	06543210H
	DD	02d561dabH
	DD	03fH
	DD	020f72928H
	DD	02d5a4e51H
	DD	03fbd6717H
	DD	06543210H
	DD	02d2601abH
	DD	03fH
	DD	020f72928H
	DD	02d5a4e51H
	DD	03fcdeb17H
	DD	07654321H
	DD	02d3601abH
	DD	03fH
	DD	020f72928H
	DD	02d5a4e51H
	DD	03fcde717H
	DD	07654321H
	DD	02d4601abH
	DD	03fH
	DD	020f72928H
	DD	02d5a4e51H
	DD	03fcd6717H
	DD	07654321H
	DD	02d5601abH
	DD	03fH
	DD	020f72928H
	DD	02d5a4e51H
	DD	03fbd6717H
	DD	07654321H
	DD	02d2081abH
	DD	03fH
	DD	020f73149H
	DD	02d5a4e51H
	DD	03fcdeb17H
	DD	08765432H
	DD	02d3081abH
	DD	03fH
	DD	020f73149H
	DD	02d5a4e51H
	DD	03fcde717H
	DD	08765432H
	DD	02d4081abH
	DD	03fH
	DD	020f73149H
	DD	02d5a4e51H
	DD	03fcd6717H
	DD	08765432H
	DD	02d5081abH
	DD	03fH
	DD	020f73149H
	DD	02d5a4e51H
	DD	03fbd6717H
	DD	08765432H
	DD	02c161dabH
	DD	03fH
	DD	02307b949H
	DD	02f6ad272H
	DD	03fcdeb38H
	DD	06543210H
	DD	02c161dabH
	DD	03fH
	DD	02307b949H
	DD	02f6ad272H
	DD	03fcdeb38H
	DD	06543210H
	DD	02c161dabH
	DD	03fH
	DD	02307b949H
	DD	02f6ad272H
	DD	03fcdeb38H
	DD	06543210H
	DD	06161dabH
	DD	03fH
	DD	025183dc9H
	DD	0317b5693H
	DD	03fde6f59H
	DD	06543210H
	DD	02c1601abH
	DD	03fH
	DD	02307b949H
	DD	02f6ad272H
	DD	03fcdeb38H
	DD	07654321H
	DD	02c1601abH
	DD	03fH
	DD	02307b949H
	DD	02f6ad272H
	DD	03fcdeb38H
	DD	07654321H
	DD	02c1601abH
	DD	03fH
	DD	02307b949H
	DD	02f6ad272H
	DD	03fcdeb38H
	DD	07654321H
	DD	061601abH
	DD	03fH
	DD	025183dc9H
	DD	0317b5693H
	DD	03fde6f59H
	DD	07654321H
	DD	02c1081abH
	DD	03fH
	DD	02307b98aH
	DD	02f6ad272H
	DD	03fcdeb38H
	DD	09765432H
	DD	02c1081abH
	DD	03fH
	DD	02307b98aH
	DD	02f6ad272H
	DD	03fcdeb38H
	DD	09765432H
	DD	02c1081abH
	DD	03fH
	DD	02307b98aH
	DD	02f6ad272H
	DD	03fcdeb38H
	DD	09765432H
	DD	061081abH
	DD	03fH
	DD	025183dccH
	DD	0317b5693H
	DD	03fde6f59H
	DD	09765432H
	DD	03e161dabH
	DD	03fH
	DD	02307b949H
	DD	02f6ad272H
	DD	03fcdeb38H
	DD	06543210H
	DD	03e1601abH
	DD	03fH
	DD	02307b949H
	DD	02f6ad272H
	DD	03fcdeb38H
	DD	07654321H
	DD	03e1081abH
	DD	03fH
	DD	02307b98aH
	DD	02f6ad272H
	DD	03fcdeb38H
	DD	09765432H
	DD	0251f9dabH
	DD	03fH
	DD	01ee62928H
	DD	02b49ca30H
	DD	03ffffef6H
	DD	06543210H
	DD	072f9dabH
	DD	03fH
	DD	020f73128H
	DD	02d5a4e51H
	DD	03fffe717H
	DD	06543210H
	DD	0271f9dabH
	DD	03fH
	DD	01ee62928H
	DD	02b49ca30H
	DD	03ffce2f6H
	DD	06543210H
	DD	0291f9dabH
	DD	03fH
	DD	01ee62928H
	DD	02b49ca30H
	DD	03face2f6H
	DD	06543210H
	DD	0251f81abH
	DD	03fH
	DD	01ee62928H
	DD	02b49ca30H
	DD	03ffffef6H
	DD	07654321H
	DD	072f81abH
	DD	03fH
	DD	020f73128H
	DD	02d5a4e51H
	DD	03fffe717H
	DD	07654321H
	DD	0271f81abH
	DD	03fH
	DD	01ee62928H
	DD	02b49ca30H
	DD	03ffce2f6H
	DD	07654321H
	DD	0291f81abH
	DD	03fH
	DD	01ee62928H
	DD	02b49ca30H
	DD	03face2f6H
	DD	07654321H
	DD	061f9dabH
	DD	03fH
	DD	02307b989H
	DD	02f6ad272H
	DD	03fffff38H
	DD	06543210H
	DD	0261f9dabH
	DD	03fH
	DD	020f73149H
	DD	02d5a4e51H
	DD	03fffe717H
	DD	06543210H
	DD	0281f9dabH
	DD	03fH
	DD	020f73149H
	DD	02d5a4e51H
	DD	03ffd6717H
	DD	06543210H
	DD	02a1f9dabH
	DD	03fH
	DD	020f73149H
	DD	02d5a4e51H
	DD	03fbd6717H
	DD	06543210H
	DD	061f81abH
	DD	03fH
	DD	02307b989H
	DD	02f6ad272H
	DD	03fffff38H
	DD	07654321H
	DD	0261f81abH
	DD	03fH
	DD	020f73149H
	DD	02d5a4e51H
	DD	03fffe717H
	DD	07654321H
	DD	0281f81abH
	DD	03fH
	DD	020f73149H
	DD	02d5a4e51H
	DD	03ffd6717H
	DD	07654321H
	DD	02a1f81abH
	DD	03fH
	DD	020f73149H
	DD	02d5a4e51H
	DD	03fbd6717H
	DD	07654321H
	DD	03e1f9dabH
	DD	03fH
	DD	020f73149H
	DD	02d5a4e51H
	DD	03fffff17H
	DD	06543210H
	DD	03e1f81abH
	DD	03fH
	DD	020f73149H
	DD	02d5a4e51H
	DD	03fffff17H
	DD	07654321H
	DD	0271f9dabH
	DD	03fH
	DD	01ee62928H
	DD	02b49ca30H
	DD	03fffe6f6H
	DD	06543210H
	DD	0272f9dabH
	DD	03fH
	DD	01ee62928H
	DD	02b49ca30H
	DD	03fffe2f6H
	DD	06543210H
	DD	073f9dabH
	DD	03fH
	DD	020f73128H
	DD	02d5a4e51H
	DD	03ffd6717H
	DD	06543210H
	DD	0292f9dabH
	DD	03fH
	DD	01ee62928H
	DD	02b49ca30H
	DD	03face2f6H
	DD	06543210H
	DD	0271f81abH
	DD	03fH
	DD	01ee62928H
	DD	02b49ca30H
	DD	03fffe6f6H
	DD	07654321H
	DD	0272f81abH
	DD	03fH
	DD	01ee62928H
	DD	02b49ca30H
	DD	03fffe2f6H
	DD	07654321H
	DD	073f81abH
	DD	03fH
	DD	020f73128H
	DD	02d5a4e51H
	DD	03ffd6717H
	DD	07654321H
	DD	0292f81abH
	DD	03fH
	DD	01ee62928H
	DD	02b49ca30H
	DD	03face2f6H
	DD	07654321H
	DD	0261f9dabH
	DD	03fH
	DD	020f73149H
	DD	02d5a4e51H
	DD	03fffe717H
	DD	06543210H
	DD	061f9dabH
	DD	03fH
	DD	02307b989H
	DD	02f6ad272H
	DD	03fffeb38H
	DD	06543210H
	DD	0281f9dabH
	DD	03fH
	DD	020f73149H
	DD	02d5a4e51H
	DD	03ffd6717H
	DD	06543210H
	DD	02a1f9dabH
	DD	03fH
	DD	020f73149H
	DD	02d5a4e51H
	DD	03fbd6717H
	DD	06543210H
	DD	0261f81abH
	DD	03fH
	DD	020f73149H
	DD	02d5a4e51H
	DD	03fffe717H
	DD	07654321H
	DD	061f81abH
	DD	03fH
	DD	02307b989H
	DD	02f6ad272H
	DD	03fffeb38H
	DD	07654321H
	DD	0281f81abH
	DD	03fH
	DD	020f73149H
	DD	02d5a4e51H
	DD	03ffd6717H
	DD	07654321H
	DD	02a1f81abH
	DD	03fH
	DD	020f73149H
	DD	02d5a4e51H
	DD	03fbd6717H
	DD	07654321H
	DD	03e1f9dabH
	DD	03fH
	DD	020f73149H
	DD	02d5a4e51H
	DD	03fffe717H
	DD	06543210H
	DD	03e1f81abH
	DD	03fH
	DD	020f73149H
	DD	02d5a4e51H
	DD	03fffe717H
	DD	07654321H
	DD	0291f9dabH
	DD	03fH
	DD	01ee62928H
	DD	02b49ca30H
	DD	03ffd66f6H
	DD	06543210H
	DD	0292f9dabH
	DD	03fH
	DD	01ee62928H
	DD	02b49ca30H
	DD	03ffd62f6H
	DD	06543210H
	DD	0293f9dabH
	DD	03fH
	DD	01ee62928H
	DD	02b49ca30H
	DD	03ffce2f6H
	DD	06543210H
	DD	074f9dabH
	DD	03fH
	DD	020f73128H
	DD	02d5a4e51H
	DD	03fbd6717H
	DD	06543210H
	DD	0291f81abH
	DD	03fH
	DD	01ee62928H
	DD	02b49ca30H
	DD	03ffd66f6H
	DD	07654321H
	DD	0292f81abH
	DD	03fH
	DD	01ee62928H
	DD	02b49ca30H
	DD	03ffd62f6H
	DD	07654321H
	DD	0293f81abH
	DD	03fH
	DD	01ee62928H
	DD	02b49ca30H
	DD	03ffce2f6H
	DD	07654321H
	DD	074f81abH
	DD	03fH
	DD	020f73128H
	DD	02d5a4e51H
	DD	03fbd6717H
	DD	07654321H
	DD	0281f9dabH
	DD	03fH
	DD	020f73149H
	DD	02d5a4e51H
	DD	03ffd6717H
	DD	06543210H
	DD	0281f9dabH
	DD	03fH
	DD	020f73149H
	DD	02d5a4e51H
	DD	03ffd6717H
	DD	06543210H
	DD	061f9dabH
	DD	03fH
	DD	02307b989H
	DD	02f6ad272H
	DD	03ffdeb38H
	DD	06543210H
	DD	02a1f9dabH
	DD	03fH
	DD	020f73149H
	DD	02d5a4e51H
	DD	03fbd6717H
	DD	06543210H
	DD	0281f81abH
	DD	03fH
	DD	020f73149H
	DD	02d5a4e51H
	DD	03ffd6717H
	DD	07654321H
	DD	0281f81abH
	DD	03fH
	DD	020f73149H
	DD	02d5a4e51H
	DD	03ffd6717H
	DD	07654321H
	DD	061f81abH
	DD	03fH
	DD	02307b989H
	DD	02f6ad272H
	DD	03ffdeb38H
	DD	07654321H
	DD	02a1f81abH
	DD	03fH
	DD	020f73149H
	DD	02d5a4e51H
	DD	03fbd6717H
	DD	07654321H
	DD	03e1f9dabH
	DD	03fH
	DD	020f73149H
	DD	02d5a4e51H
	DD	03ffd6717H
	DD	06543210H
	DD	03e1f81abH
	DD	03fH
	DD	020f73149H
	DD	02d5a4e51H
	DD	03ffd6717H
	DD	07654321H
	DD	02b1f9dabH
	DD	03fH
	DD	01ee62928H
	DD	02b49ca30H
	DD	03fbd66f6H
	DD	06543210H
	DD	02b2f9dabH
	DD	03fH
	DD	01ee62928H
	DD	02b49ca30H
	DD	03fbd62f6H
	DD	06543210H
	DD	02b3f9dabH
	DD	03fH
	DD	01ee62928H
	DD	02b49ca30H
	DD	03fbce2f6H
	DD	06543210H
	DD	02b4f9dabH
	DD	03fH
	DD	01ee62928H
	DD	02b49ca30H
	DD	03face2f6H
	DD	06543210H
	DD	02b1f81abH
	DD	03fH
	DD	01ee62928H
	DD	02b49ca30H
	DD	03fbd66f6H
	DD	07654321H
	DD	02b2f81abH
	DD	03fH
	DD	01ee62928H
	DD	02b49ca30H
	DD	03fbd62f6H
	DD	07654321H
	DD	02b3f81abH
	DD	03fH
	DD	01ee62928H
	DD	02b49ca30H
	DD	03fbce2f6H
	DD	07654321H
	DD	02b4f81abH
	DD	03fH
	DD	01ee62928H
	DD	02b49ca30H
	DD	03face2f6H
	DD	07654321H
	DD	02a1f9dabH
	DD	03fH
	DD	020f73149H
	DD	02d5a4e51H
	DD	03fbd6717H
	DD	06543210H
	DD	02a1f9dabH
	DD	03fH
	DD	020f73149H
	DD	02d5a4e51H
	DD	03fbd6717H
	DD	06543210H
	DD	02a1f9dabH
	DD	03fH
	DD	020f73149H
	DD	02d5a4e51H
	DD	03fbd6717H
	DD	06543210H
	DD	061f9dabH
	DD	03fH
	DD	02307b989H
	DD	02f6ad272H
	DD	03fcdeb38H
	DD	06543210H
	DD	02a1f81abH
	DD	03fH
	DD	020f73149H
	DD	02d5a4e51H
	DD	03fbd6717H
	DD	07654321H
	DD	02a1f81abH
	DD	03fH
	DD	020f73149H
	DD	02d5a4e51H
	DD	03fbd6717H
	DD	07654321H
	DD	02a1f81abH
	DD	03fH
	DD	020f73149H
	DD	02d5a4e51H
	DD	03fbd6717H
	DD	07654321H
	DD	061f81abH
	DD	03fH
	DD	02307b989H
	DD	02f6ad272H
	DD	03fcdeb38H
	DD	07654321H
	DD	03e1f9dabH
	DD	03fH
	DD	020f73149H
	DD	02d5a4e51H
	DD	03fbd6717H
	DD	06543210H
	DD	03e1f81abH
	DD	03fH
	DD	020f73149H
	DD	02d5a4e51H
	DD	03fbd6717H
	DD	07654321H
	DD	03ff61dabH
	DD	03fH
	DD	020f72928H
	DD	02d5a4e51H
	DD	03fffe717H
	DD	06543210H
	DD	03ff601abH
	DD	03fH
	DD	020f72928H
	DD	02d5a4e51H
	DD	03fffe717H
	DD	07654321H
	DD	03ff081abH
	DD	03fH
	DD	020f73149H
	DD	02d5a4e51H
	DD	03fffe717H
	DD	08765432H
	DD	03e161dabH
	DD	03fH
	DD	02307b949H
	DD	02f6ad272H
	DD	03fffeb38H
	DD	06543210H
	DD	03e1601abH
	DD	03fH
	DD	02307b949H
	DD	02f6ad272H
	DD	03fffeb38H
	DD	07654321H
	DD	03e1081abH
	DD	03fH
	DD	02307b98aH
	DD	02f6ad272H
	DD	03fffeb38H
	DD	09765432H
	DD	03ff61dabH
	DD	03fH
	DD	020f72928H
	DD	02d5a4e51H
	DD	03ffd6717H
	DD	06543210H
	DD	03ff601abH
	DD	03fH
	DD	020f72928H
	DD	02d5a4e51H
	DD	03ffd6717H
	DD	07654321H
	DD	03ff081abH
	DD	03fH
	DD	020f73149H
	DD	02d5a4e51H
	DD	03ffd6717H
	DD	08765432H
	DD	03e161dabH
	DD	03fH
	DD	02307b949H
	DD	02f6ad272H
	DD	03ffdeb38H
	DD	06543210H
	DD	03e1601abH
	DD	03fH
	DD	02307b949H
	DD	02f6ad272H
	DD	03ffdeb38H
	DD	07654321H
	DD	03e1081abH
	DD	03fH
	DD	02307b98aH
	DD	02f6ad272H
	DD	03ffdeb38H
	DD	09765432H
	DD	03ff61dabH
	DD	03fH
	DD	020f72928H
	DD	02d5a4e51H
	DD	03fbd6717H
	DD	06543210H
	DD	03ff601abH
	DD	03fH
	DD	020f72928H
	DD	02d5a4e51H
	DD	03fbd6717H
	DD	07654321H
	DD	03ff081abH
	DD	03fH
	DD	020f73149H
	DD	02d5a4e51H
	DD	03fbd6717H
	DD	08765432H
	DD	03e161dabH
	DD	03fH
	DD	02307b949H
	DD	02f6ad272H
	DD	03fcdeb38H
	DD	06543210H
	DD	03e1601abH
	DD	03fH
	DD	02307b949H
	DD	02f6ad272H
	DD	03fcdeb38H
	DD	07654321H
	DD	03e1081abH
	DD	03fH
	DD	02307b98aH
	DD	02f6ad272H
	DD	03fcdeb38H
	DD	09765432H
	DD	03ff61dabH
	DD	03fH
	DD	020f72928H
	DD	02d5a4e51H
	DD	039bd6717H
	DD	06543210H
	DD	03ff601abH
	DD	03fH
	DD	020f72928H
	DD	02d5a4e51H
	DD	039bd6717H
	DD	07654321H
	DD	03ff081abH
	DD	03fH
	DD	020f73149H
	DD	02d5a4e51H
	DD	039bd6717H
	DD	08765432H
	DD	03e161dabH
	DD	03fH
	DD	02307b949H
	DD	02f6ad272H
	DD	03bcdeb38H
	DD	06543210H
	DD	03e1601abH
	DD	03fH
	DD	02307b949H
	DD	02f6ad272H
	DD	03bcdeb38H
	DD	07654321H
	DD	03e1081abH
	DD	03fH
	DD	02307b98aH
	DD	02f6ad272H
	DD	03bcdeb38H
	DD	09765432H
	DD	03ff61dabH
	DD	03fH
	DD	020f72928H
	DD	02d5a4e51H
	DD	03fffff17H
	DD	06543210H
	DD	03ff601abH
	DD	03fH
	DD	020f72928H
	DD	02d5a4e51H
	DD	03fffff17H
	DD	07654321H
	DD	03ff081abH
	DD	03fH
	DD	020f73149H
	DD	02d5a4e51H
	DD	03fffff17H
	DD	08765432H
	DD	03e161dabH
	DD	03fH
	DD	02307b949H
	DD	02f6ad272H
	DD	03fffff38H
	DD	06543210H
	DD	03e1601abH
	DD	03fH
	DD	02307b949H
	DD	02f6ad272H
	DD	03fffff38H
	DD	07654321H
	DD	03e1081abH
	DD	03fH
	DD	02307b98aH
	DD	02f6ad272H
	DD	03fffff38H
	DD	09765432H
	DD	03ff61dabH
	DD	03fH
	DD	020f72928H
	DD	02d5a4e51H
	DD	03fffe717H
	DD	06543210H
	DD	03ff601abH
	DD	03fH
	DD	020f72928H
	DD	02d5a4e51H
	DD	03fffe717H
	DD	07654321H
	DD	03ff081abH
	DD	03fH
	DD	020f73149H
	DD	02d5a4e51H
	DD	03fffe717H
	DD	08765432H
	DD	03e161dabH
	DD	03fH
	DD	02307b949H
	DD	02f6ad272H
	DD	03fffeb38H
	DD	06543210H
	DD	03e1601abH
	DD	03fH
	DD	02307b949H
	DD	02f6ad272H
	DD	03fffeb38H
	DD	07654321H
	DD	03e1081abH
	DD	03fH
	DD	02307b98aH
	DD	02f6ad272H
	DD	03fffeb38H
	DD	09765432H
	DD	03ff61dabH
	DD	03fH
	DD	020f72928H
	DD	02d5a4e51H
	DD	03ffd6717H
	DD	06543210H
	DD	03ff601abH
	DD	03fH
	DD	020f72928H
	DD	02d5a4e51H
	DD	03ffd6717H
	DD	07654321H
	DD	03ff081abH
	DD	03fH
	DD	020f73149H
	DD	02d5a4e51H
	DD	03ffd6717H
	DD	08765432H
	DD	03e161dabH
	DD	03fH
	DD	02307b949H
	DD	02f6ad272H
	DD	03ffdeb38H
	DD	06543210H
	DD	03e1601abH
	DD	03fH
	DD	02307b949H
	DD	02f6ad272H
	DD	03ffdeb38H
	DD	07654321H
	DD	03e1081abH
	DD	03fH
	DD	02307b98aH
	DD	02f6ad272H
	DD	03ffdeb38H
	DD	09765432H
	DD	03ff61dabH
	DD	03fH
	DD	020f72928H
	DD	02d5a4e51H
	DD	03fbd6717H
	DD	06543210H
	DD	03ff601abH
	DD	03fH
	DD	020f72928H
	DD	02d5a4e51H
	DD	03fbd6717H
	DD	07654321H
	DD	03ff081abH
	DD	03fH
	DD	020f73149H
	DD	02d5a4e51H
	DD	03fbd6717H
	DD	08765432H
	DD	03e161dabH
	DD	03fH
	DD	02307b949H
	DD	02f6ad272H
	DD	03fcdeb38H
	DD	06543210H
	DD	03e1601abH
	DD	03fH
	DD	02307b949H
	DD	02f6ad272H
	DD	03fcdeb38H
	DD	07654321H
	DD	03e1081abH
	DD	03fH
	DD	02307b98aH
	DD	02f6ad272H
	DD	03fcdeb38H
	DD	09765432H
	DD	03fff9dabH
	DD	03fH
	DD	01ee62928H
	DD	02b49ca30H
	DD	03ffffef6H
	DD	06543210H
	DD	03fff81abH
	DD	03fH
	DD	01ee62928H
	DD	02b49ca30H
	DD	03ffffef6H
	DD	07654321H
	DD	03e1f9dabH
	DD	03fH
	DD	020f73149H
	DD	02d5a4e51H
	DD	03fffff17H
	DD	06543210H
	DD	03e1f81abH
	DD	03fH
	DD	020f73149H
	DD	02d5a4e51H
	DD	03fffff17H
	DD	07654321H
	DD	03fff9dabH
	DD	03fH
	DD	01ee62928H
	DD	02b49ca30H
	DD	03fffe2f6H
	DD	06543210H
	DD	03fff81abH
	DD	03fH
	DD	01ee62928H
	DD	02b49ca30H
	DD	03fffe2f6H
	DD	07654321H
	DD	03e1f9dabH
	DD	03fH
	DD	020f73149H
	DD	02d5a4e51H
	DD	03fffe717H
	DD	06543210H
	DD	03e1f81abH
	DD	03fH
	DD	020f73149H
	DD	02d5a4e51H
	DD	03fffe717H
	DD	07654321H
	DD	03fff9dabH
	DD	03fH
	DD	01ee62928H
	DD	02b49ca30H
	DD	03ffce2f6H
	DD	06543210H
	DD	03fff81abH
	DD	03fH
	DD	01ee62928H
	DD	02b49ca30H
	DD	03ffce2f6H
	DD	07654321H
	DD	03e1f9dabH
	DD	03fH
	DD	020f73149H
	DD	02d5a4e51H
	DD	03ffd6717H
	DD	06543210H
	DD	03e1f81abH
	DD	03fH
	DD	020f73149H
	DD	02d5a4e51H
	DD	03ffd6717H
	DD	07654321H
	DD	03fff9dabH
	DD	03fH
	DD	01ee62928H
	DD	02b49ca30H
	DD	03face2f6H
	DD	06543210H
	DD	03fff81abH
	DD	03fH
	DD	01ee62928H
	DD	02b49ca30H
	DD	03face2f6H
	DD	07654321H
	DD	03e1f9dabH
	DD	03fH
	DD	020f73149H
	DD	02d5a4e51H
	DD	03fbd6717H
	DD	06543210H
	DD	03e1f81abH
	DD	03fH
	DD	020f73149H
	DD	02d5a4e51H
	DD	03fbd6717H
	DD	07654321H
	DD	07ffb167H
	DD	03fH
	DD	020f73528H
	DD	02d5a4e51H
	DD	03fffff17H
	DD	06543210H
	DD	0251fb167H
	DD	03fH
	DD	01ee6a928H
	DD	02b49ca30H
	DD	03ffffef6H
	DD	06543210H
	DD	03fffb167H
	DD	03fH
	DD	01ee6a928H
	DD	02b49ca30H
	DD	03ffffef6H
	DD	06543210H
	DD	07ffb167H
	DD	03fH
	DD	020f73528H
	DD	02d5a4e51H
	DD	03ffffff7H
	DD	06543210H
	DD	0230fb167H
	DD	03fH
	DD	01ee6a928H
	DD	02b49ca30H
	DD	03ffffff6H
	DD	06543210H
	DD	03fffb167H
	DD	03fH
	DD	01ee6a928H
	DD	02b49ca30H
	DD	03ffffff6H
	DD	06543210H
	DD	0251fb167H
	DD	03fH
	DD	01ee6a928H
	DD	02b49ca30H
	DD	03ffffef6H
	DD	06543210H
	DD	061fb167H
	DD	03fH
	DD	02307b9a9H
	DD	02f6ad272H
	DD	03fffff38H
	DD	06543210H
	DD	03e1fb167H
	DD	03fH
	DD	020f73549H
	DD	02d5a4e51H
	DD	03fffff17H
	DD	06543210H
	DD	0230fb167H
	DD	03fH
	DD	01ee6a928H
	DD	02b49ca30H
	DD	03ffffff6H
	DD	06543210H
	DD	061fb167H
	DD	03fH
	DD	02307b9a9H
	DD	02f6ad272H
	DD	03ffffff8H
	DD	06543210H
	DD	03e1fb167H
	DD	03fH
	DD	020f73549H
	DD	02d5a4e51H
	DD	03ffffff7H
	DD	06543210H
	DD	03fffb167H
	DD	03fH
	DD	01cd52506H
	DD	02939460fH
	DD	03ffffff5H
	DD	05432100H
	DD	07fffb167H
	DD	03fH
	DD	01cd52506H
	DD	02939460fH
	DD	03fffded5H
	DD	05432100H
	DD	07fffb167H
	DD	03fH
	DD	01cd52506H
	DD	02939460fH
	DD	03ffc5ed5H
	DD	05432100H
	DD	07fffb167H
	DD	020H
	DD	01cd52506H
	DD	02939460fH
	DD	03ffc5ed5H
	DD	05432100H
	DD	07fffb167H
	DD	03fH
	DD	01cd52506H
	DD	02939460fH
	DD	03ffffed5H
	DD	05432100H
	DD	07fffb167H
	DD	03fH
	DD	01cd52506H
	DD	02939460fH
	DD	03fffded5H
	DD	05432100H
	DD	07fffb167H
	DD	03fH
	DD	01cd52506H
	DD	02939460fH
	DD	03ffc5ed5H
	DD	05432100H
	DD	07e1fb167H
	DD	03fH
	DD	01ee6a926H
	DD	02b49ca30H
	DD	03fffe2f6H
	DD	05432100H
	DD	07e1fb167H
	DD	03fH
	DD	01ee6a926H
	DD	02b49ca30H
	DD	03ffce2f6H
	DD	05432100H
	DD	07e1fb167H
	DD	020H
	DD	01ee6a926H
	DD	02b49ca30H
	DD	03ffce2f6H
	DD	05432100H
	DD	07e1fb167H
	DD	03fH
	DD	01ee6a926H
	DD	02b49ca30H
	DD	03ffffef6H
	DD	05432100H
	DD	07e1fb167H
	DD	03fH
	DD	01ee6a926H
	DD	02b49ca30H
	DD	03fffe2f6H
	DD	05432100H
	DD	07e1fb167H
	DD	03fH
	DD	01ee6a926H
	DD	02b49ca30H
	DD	03ffce2f6H
	DD	05432100H
	DD	07ff61dabH
	DD	03fH
	DD	01ee52506H
	DD	02b49ca30H
	DD	03ffffef6H
	DD	05432100H
	DD	07ff601abH
	DD	03fH
	DD	01ee52507H
	DD	02b49ca30H
	DD	03ffffef6H
	DD	06543210H
	DD	07ff081abH
	DD	03fH
	DD	01ee62928H
	DD	02b49ca30H
	DD	03ffffef6H
	DD	07654320H
	DD	07ff61dabH
	DD	03fH
	DD	01ee52506H
	DD	02b49ca30H
	DD	03fffe2f6H
	DD	05432100H
	DD	07ff601abH
	DD	03fH
	DD	01ee52507H
	DD	02b49ca30H
	DD	03fffe2f6H
	DD	06543210H
	DD	07ff081abH
	DD	03fH
	DD	01ee62928H
	DD	02b49ca30H
	DD	03fffe2f6H
	DD	07654320H
	DD	07ff61dabH
	DD	03fH
	DD	01ee52506H
	DD	02b49ca30H
	DD	03ffce2f6H
	DD	05432100H
	DD	07ff601abH
	DD	03fH
	DD	01ee52507H
	DD	02b49ca30H
	DD	03ffce2f6H
	DD	06543210H
	DD	07ff081abH
	DD	03fH
	DD	01ee62928H
	DD	02b49ca30H
	DD	03ffce2f6H
	DD	07654320H
	DD	07ff61dabH
	DD	03fH
	DD	01ee52506H
	DD	02b49ca30H
	DD	03face2f6H
	DD	05432100H
	DD	07ff601abH
	DD	03fH
	DD	01ee52507H
	DD	02b49ca30H
	DD	03face2f6H
	DD	06543210H
	DD	07ff081abH
	DD	03fH
	DD	01ee62928H
	DD	02b49ca30H
	DD	03face2f6H
	DD	07654320H
	DD	07fff9dabH
	DD	03fH
	DD	01cc52506H
	DD	02939460fH
	DD	03ffffed5H
	DD	05432100H
	DD	07fff81abH
	DD	03fH
	DD	01cc52507H
	DD	02939460fH
	DD	03ffffed5H
	DD	06543210H
	DD	07fff81abH
	DD	03fH
	DD	01cc52507H
	DD	02939460fH
	DD	03ffffed5H
	DD	06543210H
	DD	07fff9dabH
	DD	03fH
	DD	01cc52506H
	DD	02939460fH
	DD	03fffded5H
	DD	05432100H
	DD	07fff81abH
	DD	03fH
	DD	01cc52507H
	DD	02939460fH
	DD	03fffded5H
	DD	06543210H
	DD	07fff81abH
	DD	03fH
	DD	01cc52507H
	DD	02939460fH
	DD	03fffded5H
	DD	06543210H
	DD	07fff9dabH
	DD	03fH
	DD	01cc52506H
	DD	02939460fH
	DD	03ffc5ed5H
	DD	05432100H
	DD	07fff81abH
	DD	03fH
	DD	01cc52507H
	DD	02939460fH
	DD	03ffc5ed5H
	DD	06543210H
	DD	07fff81abH
	DD	03fH
	DD	01cc52507H
	DD	02939460fH
	DD	03ffc5ed5H
	DD	06543210H
	DD	07fff9dabH
	DD	03fH
	DD	01cc52506H
	DD	02939460fH
	DD	03f9c5ed5H
	DD	05432100H
	DD	07fff81abH
	DD	03fH
	DD	01cc52507H
	DD	02939460fH
	DD	03f9c5ed5H
	DD	06543210H
	DD	07fff81abH
	DD	03fH
	DD	01cc52507H
	DD	02939460fH
	DD	03f9c5ed5H
	DD	06543210H
	DD	07e161dabH
	DD	03fH
	DD	020f72926H
	DD	02d5a4e51H
	DD	03fffff17H
	DD	05432100H
	DD	07e1601abH
	DD	03fH
	DD	020f72927H
	DD	02d5a4e51H
	DD	03fffff17H
	DD	06543210H
	DD	07e1081abH
	DD	03fH
	DD	020f73149H
	DD	02d5a4e51H
	DD	03fffff17H
	DD	07654320H
	DD	07e161dabH
	DD	03fH
	DD	020f72926H
	DD	02d5a4e51H
	DD	03fffe717H
	DD	05432100H
	DD	07e1601abH
	DD	03fH
	DD	020f72927H
	DD	02d5a4e51H
	DD	03fffe717H
	DD	06543210H
	DD	07e1081abH
	DD	03fH
	DD	020f73149H
	DD	02d5a4e51H
	DD	03fffe717H
	DD	07654320H
	DD	07e161dabH
	DD	03fH
	DD	020f72926H
	DD	02d5a4e51H
	DD	03ffd6717H
	DD	05432100H
	DD	07e1601abH
	DD	03fH
	DD	020f72927H
	DD	02d5a4e51H
	DD	03ffd6717H
	DD	06543210H
	DD	07e1081abH
	DD	03fH
	DD	020f73149H
	DD	02d5a4e51H
	DD	03ffd6717H
	DD	07654320H
	DD	07e161dabH
	DD	03fH
	DD	020f72926H
	DD	02d5a4e51H
	DD	03fbd6717H
	DD	05432100H
	DD	07e1601abH
	DD	03fH
	DD	020f72927H
	DD	02d5a4e51H
	DD	03fbd6717H
	DD	06543210H
	DD	07e1081abH
	DD	03fH
	DD	020f73149H
	DD	02d5a4e51H
	DD	03fbd6717H
	DD	07654320H
	DD	07e1f9dabH
	DD	03fH
	DD	01ee62926H
	DD	02b49ca30H
	DD	03ffffef6H
	DD	05432100H
	DD	07e1f81abH
	DD	03fH
	DD	01ee62927H
	DD	02b49ca30H
	DD	03ffffef6H
	DD	06543210H
	DD	07e1f81abH
	DD	03fH
	DD	01ee62927H
	DD	02b49ca30H
	DD	03ffffef6H
	DD	06543210H
	DD	07e1f9dabH
	DD	03fH
	DD	01ee62926H
	DD	02b49ca30H
	DD	03fffe2f6H
	DD	05432100H
	DD	07e1f81abH
	DD	03fH
	DD	01ee62927H
	DD	02b49ca30H
	DD	03fffe2f6H
	DD	06543210H
	DD	07e1f81abH
	DD	03fH
	DD	01ee62927H
	DD	02b49ca30H
	DD	03fffe2f6H
	DD	06543210H
	DD	07e1f9dabH
	DD	03fH
	DD	01ee62926H
	DD	02b49ca30H
	DD	03ffce2f6H
	DD	05432100H
	DD	07e1f81abH
	DD	03fH
	DD	01ee62927H
	DD	02b49ca30H
	DD	03ffce2f6H
	DD	06543210H
	DD	07e1f81abH
	DD	03fH
	DD	01ee62927H
	DD	02b49ca30H
	DD	03ffce2f6H
	DD	06543210H
	DD	07e1f9dabH
	DD	03fH
	DD	01ee62926H
	DD	02b49ca30H
	DD	03face2f6H
	DD	05432100H
	DD	07e1f81abH
	DD	03fH
	DD	01ee62927H
	DD	02b49ca30H
	DD	03face2f6H
	DD	06543210H
	DD	07e1f81abH
	DD	03fH
	DD	01ee62927H
	DD	02b49ca30H
	DD	03face2f6H
	DD	06543210H
	DD	027f61dabH
	DD	03fH
	DD	020f72928H
	DD	02d5a4e51H
	DD	03fffe717H
	DD	06543210H
	DD	029f61dabH
	DD	03fH
	DD	020f72928H
	DD	02d5a4e51H
	DD	03ffd6717H
	DD	06543210H
	DD	02bf61dabH
	DD	03fH
	DD	020f72928H
	DD	02d5a4e51H
	DD	03fbd6717H
	DD	06543210H
	DD	02df61dabH
	DD	03fH
	DD	020f72928H
	DD	02d5a4e51H
	DD	039bd6717H
	DD	06543210H
	DD	027f601abH
	DD	03fH
	DD	020f72928H
	DD	02d5a4e51H
	DD	03fffe717H
	DD	07654321H
	DD	029f601abH
	DD	03fH
	DD	020f72928H
	DD	02d5a4e51H
	DD	03ffd6717H
	DD	07654321H
	DD	02bf601abH
	DD	03fH
	DD	020f72928H
	DD	02d5a4e51H
	DD	03fbd6717H
	DD	07654321H
	DD	02df601abH
	DD	03fH
	DD	020f72928H
	DD	02d5a4e51H
	DD	039bd6717H
	DD	07654321H
	DD	027f081abH
	DD	03fH
	DD	020f73149H
	DD	02d5a4e51H
	DD	03fffe717H
	DD	08765432H
	DD	029f081abH
	DD	03fH
	DD	020f73149H
	DD	02d5a4e51H
	DD	03ffd6717H
	DD	08765432H
	DD	02bf081abH
	DD	03fH
	DD	020f73149H
	DD	02d5a4e51H
	DD	03fbd6717H
	DD	08765432H
	DD	02df081abH
	DD	03fH
	DD	020f73149H
	DD	02d5a4e51H
	DD	039bd6717H
	DD	08765432H
	DD	029361dabH
	DD	03fH
	DD	020f72928H
	DD	02d5a4e51H
	DD	03fffe717H
	DD	06543210H
	DD	02b361dabH
	DD	03fH
	DD	020f72928H
	DD	02d5a4e51H
	DD	03ffde717H
	DD	06543210H
	DD	02d361dabH
	DD	03fH
	DD	020f72928H
	DD	02d5a4e51H
	DD	03fcde717H
	DD	06543210H
	DD	02f361dabH
	DD	03fH
	DD	020f72928H
	DD	02d5a4e51H
	DD	03bcde717H
	DD	06543210H
	DD	0293601abH
	DD	03fH
	DD	020f72928H
	DD	02d5a4e51H
	DD	03fffe717H
	DD	07654321H
	DD	02b3601abH
	DD	03fH
	DD	020f72928H
	DD	02d5a4e51H
	DD	03ffde717H
	DD	07654321H
	DD	02d3601abH
	DD	03fH
	DD	020f72928H
	DD	02d5a4e51H
	DD	03fcde717H
	DD	07654321H
	DD	02f3601abH
	DD	03fH
	DD	020f72928H
	DD	02d5a4e51H
	DD	03bcde717H
	DD	07654321H
	DD	0293081abH
	DD	03fH
	DD	020f73149H
	DD	02d5a4e51H
	DD	03fffe717H
	DD	08765432H
	DD	02b3081abH
	DD	03fH
	DD	020f73149H
	DD	02d5a4e51H
	DD	03ffde717H
	DD	08765432H
	DD	02d3081abH
	DD	03fH
	DD	020f73149H
	DD	02d5a4e51H
	DD	03fcde717H
	DD	08765432H
	DD	02f3081abH
	DD	03fH
	DD	020f73149H
	DD	02d5a4e51H
	DD	03bcde717H
	DD	08765432H
	DD	029f61dabH
	DD	03fH
	DD	020f72928H
	DD	02d5a4e51H
	DD	03ffd6717H
	DD	06543210H
	DD	029f61dabH
	DD	03fH
	DD	020f72928H
	DD	02d5a4e51H
	DD	03ffd6717H
	DD	06543210H
	DD	02bf61dabH
	DD	03fH
	DD	020f72928H
	DD	02d5a4e51H
	DD	03fbd6717H
	DD	06543210H
	DD	02df61dabH
	DD	03fH
	DD	020f72928H
	DD	02d5a4e51H
	DD	039bd6717H
	DD	06543210H
	DD	029f601abH
	DD	03fH
	DD	020f72928H
	DD	02d5a4e51H
	DD	03ffd6717H
	DD	07654321H
	DD	029f601abH
	DD	03fH
	DD	020f72928H
	DD	02d5a4e51H
	DD	03ffd6717H
	DD	07654321H
	DD	02bf601abH
	DD	03fH
	DD	020f72928H
	DD	02d5a4e51H
	DD	03fbd6717H
	DD	07654321H
	DD	02df601abH
	DD	03fH
	DD	020f72928H
	DD	02d5a4e51H
	DD	039bd6717H
	DD	07654321H
	DD	029f081abH
	DD	03fH
	DD	020f73149H
	DD	02d5a4e51H
	DD	03ffd6717H
	DD	08765432H
	DD	029f081abH
	DD	03fH
	DD	020f73149H
	DD	02d5a4e51H
	DD	03ffd6717H
	DD	08765432H
	DD	02bf081abH
	DD	03fH
	DD	020f73149H
	DD	02d5a4e51H
	DD	03fbd6717H
	DD	08765432H
	DD	02df081abH
	DD	03fH
	DD	020f73149H
	DD	02d5a4e51H
	DD	039bd6717H
	DD	08765432H
	DD	029361dabH
	DD	03fH
	DD	020f72928H
	DD	02d5a4e51H
	DD	03ffd6717H
	DD	06543210H
	DD	02b461dabH
	DD	03fH
	DD	020f72928H
	DD	02d5a4e51H
	DD	03ffd6717H
	DD	06543210H
	DD	02d461dabH
	DD	03fH
	DD	020f72928H
	DD	02d5a4e51H
	DD	03fcd6717H
	DD	06543210H
	DD	02f461dabH
	DD	03fH
	DD	020f72928H
	DD	02d5a4e51H
	DD	03bcd6717H
	DD	06543210H
	DD	0293601abH
	DD	03fH
	DD	020f72928H
	DD	02d5a4e51H
	DD	03ffd6717H
	DD	07654321H
	DD	02b4601abH
	DD	03fH
	DD	020f72928H
	DD	02d5a4e51H
	DD	03ffd6717H
	DD	07654321H
	DD	02d4601abH
	DD	03fH
	DD	020f72928H
	DD	02d5a4e51H
	DD	03fcd6717H
	DD	07654321H
	DD	02f4601abH
	DD	03fH
	DD	020f72928H
	DD	02d5a4e51H
	DD	03bcd6717H
	DD	07654321H
	DD	0293081abH
	DD	03fH
	DD	020f73149H
	DD	02d5a4e51H
	DD	03ffd6717H
	DD	08765432H
	DD	02b4081abH
	DD	03fH
	DD	020f73149H
	DD	02d5a4e51H
	DD	03ffd6717H
	DD	08765432H
	DD	02d4081abH
	DD	03fH
	DD	020f73149H
	DD	02d5a4e51H
	DD	03fcd6717H
	DD	08765432H
	DD	02f4081abH
	DD	03fH
	DD	020f73149H
	DD	02d5a4e51H
	DD	03bcd6717H
	DD	08765432H
	DD	02bf61dabH
	DD	03fH
	DD	020f72928H
	DD	02d5a4e51H
	DD	03fbd6717H
	DD	06543210H
	DD	02bf61dabH
	DD	03fH
	DD	020f72928H
	DD	02d5a4e51H
	DD	03fbd6717H
	DD	06543210H
	DD	02bf61dabH
	DD	03fH
	DD	020f72928H
	DD	02d5a4e51H
	DD	03fbd6717H
	DD	06543210H
	DD	02df61dabH
	DD	03fH
	DD	020f72928H
	DD	02d5a4e51H
	DD	039bd6717H
	DD	06543210H
	DD	02bf601abH
	DD	03fH
	DD	020f72928H
	DD	02d5a4e51H
	DD	03fbd6717H
	DD	07654321H
	DD	02bf601abH
	DD	03fH
	DD	020f72928H
	DD	02d5a4e51H
	DD	03fbd6717H
	DD	07654321H
	DD	02bf601abH
	DD	03fH
	DD	020f72928H
	DD	02d5a4e51H
	DD	03fbd6717H
	DD	07654321H
	DD	02df601abH
	DD	03fH
	DD	020f72928H
	DD	02d5a4e51H
	DD	039bd6717H
	DD	07654321H
	DD	02bf081abH
	DD	03fH
	DD	020f73149H
	DD	02d5a4e51H
	DD	03fbd6717H
	DD	08765432H
	DD	02bf081abH
	DD	03fH
	DD	020f73149H
	DD	02d5a4e51H
	DD	03fbd6717H
	DD	08765432H
	DD	02bf081abH
	DD	03fH
	DD	020f73149H
	DD	02d5a4e51H
	DD	03fbd6717H
	DD	08765432H
	DD	02df081abH
	DD	03fH
	DD	020f73149H
	DD	02d5a4e51H
	DD	039bd6717H
	DD	08765432H
	DD	02b361dabH
	DD	03fH
	DD	020f72928H
	DD	02d5a4e51H
	DD	03fbd6717H
	DD	06543210H
	DD	02b461dabH
	DD	03fH
	DD	020f72928H
	DD	02d5a4e51H
	DD	03fbd6717H
	DD	06543210H
	DD	02d561dabH
	DD	03fH
	DD	020f72928H
	DD	02d5a4e51H
	DD	03fbd6717H
	DD	06543210H
	DD	02f561dabH
	DD	03fH
	DD	020f72928H
	DD	02d5a4e51H
	DD	03bbd6717H
	DD	06543210H
	DD	02b3601abH
	DD	03fH
	DD	020f72928H
	DD	02d5a4e51H
	DD	03fbd6717H
	DD	07654321H
	DD	02b4601abH
	DD	03fH
	DD	020f72928H
	DD	02d5a4e51H
	DD	03fbd6717H
	DD	07654321H
	DD	02d5601abH
	DD	03fH
	DD	020f72928H
	DD	02d5a4e51H
	DD	03fbd6717H
	DD	07654321H
	DD	02f5601abH
	DD	03fH
	DD	020f72928H
	DD	02d5a4e51H
	DD	03bbd6717H
	DD	07654321H
	DD	02b3081abH
	DD	03fH
	DD	020f73149H
	DD	02d5a4e51H
	DD	03fbd6717H
	DD	08765432H
	DD	02b4081abH
	DD	03fH
	DD	020f73149H
	DD	02d5a4e51H
	DD	03fbd6717H
	DD	08765432H
	DD	02d5081abH
	DD	03fH
	DD	020f73149H
	DD	02d5a4e51H
	DD	03fbd6717H
	DD	08765432H
	DD	02f5081abH
	DD	03fH
	DD	020f73149H
	DD	02d5a4e51H
	DD	03bbd6717H
	DD	08765432H
	DD	02df61dabH
	DD	03fH
	DD	020f72928H
	DD	02d5a4e51H
	DD	039bd6717H
	DD	06543210H
	DD	02df61dabH
	DD	03fH
	DD	020f72928H
	DD	02d5a4e51H
	DD	039bd6717H
	DD	06543210H
	DD	02df61dabH
	DD	03fH
	DD	020f72928H
	DD	02d5a4e51H
	DD	039bd6717H
	DD	06543210H
	DD	02df61dabH
	DD	03fH
	DD	020f72928H
	DD	02d5a4e51H
	DD	039bd6717H
	DD	06543210H
	DD	02df601abH
	DD	03fH
	DD	020f72928H
	DD	02d5a4e51H
	DD	039bd6717H
	DD	07654321H
	DD	02df601abH
	DD	03fH
	DD	020f72928H
	DD	02d5a4e51H
	DD	039bd6717H
	DD	07654321H
	DD	02df601abH
	DD	03fH
	DD	020f72928H
	DD	02d5a4e51H
	DD	039bd6717H
	DD	07654321H
	DD	02df601abH
	DD	03fH
	DD	020f72928H
	DD	02d5a4e51H
	DD	039bd6717H
	DD	07654321H
	DD	02df081abH
	DD	03fH
	DD	020f73149H
	DD	02d5a4e51H
	DD	039bd6717H
	DD	08765432H
	DD	02df081abH
	DD	03fH
	DD	020f73149H
	DD	02d5a4e51H
	DD	039bd6717H
	DD	08765432H
	DD	02df081abH
	DD	03fH
	DD	020f73149H
	DD	02d5a4e51H
	DD	039bd6717H
	DD	08765432H
	DD	02df081abH
	DD	03fH
	DD	020f73149H
	DD	02d5a4e51H
	DD	039bd6717H
	DD	08765432H
	DD	02d361dabH
	DD	03fH
	DD	020f72928H
	DD	02d5a4e51H
	DD	039bd6717H
	DD	06543210H
	DD	02d461dabH
	DD	03fH
	DD	020f72928H
	DD	02d5a4e51H
	DD	039bd6717H
	DD	06543210H
	DD	02d561dabH
	DD	03fH
	DD	020f72928H
	DD	02d5a4e51H
	DD	039bd6717H
	DD	06543210H
	DD	02f661dabH
	DD	03fH
	DD	020f72928H
	DD	02d5a4e51H
	DD	039bd6717H
	DD	06543210H
	DD	02d3601abH
	DD	03fH
	DD	020f72928H
	DD	02d5a4e51H
	DD	039bd6717H
	DD	07654321H
	DD	02d4601abH
	DD	03fH
	DD	020f72928H
	DD	02d5a4e51H
	DD	039bd6717H
	DD	07654321H
	DD	02d5601abH
	DD	03fH
	DD	020f72928H
	DD	02d5a4e51H
	DD	039bd6717H
	DD	07654321H
	DD	02f6601abH
	DD	03fH
	DD	020f72928H
	DD	02d5a4e51H
	DD	039bd6717H
	DD	07654321H
	DD	02d3081abH
	DD	03fH
	DD	020f73149H
	DD	02d5a4e51H
	DD	039bd6717H
	DD	08765432H
	DD	02d4081abH
	DD	03fH
	DD	020f73149H
	DD	02d5a4e51H
	DD	039bd6717H
	DD	08765432H
	DD	02d5081abH
	DD	03fH
	DD	020f73149H
	DD	02d5a4e51H
	DD	039bd6717H
	DD	08765432H
	DD	02f6081abH
	DD	03fH
	DD	020f73149H
	DD	02d5a4e51H
	DD	039bd6717H
	DD	08765432H
	DD	029361dabH
	DD	03fH
	DD	020f72928H
	DD	02d5a4e51H
	DD	03fffe717H
	DD	06543210H
	DD	029361dabH
	DD	03fH
	DD	020f72928H
	DD	02d5a4e51H
	DD	03ffd6717H
	DD	06543210H
	DD	02b361dabH
	DD	03fH
	DD	020f72928H
	DD	02d5a4e51H
	DD	03fbd6717H
	DD	06543210H
	DD	02d361dabH
	DD	03fH
	DD	020f72928H
	DD	02d5a4e51H
	DD	039bd6717H
	DD	06543210H
	DD	0293601abH
	DD	03fH
	DD	020f72928H
	DD	02d5a4e51H
	DD	03fffe717H
	DD	07654321H
	DD	0293601abH
	DD	03fH
	DD	020f72928H
	DD	02d5a4e51H
	DD	03ffd6717H
	DD	07654321H
	DD	02b3601abH
	DD	03fH
	DD	020f72928H
	DD	02d5a4e51H
	DD	03fbd6717H
	DD	07654321H
	DD	02d3601abH
	DD	03fH
	DD	020f72928H
	DD	02d5a4e51H
	DD	039bd6717H
	DD	07654321H
	DD	0293081abH
	DD	03fH
	DD	020f73149H
	DD	02d5a4e51H
	DD	03fffe717H
	DD	08765432H
	DD	0293081abH
	DD	03fH
	DD	020f73149H
	DD	02d5a4e51H
	DD	03ffd6717H
	DD	08765432H
	DD	02b3081abH
	DD	03fH
	DD	020f73149H
	DD	02d5a4e51H
	DD	03fbd6717H
	DD	08765432H
	DD	02d3081abH
	DD	03fH
	DD	020f73149H
	DD	02d5a4e51H
	DD	039bd6717H
	DD	08765432H
	DD	029361dabH
	DD	03fH
	DD	020f72928H
	DD	02d5a4e51H
	DD	03fffe717H
	DD	06543210H
	DD	02b361dabH
	DD	03fH
	DD	020f72928H
	DD	02d5a4e51H
	DD	03ffde717H
	DD	06543210H
	DD	02d361dabH
	DD	03fH
	DD	020f72928H
	DD	02d5a4e51H
	DD	03fcde717H
	DD	06543210H
	DD	02f361dabH
	DD	03fH
	DD	020f72928H
	DD	02d5a4e51H
	DD	03bcde717H
	DD	06543210H
	DD	0293601abH
	DD	03fH
	DD	020f72928H
	DD	02d5a4e51H
	DD	03fffe717H
	DD	07654321H
	DD	02b3601abH
	DD	03fH
	DD	020f72928H
	DD	02d5a4e51H
	DD	03ffde717H
	DD	07654321H
	DD	02d3601abH
	DD	03fH
	DD	020f72928H
	DD	02d5a4e51H
	DD	03fcde717H
	DD	07654321H
	DD	02f3601abH
	DD	03fH
	DD	020f72928H
	DD	02d5a4e51H
	DD	03bcde717H
	DD	07654321H
	DD	0293081abH
	DD	03fH
	DD	020f73149H
	DD	02d5a4e51H
	DD	03fffe717H
	DD	08765432H
	DD	02b3081abH
	DD	03fH
	DD	020f73149H
	DD	02d5a4e51H
	DD	03ffde717H
	DD	08765432H
	DD	02d3081abH
	DD	03fH
	DD	020f73149H
	DD	02d5a4e51H
	DD	03fcde717H
	DD	08765432H
	DD	02f3081abH
	DD	03fH
	DD	020f73149H
	DD	02d5a4e51H
	DD	03bcde717H
	DD	08765432H
	DD	02b361dabH
	DD	03fH
	DD	020f72928H
	DD	02d5a4e51H
	DD	03ffde717H
	DD	06543210H
	DD	02b461dabH
	DD	03fH
	DD	020f72928H
	DD	02d5a4e51H
	DD	03ffd6717H
	DD	06543210H
	DD	02b461dabH
	DD	03fH
	DD	020f72928H
	DD	02d5a4e51H
	DD	03fbd6717H
	DD	06543210H
	DD	02d461dabH
	DD	03fH
	DD	020f72928H
	DD	02d5a4e51H
	DD	039bd6717H
	DD	06543210H
	DD	02b3601abH
	DD	03fH
	DD	020f72928H
	DD	02d5a4e51H
	DD	03ffde717H
	DD	07654321H
	DD	02b4601abH
	DD	03fH
	DD	020f72928H
	DD	02d5a4e51H
	DD	03ffd6717H
	DD	07654321H
	DD	02b4601abH
	DD	03fH
	DD	020f72928H
	DD	02d5a4e51H
	DD	03fbd6717H
	DD	07654321H
	DD	02d4601abH
	DD	03fH
	DD	020f72928H
	DD	02d5a4e51H
	DD	039bd6717H
	DD	07654321H
	DD	02b3081abH
	DD	03fH
	DD	020f73149H
	DD	02d5a4e51H
	DD	03ffde717H
	DD	08765432H
	DD	02b4081abH
	DD	03fH
	DD	020f73149H
	DD	02d5a4e51H
	DD	03ffd6717H
	DD	08765432H
	DD	02b4081abH
	DD	03fH
	DD	020f73149H
	DD	02d5a4e51H
	DD	03fbd6717H
	DD	08765432H
	DD	02d4081abH
	DD	03fH
	DD	020f73149H
	DD	02d5a4e51H
	DD	039bd6717H
	DD	08765432H
	DD	02b361dabH
	DD	03fH
	DD	020f72928H
	DD	02d5a4e51H
	DD	03ffde717H
	DD	06543210H
	DD	02b461dabH
	DD	03fH
	DD	020f72928H
	DD	02d5a4e51H
	DD	03ffd6717H
	DD	06543210H
	DD	02d461dabH
	DD	03fH
	DD	020f72928H
	DD	02d5a4e51H
	DD	03fcd6717H
	DD	06543210H
	DD	02f461dabH
	DD	03fH
	DD	020f72928H
	DD	02d5a4e51H
	DD	03bcd6717H
	DD	06543210H
	DD	02b3601abH
	DD	03fH
	DD	020f72928H
	DD	02d5a4e51H
	DD	03ffde717H
	DD	07654321H
	DD	02b4601abH
	DD	03fH
	DD	020f72928H
	DD	02d5a4e51H
	DD	03ffd6717H
	DD	07654321H
	DD	02d4601abH
	DD	03fH
	DD	020f72928H
	DD	02d5a4e51H
	DD	03fcd6717H
	DD	07654321H
	DD	02f4601abH
	DD	03fH
	DD	020f72928H
	DD	02d5a4e51H
	DD	03bcd6717H
	DD	07654321H
	DD	02b3081abH
	DD	03fH
	DD	020f73149H
	DD	02d5a4e51H
	DD	03ffde717H
	DD	08765432H
	DD	02b4081abH
	DD	03fH
	DD	020f73149H
	DD	02d5a4e51H
	DD	03ffd6717H
	DD	08765432H
	DD	02d4081abH
	DD	03fH
	DD	020f73149H
	DD	02d5a4e51H
	DD	03fcd6717H
	DD	08765432H
	DD	02f4081abH
	DD	03fH
	DD	020f73149H
	DD	02d5a4e51H
	DD	03bcd6717H
	DD	08765432H
	DD	02d361dabH
	DD	03fH
	DD	020f72928H
	DD	02d5a4e51H
	DD	03fcde717H
	DD	06543210H
	DD	02d461dabH
	DD	03fH
	DD	020f72928H
	DD	02d5a4e51H
	DD	03fcd6717H
	DD	06543210H
	DD	02d561dabH
	DD	03fH
	DD	020f72928H
	DD	02d5a4e51H
	DD	03fbd6717H
	DD	06543210H
	DD	02d561dabH
	DD	03fH
	DD	020f72928H
	DD	02d5a4e51H
	DD	039bd6717H
	DD	06543210H
	DD	02d3601abH
	DD	03fH
	DD	020f72928H
	DD	02d5a4e51H
	DD	03fcde717H
	DD	07654321H
	DD	02d4601abH
	DD	03fH
	DD	020f72928H
	DD	02d5a4e51H
	DD	03fcd6717H
	DD	07654321H
	DD	02d5601abH
	DD	03fH
	DD	020f72928H
	DD	02d5a4e51H
	DD	03fbd6717H
	DD	07654321H
	DD	02d5601abH
	DD	03fH
	DD	020f72928H
	DD	02d5a4e51H
	DD	039bd6717H
	DD	07654321H
	DD	02d3081abH
	DD	03fH
	DD	020f73149H
	DD	02d5a4e51H
	DD	03fcde717H
	DD	08765432H
	DD	02d4081abH
	DD	03fH
	DD	020f73149H
	DD	02d5a4e51H
	DD	03fcd6717H
	DD	08765432H
	DD	02d5081abH
	DD	03fH
	DD	020f73149H
	DD	02d5a4e51H
	DD	03fbd6717H
	DD	08765432H
	DD	02d5081abH
	DD	03fH
	DD	020f73149H
	DD	02d5a4e51H
	DD	039bd6717H
	DD	08765432H
	DD	02d361dabH
	DD	03fH
	DD	020f72928H
	DD	02d5a4e51H
	DD	03fcde717H
	DD	06543210H
	DD	02d461dabH
	DD	03fH
	DD	020f72928H
	DD	02d5a4e51H
	DD	03fcd6717H
	DD	06543210H
	DD	02d561dabH
	DD	03fH
	DD	020f72928H
	DD	02d5a4e51H
	DD	03fbd6717H
	DD	06543210H
	DD	02f561dabH
	DD	03fH
	DD	020f72928H
	DD	02d5a4e51H
	DD	03bbd6717H
	DD	06543210H
	DD	02d3601abH
	DD	03fH
	DD	020f72928H
	DD	02d5a4e51H
	DD	03fcde717H
	DD	07654321H
	DD	02d4601abH
	DD	03fH
	DD	020f72928H
	DD	02d5a4e51H
	DD	03fcd6717H
	DD	07654321H
	DD	02d5601abH
	DD	03fH
	DD	020f72928H
	DD	02d5a4e51H
	DD	03fbd6717H
	DD	07654321H
	DD	02f5601abH
	DD	03fH
	DD	020f72928H
	DD	02d5a4e51H
	DD	03bbd6717H
	DD	07654321H
	DD	02d3081abH
	DD	03fH
	DD	020f73149H
	DD	02d5a4e51H
	DD	03fcde717H
	DD	08765432H
	DD	02d4081abH
	DD	03fH
	DD	020f73149H
	DD	02d5a4e51H
	DD	03fcd6717H
	DD	08765432H
	DD	02d5081abH
	DD	03fH
	DD	020f73149H
	DD	02d5a4e51H
	DD	03fbd6717H
	DD	08765432H
	DD	02f5081abH
	DD	03fH
	DD	020f73149H
	DD	02d5a4e51H
	DD	03bbd6717H
	DD	08765432H
	DD	02f361dabH
	DD	03fH
	DD	020f72928H
	DD	02d5a4e51H
	DD	03bcde717H
	DD	06543210H
	DD	02f461dabH
	DD	03fH
	DD	020f72928H
	DD	02d5a4e51H
	DD	03bcd6717H
	DD	06543210H
	DD	02f561dabH
	DD	03fH
	DD	020f72928H
	DD	02d5a4e51H
	DD	03bbd6717H
	DD	06543210H
	DD	02f661dabH
	DD	03fH
	DD	020f72928H
	DD	02d5a4e51H
	DD	039bd6717H
	DD	06543210H
	DD	02f3601abH
	DD	03fH
	DD	020f72928H
	DD	02d5a4e51H
	DD	03bcde717H
	DD	07654321H
	DD	02f4601abH
	DD	03fH
	DD	020f72928H
	DD	02d5a4e51H
	DD	03bcd6717H
	DD	07654321H
	DD	02f5601abH
	DD	03fH
	DD	020f72928H
	DD	02d5a4e51H
	DD	03bbd6717H
	DD	07654321H
	DD	02f6601abH
	DD	03fH
	DD	020f72928H
	DD	02d5a4e51H
	DD	039bd6717H
	DD	07654321H
	DD	02f3081abH
	DD	03fH
	DD	020f73149H
	DD	02d5a4e51H
	DD	03bcde717H
	DD	08765432H
	DD	02f4081abH
	DD	03fH
	DD	020f73149H
	DD	02d5a4e51H
	DD	03bcd6717H
	DD	08765432H
	DD	02f5081abH
	DD	03fH
	DD	020f73149H
	DD	02d5a4e51H
	DD	03bbd6717H
	DD	08765432H
	DD	02f6081abH
	DD	03fH
	DD	020f73149H
	DD	02d5a4e51H
	DD	039bd6717H
	DD	08765432H
	DD	02f361dabH
	DD	03fH
	DD	020f72928H
	DD	02d5a4e51H
	DD	03bcde717H
	DD	06543210H
	DD	02f461dabH
	DD	03fH
	DD	020f72928H
	DD	02d5a4e51H
	DD	03bcd6717H
	DD	06543210H
	DD	02f561dabH
	DD	03fH
	DD	020f72928H
	DD	02d5a4e51H
	DD	03bbd6717H
	DD	06543210H
	DD	02f661dabH
	DD	03fH
	DD	020f72928H
	DD	02d5a4e51H
	DD	039bd6717H
	DD	06543210H
	DD	02f3601abH
	DD	03fH
	DD	020f72928H
	DD	02d5a4e51H
	DD	03bcde717H
	DD	07654321H
	DD	02f4601abH
	DD	03fH
	DD	020f72928H
	DD	02d5a4e51H
	DD	03bcd6717H
	DD	07654321H
	DD	02f5601abH
	DD	03fH
	DD	020f72928H
	DD	02d5a4e51H
	DD	03bbd6717H
	DD	07654321H
	DD	02f6601abH
	DD	03fH
	DD	020f72928H
	DD	02d5a4e51H
	DD	039bd6717H
	DD	07654321H
	DD	02f3081abH
	DD	03fH
	DD	020f73149H
	DD	02d5a4e51H
	DD	03bcde717H
	DD	08765432H
	DD	02f4081abH
	DD	03fH
	DD	020f73149H
	DD	02d5a4e51H
	DD	03bcd6717H
	DD	08765432H
	DD	02f5081abH
	DD	03fH
	DD	020f73149H
	DD	02d5a4e51H
	DD	03bbd6717H
	DD	08765432H
	DD	02f6081abH
	DD	03fH
	DD	020f73149H
	DD	02d5a4e51H
	DD	039bd6717H
	DD	08765432H
	DD	07ffb167H
	DD	03fH
	DD	01ee6a506H
	DD	02b49ca30H
	DD	03fffe2f6H
	DD	05432100H
	DD	0251fb167H
	DD	03fH
	DD	01cd52506H
	DD	02939460fH
	DD	03fffded5H
	DD	05432100H
	DD	0251fb167H
	DD	03fH
	DD	01cd52506H
	DD	02939460fH
	DD	03fffded5H
	DD	05432100H
	DD	061fb167H
	DD	03fH
	DD	020e73526H
	DD	02d5a4e51H
	DD	03fffe717H
	DD	05432100H
	ORG $+24
_mDimmConfigs DD 01211211H
	DD	01221211H
	DD	01241211H
	DD	02211211H
	DD	02221211H
	DD	02241211H
	DD	01211H
	DD	01211221H
	DD	01221221H
	DD	01241221H
	DD	02211221H
	DD	02221221H
	DD	02241221H
	DD	01221H
	DD	01211241H
	DD	01221241H
	DD	01241241H
	DD	02211241H
	DD	02221241H
	DD	02241241H
	DD	01241H
	DD	01311311H
	DD	01321311H
	DD	01341311H
	DD	02311311H
	DD	02321311H
	DD	02341311H
	DD	01311H
	DD	01311321H
	DD	01321321H
	DD	01341321H
	DD	02311321H
	DD	02321321H
	DD	02341321H
	DD	01321H
	DD	01311341H
	DD	01321341H
	DD	01341341H
	DD	02311341H
	DD	02321341H
	DD	02341341H
	DD	01341H
	DD	01212211H
	DD	01222211H
	DD	01242211H
	DD	02212211H
	DD	02222211H
	DD	02242211H
	DD	02211H
	DD	01212221H
	DD	01222221H
	DD	01242221H
	DD	02212221H
	DD	02222221H
	DD	02242221H
	DD	02221H
	DD	01212241H
	DD	01222241H
	DD	01242241H
	DD	02212241H
	DD	02222241H
	DD	02242241H
	DD	02241H
	DD	01312311H
	DD	01322311H
	DD	01342311H
	DD	02312311H
	DD	02322311H
	DD	02342311H
	DD	02311H
	DD	01312321H
	DD	01322321H
	DD	01342321H
	DD	02312321H
	DD	02322321H
	DD	02342321H
	DD	02321H
	DD	01312341H
	DD	01322341H
	DD	01342341H
	DD	02312341H
	DD	02322341H
	DD	02342341H
	DD	02341H
	DD	01111116H
	DD	01121116H
	DD	01141116H
	DD	01181116H
	DD	0111111aH
	DD	0112111aH
	DD	0114111aH
	DD	0118111aH
	DD	0111111eH
	DD	0112111eH
	DD	0114111eH
	DD	0118111eH
	DD	02111116H
	DD	02121116H
	DD	02141116H
	DD	02181116H
	DD	0211111aH
	DD	0212111aH
	DD	0214111aH
	DD	0218111aH
	DD	0211111eH
	DD	0212111eH
	DD	0214111eH
	DD	0218111eH
	DD	01116H
	DD	0111aH
	DD	0111eH
	DD	01111126H
	DD	01121126H
	DD	01141126H
	DD	01181126H
	DD	0111112aH
	DD	0112112aH
	DD	0114112aH
	DD	0118112aH
	DD	0111112eH
	DD	0112112eH
	DD	0114112eH
	DD	0118112eH
	DD	02111126H
	DD	02121126H
	DD	02141126H
	DD	02181126H
	DD	0211112aH
	DD	0212112aH
	DD	0214112aH
	DD	0218112aH
	DD	0211112eH
	DD	0212112eH
	DD	0214112eH
	DD	0218112eH
	DD	01126H
	DD	0112aH
	DD	0112eH
	DD	01111146H
	DD	01121146H
	DD	01141146H
	DD	01181146H
	DD	0111114aH
	DD	0112114aH
	DD	0114114aH
	DD	0118114aH
	DD	0111114eH
	DD	0112114eH
	DD	0114114eH
	DD	0118114eH
	DD	02111146H
	DD	02121146H
	DD	02141146H
	DD	02181146H
	DD	0211114aH
	DD	0212114aH
	DD	0214114aH
	DD	0218114aH
	DD	0211114eH
	DD	0212114eH
	DD	0214114eH
	DD	0218114eH
	DD	01146H
	DD	0114aH
	DD	0114eH
	DD	01111186H
	DD	01121186H
	DD	01141186H
	DD	01181186H
	DD	0111118aH
	DD	0112118aH
	DD	0114118aH
	DD	0118118aH
	DD	0111118eH
	DD	0112118eH
	DD	0114118eH
	DD	0118118eH
	DD	02111186H
	DD	02121186H
	DD	02141186H
	DD	02181186H
	DD	0211118aH
	DD	0212118aH
	DD	0214118aH
	DD	0218118aH
	DD	0211118eH
	DD	0212118eH
	DD	0214118eH
	DD	0218118eH
	DD	01186H
	DD	0118aH
	DD	0118eH
	DD	01211216H
	DD	01221216H
	DD	01241216H
	DD	01281216H
	DD	0121121aH
	DD	0122121aH
	DD	0124121aH
	DD	0128121aH
	DD	0121121eH
	DD	0122121eH
	DD	0124121eH
	DD	0128121eH
	DD	02211216H
	DD	02221216H
	DD	02241216H
	DD	02281216H
	DD	0221121aH
	DD	0222121aH
	DD	0224121aH
	DD	0228121aH
	DD	0221121eH
	DD	0222121eH
	DD	0224121eH
	DD	0228121eH
	DD	01216H
	DD	0121aH
	DD	0121eH
	DD	01211226H
	DD	01221226H
	DD	01241226H
	DD	01281226H
	DD	0121122aH
	DD	0122122aH
	DD	0124122aH
	DD	0128122aH
	DD	0121122eH
	DD	0122122eH
	DD	0124122eH
	DD	0128122eH
	DD	02211226H
	DD	02221226H
	DD	02241226H
	DD	02281226H
	DD	0221122aH
	DD	0222122aH
	DD	0224122aH
	DD	0228122aH
	DD	0221122eH
	DD	0222122eH
	DD	0224122eH
	DD	0228122eH
	DD	01226H
	DD	0122aH
	DD	0122eH
	DD	01211246H
	DD	01221246H
	DD	01241246H
	DD	01281246H
	DD	0121124aH
	DD	0122124aH
	DD	0124124aH
	DD	0128124aH
	DD	0121124eH
	DD	0122124eH
	DD	0124124eH
	DD	0128124eH
	DD	02211246H
	DD	02221246H
	DD	02241246H
	DD	02281246H
	DD	0221124aH
	DD	0222124aH
	DD	0224124aH
	DD	0228124aH
	DD	0221124eH
	DD	0222124eH
	DD	0224124eH
	DD	0228124eH
	DD	01246H
	DD	0124aH
	DD	0124eH
	DD	01211286H
	DD	01221286H
	DD	01241286H
	DD	01281286H
	DD	0121128aH
	DD	0122128aH
	DD	0124128aH
	DD	0128128aH
	DD	0121128eH
	DD	0122128eH
	DD	0124128eH
	DD	0128128eH
	DD	02211286H
	DD	02221286H
	DD	02241286H
	DD	02281286H
	DD	0221128aH
	DD	0222128aH
	DD	0224128aH
	DD	0228128aH
	DD	0221128eH
	DD	0222128eH
	DD	0224128eH
	DD	0228128eH
	DD	01286H
	DD	0128aH
	DD	0128eH
	DD	01311316H
	DD	01321316H
	DD	01341316H
	DD	01381316H
	DD	0131131aH
	DD	0132131aH
	DD	0134131aH
	DD	0138131aH
	DD	02311316H
	DD	02321316H
	DD	02341316H
	DD	02381316H
	DD	0231131aH
	DD	0232131aH
	DD	0234131aH
	DD	0238131aH
	DD	01316H
	DD	0131aH
	DD	01311326H
	DD	01321326H
	DD	01341326H
	DD	01381326H
	DD	0131132aH
	DD	0132132aH
	DD	0134132aH
	DD	0138132aH
	DD	02311326H
	DD	02321326H
	DD	02341326H
	DD	02381326H
	DD	0231132aH
	DD	0232132aH
	DD	0234132aH
	DD	0238132aH
	DD	01326H
	DD	0132aH
	DD	01311346H
	DD	01321346H
	DD	01341346H
	DD	01381346H
	DD	0131134aH
	DD	0132134aH
	DD	0134134aH
	DD	0138134aH
	DD	02311346H
	DD	02321346H
	DD	02341346H
	DD	02381346H
	DD	0231134aH
	DD	0232134aH
	DD	0234134aH
	DD	0238134aH
	DD	01346H
	DD	0134aH
	DD	01311386H
	DD	01321386H
	DD	01341386H
	DD	01381386H
	DD	0131138aH
	DD	0132138aH
	DD	0134138aH
	DD	0138138aH
	DD	02311386H
	DD	02321386H
	DD	02341386H
	DD	02381386H
	DD	0231138aH
	DD	0232138aH
	DD	0234138aH
	DD	0238138aH
	DD	01386H
	DD	0138aH
	DD	01112116H
	DD	01122116H
	DD	01142116H
	DD	01182116H
	DD	0111211aH
	DD	0112211aH
	DD	0114211aH
	DD	0118211aH
	DD	0111211eH
	DD	0112211eH
	DD	0114211eH
	DD	0118211eH
	DD	02112116H
	DD	02122116H
	DD	02142116H
	DD	02182116H
	DD	0211211aH
	DD	0212211aH
	DD	0214211aH
	DD	0218211aH
	DD	0211211eH
	DD	0212211eH
	DD	0214211eH
	DD	0218211eH
	DD	02116H
	DD	0211aH
	DD	0211eH
	DD	01112126H
	DD	01122126H
	DD	01142126H
	DD	01182126H
	DD	0111212aH
	DD	0112212aH
	DD	0114212aH
	DD	0118212aH
	DD	0111212eH
	DD	0112212eH
	DD	0114212eH
	DD	0118212eH
	DD	02112126H
	DD	02122126H
	DD	02142126H
	DD	02182126H
	DD	0211212aH
	DD	0212212aH
	DD	0214212aH
	DD	0218212aH
	DD	0211212eH
	DD	0212212eH
	DD	0214212eH
	DD	0218212eH
	DD	02126H
	DD	0212aH
	DD	0212eH
	DD	01112146H
	DD	01122146H
	DD	01142146H
	DD	01182146H
	DD	0111214aH
	DD	0112214aH
	DD	0114214aH
	DD	0118214aH
	DD	0111214eH
	DD	0112214eH
	DD	0114214eH
	DD	0118214eH
	DD	02112146H
	DD	02122146H
	DD	02142146H
	DD	02182146H
	DD	0211214aH
	DD	0212214aH
	DD	0214214aH
	DD	0218214aH
	DD	0211214eH
	DD	0212214eH
	DD	0214214eH
	DD	0218214eH
	DD	02146H
	DD	0214aH
	DD	0214eH
	DD	01112186H
	DD	01122186H
	DD	01142186H
	DD	01182186H
	DD	0111218aH
	DD	0112218aH
	DD	0114218aH
	DD	0118218aH
	DD	0111218eH
	DD	0112218eH
	DD	0114218eH
	DD	0118218eH
	DD	02112186H
	DD	02122186H
	DD	02142186H
	DD	02182186H
	DD	0211218aH
	DD	0212218aH
	DD	0214218aH
	DD	0218218aH
	DD	0211218eH
	DD	0212218eH
	DD	0214218eH
	DD	0218218eH
	DD	02186H
	DD	0218aH
	DD	0218eH
	DD	01212216H
	DD	01222216H
	DD	01242216H
	DD	01282216H
	DD	0121221aH
	DD	0122221aH
	DD	0124221aH
	DD	0128221aH
	DD	0121221eH
	DD	0122221eH
	DD	0124221eH
	DD	0128221eH
	DD	02212216H
	DD	02222216H
	DD	02242216H
	DD	02282216H
	DD	0221221aH
	DD	0222221aH
	DD	0224221aH
	DD	0228221aH
	DD	0221221eH
	DD	0222221eH
	DD	0224221eH
	DD	0228221eH
	DD	02216H
	DD	0221aH
	DD	0221eH
	DD	01212226H
	DD	01222226H
	DD	01242226H
	DD	01282226H
	DD	0121222aH
	DD	0122222aH
	DD	0124222aH
	DD	0128222aH
	DD	0121222eH
	DD	0122222eH
	DD	0124222eH
	DD	0128222eH
	DD	02212226H
	DD	02222226H
	DD	02242226H
	DD	02282226H
	DD	0221222aH
	DD	0222222aH
	DD	0224222aH
	DD	0228222aH
	DD	0221222eH
	DD	0222222eH
	DD	0224222eH
	DD	0228222eH
	DD	02226H
	DD	0222aH
	DD	0222eH
	DD	01212246H
	DD	01222246H
	DD	01242246H
	DD	01282246H
	DD	0121224aH
	DD	0122224aH
	DD	0124224aH
	DD	0128224aH
	DD	0121224eH
	DD	0122224eH
	DD	0124224eH
	DD	0128224eH
	DD	02212246H
	DD	02222246H
	DD	02242246H
	DD	02282246H
	DD	0221224aH
	DD	0222224aH
	DD	0224224aH
	DD	0228224aH
	DD	0221224eH
	DD	0222224eH
	DD	0224224eH
	DD	0228224eH
	DD	02246H
	DD	0224aH
	DD	0224eH
	DD	01212286H
	DD	01222286H
	DD	01242286H
	DD	01282286H
	DD	0121228aH
	DD	0122228aH
	DD	0124228aH
	DD	0128228aH
	DD	0121228eH
	DD	0122228eH
	DD	0124228eH
	DD	0128228eH
	DD	02212286H
	DD	02222286H
	DD	02242286H
	DD	02282286H
	DD	0221228aH
	DD	0222228aH
	DD	0224228aH
	DD	0228228aH
	DD	0221228eH
	DD	0222228eH
	DD	0224228eH
	DD	0228228eH
	DD	02286H
	DD	0228aH
	DD	0228eH
	DD	01312316H
	DD	01322316H
	DD	01342316H
	DD	01382316H
	DD	0131231aH
	DD	0132231aH
	DD	0134231aH
	DD	0138231aH
	DD	02312316H
	DD	02322316H
	DD	02342316H
	DD	02382316H
	DD	0231231aH
	DD	0232231aH
	DD	0234231aH
	DD	0238231aH
	DD	02316H
	DD	0231aH
	DD	01312326H
	DD	01322326H
	DD	01342326H
	DD	01382326H
	DD	0131232aH
	DD	0132232aH
	DD	0134232aH
	DD	0138232aH
	DD	02312326H
	DD	02322326H
	DD	02342326H
	DD	02382326H
	DD	0231232aH
	DD	0232232aH
	DD	0234232aH
	DD	0238232aH
	DD	02326H
	DD	0232aH
	DD	01312346H
	DD	01322346H
	DD	01342346H
	DD	01382346H
	DD	0131234aH
	DD	0132234aH
	DD	0134234aH
	DD	0138234aH
	DD	02312346H
	DD	02322346H
	DD	02342346H
	DD	02382346H
	DD	0231234aH
	DD	0232234aH
	DD	0234234aH
	DD	0238234aH
	DD	02346H
	DD	0234aH
	DD	01312386H
	DD	01322386H
	DD	01342386H
	DD	01382386H
	DD	0131238aH
	DD	0132238aH
	DD	0134238aH
	DD	0138238aH
	DD	02312386H
	DD	02322386H
	DD	02342386H
	DD	02382386H
	DD	0231238aH
	DD	0232238aH
	DD	0234238aH
	DD	0238238aH
	DD	02386H
	DD	0238aH
	DD	01110006H
	DD	0111000aH
	DD	0111000eH
	DD	02110006H
	DD	0211000aH
	DD	0211000eH
	DD	01120006H
	DD	0112000aH
	DD	0112000eH
	DD	02120006H
	DD	0212000aH
	DD	0212000eH
	DD	01140006H
	DD	0114000aH
	DD	0114000eH
	DD	02140006H
	DD	0214000aH
	DD	0214000eH
	DD	01180006H
	DD	0118000aH
	DD	0118000eH
	DD	02180006H
	DD	0218000aH
	DD	0218000eH
	DD	01210006H
	DD	0121000aH
	DD	0121000eH
	DD	02210006H
	DD	0221000aH
	DD	0221000eH
	DD	01220006H
	DD	0122000aH
	DD	0122000eH
	DD	02220006H
	DD	0222000aH
	DD	0222000eH
	DD	01240006H
	DD	0124000aH
	DD	0124000eH
	DD	02240006H
	DD	0224000aH
	DD	0224000eH
	DD	01280006H
	DD	0128000aH
	DD	0128000eH
	DD	02280006H
	DD	0228000aH
	DD	0228000eH
	DD	01310006H
	DD	0131000aH
	DD	02310006H
	DD	0231000aH
	DD	01320006H
	DD	0132000aH
	DD	02320006H
	DD	0232000aH
	DD	01340006H
	DD	0134000aH
	DD	02340006H
	DD	0234000aH
	DD	01380006H
	DD	0138000aH
	DD	02380006H
	DD	0238000aH
	DD	041201201H
	DD	042201201H
	DD	040001201H
	DD	041301301H
	DD	042301301H
	DD	040001301H
	DD	041202201H
	DD	042202201H
	DD	040002201H
	DD	041302301H
	DD	042302301H
	DD	040002301H
	DD	050001301H
	DD	010001211H
	DD	010001221H
	DD	010001241H
	DD	010001311H
	DD	010001321H
	DD	010001341H
	DD	010002211H
	DD	010002221H
	DD	010002241H
	DD	010002311H
	DD	010002321H
	DD	010002341H
	DD	010001216H
	DD	01000121aH
	DD	01000121eH
	DD	010001226H
	DD	01000122aH
	DD	01000122eH
	DD	010001246H
	DD	01000124aH
	DD	01000124eH
	DD	010001286H
	DD	01000128aH
	DD	01000128eH
	DD	010001316H
	DD	01000131aH
	DD	01000131eH
	DD	010001326H
	DD	01000132aH
	DD	01000132eH
	DD	010001346H
	DD	01000134aH
	DD	01000134eH
	DD	010001386H
	DD	01000138aH
	DD	01000138eH
	DD	010002216H
	DD	01000221aH
	DD	01000221eH
	DD	010002226H
	DD	01000222aH
	DD	01000222eH
	DD	010002246H
	DD	01000224aH
	DD	01000224eH
	DD	010002286H
	DD	01000228aH
	DD	01000228eH
	DD	010002316H
	DD	01000231aH
	DD	01000231eH
	DD	010002326H
	DD	01000232aH
	DD	01000232eH
	DD	010002346H
	DD	01000234aH
	DD	01000234eH
	DD	010002386H
	DD	01000238aH
	DD	01000238eH
	DD	021111116H
	DD	021121116H
	DD	021141116H
	DD	021181116H
	DD	02111111aH
	DD	02112111aH
	DD	02114111aH
	DD	02118111aH
	DD	02111111eH
	DD	02112111eH
	DD	02114111eH
	DD	02118111eH
	DD	022111116H
	DD	022121116H
	DD	022141116H
	DD	022181116H
	DD	02211111aH
	DD	02212111aH
	DD	02214111aH
	DD	02218111aH
	DD	02211111eH
	DD	02212111eH
	DD	02214111eH
	DD	02218111eH
	DD	021111126H
	DD	021121126H
	DD	021141126H
	DD	021181126H
	DD	02111112aH
	DD	02112112aH
	DD	02114112aH
	DD	02118112aH
	DD	02111112eH
	DD	02112112eH
	DD	02114112eH
	DD	02118112eH
	DD	022111126H
	DD	022121126H
	DD	022141126H
	DD	022181126H
	DD	02211112aH
	DD	02212112aH
	DD	02214112aH
	DD	02218112aH
	DD	02211112eH
	DD	02212112eH
	DD	02214112eH
	DD	02218112eH
	DD	021111146H
	DD	021121146H
	DD	021141146H
	DD	021181146H
	DD	02111114aH
	DD	02112114aH
	DD	02114114aH
	DD	02118114aH
	DD	02111114eH
	DD	02112114eH
	DD	02114114eH
	DD	02118114eH
	DD	022111146H
	DD	022121146H
	DD	022141146H
	DD	022181146H
	DD	02211114aH
	DD	02212114aH
	DD	02214114aH
	DD	02218114aH
	DD	02211114eH
	DD	02212114eH
	DD	02214114eH
	DD	02218114eH
	DD	021111186H
	DD	021121186H
	DD	021141186H
	DD	021181186H
	DD	02111118aH
	DD	02112118aH
	DD	02114118aH
	DD	02118118aH
	DD	02111118eH
	DD	02112118eH
	DD	02114118eH
	DD	02118118eH
	DD	022111186H
	DD	022121186H
	DD	022141186H
	DD	022181186H
	DD	02211118aH
	DD	02212118aH
	DD	02214118aH
	DD	02218118aH
	DD	02211118eH
	DD	02212118eH
	DD	02214118eH
	DD	02218118eH
	DD	021112116H
	DD	021122116H
	DD	021142116H
	DD	021182116H
	DD	02111211aH
	DD	02112211aH
	DD	02114211aH
	DD	02118211aH
	DD	02111211eH
	DD	02112211eH
	DD	02114211eH
	DD	02118211eH
	DD	022112116H
	DD	022122116H
	DD	022142116H
	DD	022182116H
	DD	02211211aH
	DD	02212211aH
	DD	02214211aH
	DD	02218211aH
	DD	02211211eH
	DD	02212211eH
	DD	02214211eH
	DD	02218211eH
	DD	021112126H
	DD	021122126H
	DD	021142126H
	DD	021182126H
	DD	02111212aH
	DD	02112212aH
	DD	02114212aH
	DD	02118212aH
	DD	02111212eH
	DD	02112212eH
	DD	02114212eH
	DD	02118212eH
	DD	022112126H
	DD	022122126H
	DD	022142126H
	DD	022182126H
	DD	02211212aH
	DD	02212212aH
	DD	02214212aH
	DD	02218212aH
	DD	02211212eH
	DD	02212212eH
	DD	02214212eH
	DD	02218212eH
	DD	021112146H
	DD	021122146H
	DD	021142146H
	DD	021182146H
	DD	02111214aH
	DD	02112214aH
	DD	02114214aH
	DD	02118214aH
	DD	02111214eH
	DD	02112214eH
	DD	02114214eH
	DD	02118214eH
	DD	022112146H
	DD	022122146H
	DD	022142146H
	DD	022182146H
	DD	02211214aH
	DD	02212214aH
	DD	02214214aH
	DD	02218214aH
	DD	02211214eH
	DD	02212214eH
	DD	02214214eH
	DD	02218214eH
	DD	021112186H
	DD	021122186H
	DD	021142186H
	DD	021182186H
	DD	02111218aH
	DD	02112218aH
	DD	02114218aH
	DD	02118218aH
	DD	02111218eH
	DD	02112218eH
	DD	02114218eH
	DD	02118218eH
	DD	022112186H
	DD	022122186H
	DD	022142186H
	DD	022182186H
	DD	02211218aH
	DD	02212218aH
	DD	02214218aH
	DD	02218218aH
	DD	02211218eH
	DD	02212218eH
	DD	02214218eH
	DD	02218218eH
	DD	011321321H
	DD	012321321H
	DD	011322321H
	DD	012322321H
	ORG $+4
_mDimmActivate DD 01H
	DD	04H
	DD	02H
	DD	08H
	DD	05H
	DD	0aH
	DD	06H
	DD	09H
_RaplDimmConfigs DD 0141121H
	DD	0141122H
	DD	0141221H
	DD	0141222H
	DD	0241121H
	DD	0241122H
	DD	0241221H
	DD	0241222H
	DD	0131121H
	DD	0131122H
	DD	0131124H
	DD	0131221H
	DD	0131222H
	DD	0131224H
	DD	0231121H
	DD	0231122H
	DD	0231124H
	DD	0231221H
	DD	0231222H
	DD	0231224H
	DD	0142121H
	DD	0142122H
	DD	0142221H
	DD	0142222H
	DD	0242121H
	DD	0242122H
	DD	0242221H
	DD	0242222H
	DD	0132121H
	DD	0132122H
	DD	0132124H
	DD	0132221H
	DD	0132222H
	DD	0132224H
	DD	0232121H
	DD	0232122H
	DD	0232124H
	DD	0232221H
	DD	0232222H
	DD	0232224H
	DD	0141111H
	DD	0141112H
	DD	0141211H
	DD	0141212H
	DD	0241111H
	DD	0241112H
	DD	0241211H
	DD	0241212H
	DD	0131111H
	DD	0131112H
	DD	0131114H
	DD	0131211H
	DD	0131212H
	DD	0131214H
	DD	0231111H
	DD	0231112H
	DD	0231114H
	DD	0231211H
	DD	0231212H
	DD	0231214H
	DD	0142111H
	DD	0142112H
	DD	0142211H
	DD	0142212H
	DD	0242111H
	DD	0242112H
	DD	0242211H
	DD	0242212H
	DD	0132111H
	DD	0132112H
	DD	0132114H
	DD	0132211H
	DD	0132212H
	DD	0132214H
	DD	0232111H
	DD	0232112H
	DD	0232114H
	DD	0232211H
	DD	0232212H
	DD	0232214H
	DD	0101122H
	DD	0102122H
	DD	0111122H
	DD	0112122H
	DD	0121122H
	DD	0122122H
	DD	0101222H
	DD	0102222H
	DD	0111222H
	DD	0112222H
	DD	0121222H
	DD	0122222H
	DD	0101124H
	DD	0102124H
	DD	0111124H
	DD	0112124H
	DD	0121124H
	DD	0122124H
	DD	0101224H
	DD	0102224H
	DD	0111224H
	DD	0112224H
	DD	0121224H
	DD	0122224H
	DD	0301122H
	DD	0302122H
	DD	0311122H
	DD	0312122H
	DD	0321122H
	DD	0322122H
	DD	0301222H
	DD	0302222H
	DD	0311222H
	DD	0312222H
	DD	0321222H
	DD	0322222H
	DD	0301124H
	DD	0302124H
	DD	0311124H
	DD	0312124H
	DD	0321124H
	DD	0322124H
	DD	0301224H
	DD	0302224H
	DD	0311224H
	DD	0312224H
	DD	0321224H
	DD	0322224H
	DD	0201112H
	DD	0202112H
	DD	0211112H
	DD	0212112H
	DD	0221112H
	DD	0222112H
	DD	0201212H
	DD	0202212H
	DD	0211212H
	DD	0212212H
	DD	0221212H
	DD	0222212H
	DD	0201122H
	DD	0202122H
	DD	0211122H
	DD	0212122H
	DD	0221122H
	DD	0222122H
	DD	0201222H
	DD	0202222H
	DD	0211222H
	DD	0212222H
	DD	0221222H
	DD	0222222H
	DD	0201114H
	DD	0202114H
	DD	0211114H
	DD	0212114H
	DD	0221114H
	DD	0222114H
	DD	0201214H
	DD	0202214H
	DD	0211214H
	DD	0212214H
	DD	0221214H
	DD	0222214H
	DD	0201124H
	DD	0202124H
	DD	0211124H
	DD	0212124H
	DD	0221124H
	DD	0222124H
	DD	0201224H
	DD	0202224H
	DD	0211224H
	DD	0212224H
	DD	0221224H
	DD	0222224H
_RaplBandWidthScaleValues DD 02d0H
	DD	0315H
	DD	01f6H
	DD	022aH
	DD	0297H
	DD	02d2H
	DD	01d6H
	DD	0204H
	DD	02a2H
	DD	02dfH
	DD	01dfH
	DD	020fH
	DD	026bH
	DD	029eH
	DD	01bfH
	DD	01e9H
	DD	023fH
	DD	027fH
	DD	0253H
	DD	0288H
	DD	051aH
	DD	0532H
	DD	0223H
	DD	025dH
	DD	0221H
	DD	024dH
	DD	0438H
	DD	0448H
	DD	021eH
	DD	0257H
	DD	022fH
	DD	025fH
	DD	047aH
	DD	0490H
	DD	0201H
	DD	0234H
	DD	01ffH
	DD	0227H
	DD	03bbH
	DD	03caH
	DD	028aH
	DD	02c2H
	DD	01d3H
	DD	0200H
	DD	0263H
	DD	0294H
	DD	01bbH
	DD	01e3H
	DD	0272H
	DD	02a7H
	DD	01c7H
	DD	01f1H
	DD	0249H
	DD	0277H
	DD	01aeH
	DD	01d4H
	DD	020dH
	DD	0241H
	DD	021dH
	DD	0249H
	DD	0431H
	DD	0442H
	DD	01fbH
	DD	022cH
	DD	01f9H
	DD	021fH
	DD	03a6H
	DD	03b3H
	DD	01fcH
	DD	022dH
	DD	020bH
	DD	0235H
	DD	03ecH
	DD	03fcH
	DD	01e8H
	DD	0215H
	DD	01e5H
	DD	0209H
	DD	0366H
	DD	0372H
	DD	01e0H
	DD	020dH
	DD	0110H
	DD	012fH
	DD	01b9H
	DD	01dfH
	DD	0101H
	DD	011cH
	DD	01c7H
	DD	01f0H
	DD	0108H
	DD	0125H
	DD	019cH
	DD	01beH
	DD	0f7H
	DD	0110H
	DD	0228H
	DD	0259H
	DD	018dH
	DD	01b6H
	DD	0324H
	DD	0342H
	DD	01f6H
	DD	021eH
	DD	016cH
	DD	018eH
	DD	02a8H
	DD	02bdH
	DD	0203H
	DD	022eH
	DD	017aH
	DD	019fH
	DD	02d8H
	DD	02f2H
	DD	01cdH
	DD	01f0H
	DD	0156H
	DD	0174H
	DD	0260H
	DD	0273H
	DD	01baH
	DD	01e0H
	DD	0103H
	DD	011fH
	DD	019dH
	DD	01beH
	DD	0f7H
	DD	0110H
	DD	01abH
	DD	01cfH
	DD	0feH
	DD	0119H
	DD	0189H
	DD	01a8H
	DD	0f0H
	DD	0108H
	DD	01f1H
	DD	0218H
	DD	0170H
	DD	0193H
	DD	02b5H
	DD	02cbH
	DD	01ceH
	DD	01efH
	DD	0156H
	DD	0174H
	DD	0260H
	DD	0271H
	DD	01ddH
	DD	0201H
	DD	0165H
	DD	0186H
	DD	028eH
	DD	02a3H
	DD	01b3H
	DD	01d2H
	DD	0147H
	DD	0163H
	DD	0233H
	DD	0243H
	DD	01c8H
	DD	0235H
	DD	0300H
	DD	03d7H
	DD	0195H
	DD	01f5H
	DD	02b3H
	DD	0374H
	DD	0169H
	DD	01beH
	DD	0270H
	DD	031cH
	DD	01b4H
	DD	0235H
	DD	028bH
	DD	036dH
	DD	0183H
	DD	01f5H
	DD	024fH
	DD	031dH
	DD	015aH
	DD	01beH
	DD	021aH
	DD	02d5H
	DD	0247H
	DD	02c9H
	DD	03b7H
	DD	04aeH
	DD	024dH
	DD	028eH
	DD	039fH
	DD	045bH
	DD	01eeH
	DD	0264H
	DD	0324H
	DD	041bH
	DD	022cH
	DD	02c9H
	DD	0316H
	DD	0414H
	DD	0220H
	DD	028eH
	DD	02e1H
	DD	03d4H
	DD	01ceH
	DD	0264H
	DD	0290H
	DD	03a3H
	DD	0118H
	DD	0154H
	DD	01dfH
	DD	025eH
	DD	0169H
	DD	01bdH
	DD	0269H
	DD	0311H
	DD	0142H
	DD	018cH
	DD	022dH
	DD	02c4H
	DD	010aH
	DD	0154H
	DD	0197H
	DD	0227H
	DD	015aH
	DD	01bdH
	DD	0210H
	DD	02c4H
	DD	0134H
	DD	018cH
	DD	01e0H
	DD	0284H
	DD	0209H
	DD	0279H
	DD	0352H
	DD	0428H
	DD	020fH
	DD	0246H
	DD	033dH
	DD	03deH
	DD	01b9H
	DD	021fH
	DD	02ceH
	DD	03a5H
	DD	01f1H
	DD	0279H
	DD	02c2H
	DD	03a0H
	DD	01e6H
	DD	0246H
	DD	0292H
	DD	0367H
	DD	019cH
	DD	021fH
	DD	0249H
	DD	033bH
	DD	0100H
	DD	0151H
	DD	01adH
	DD	0259H
	DD	0165H
	DD	020dH
	DD	0218H
	DD	0373H
	DD	0d0H
	DD	010eH
	DD	0164H
	DD	01ecH
	DD	0ecH
	DD	0151H
	DD	0160H
	DD	0223H
	DD	0132H
	DD	020dH
	DD	018cH
	DD	0302H
	DD	0c1H
	DD	010eH
	DD	012bH
	DD	01c7H
	DD	016dH
	DD	01f0H
	DD	025eH
	DD	035fH
	DD	0147H
	DD	01b6H
	DD	0227H
	DD	0306H
	DD	0126H
	DD	0186H
	DD	01f6H
	DD	02baH
	DD	0156H
	DD	01f0H
	DD	01fbH
	DD	0303H
	DD	0133H
	DD	01b6H
	DD	01d2H
	DD	02bbH
	DD	0115H
	DD	0186H
	DD	01acH
	DD	027cH
	DD	0189H
	DD	0243H
	DD	0245H
	DD	03beH
	DD	0189H
	DD	0243H
	DD	0245H
	DD	03beH
	DD	0163H
	DD	01fcH
	DD	0218H
	DD	035cH
	DD	014fH
	DD	0243H
	DD	01aaH
	DD	033bH
	DD	014fH
	DD	0243H
	DD	01aaH
	DD	033bH
	DD	0132H
	DD	01fcH
	DD	018eH
	DD	02f0H
	DD	01c6H
	DD	026eH
	DD	02dbH
	DD	0418H
	DD	01c6H
	DD	026eH
	DD	02dbH
	DD	0418H
	DD	01c9H
	DD	023aH
	DD	02caH
	DD	03cdH
	DD	01a7H
	DD	026eH
	DD	0258H
	DD	0394H
	DD	01a7H
	DD	026eH
	DD	0258H
	DD	0394H
	DD	019eH
	DD	023aH
	DD	0234H
	DD	035aH
_DATA	ENDS
END
