 Ip4Dxe

 Timestamp is 6448e7f7 (Wed Apr 26 16:59:35 2023)

 Preferred load address is 0000000000000000

 Start         Length     Name                   Class
 0001:00000000 0000d542H .text                   CODE
 0002:00000000 000003a4H .data                   DATA
 0002:000003b0 000006b6H .rdata                  DATA
 0002:00000a80 000000a0H .bss                    DATA
 0003:00000000 00000768H .pdata                  DATA
 0004:00000000 000005dcH .xdata                  DATA

  Address         Publics by Value              Rva+Base               Lib:Object

 0000:00000000       __ImageBase                0000000000000000     <linker-defined>
 0001:00000000       _DriverUnloadHandler       00000000000002a0 f   UefiDriverEntryPoint:DriverEntryPoint.obj
 0001:0000018c       _ModuleEntryPoint          000000000000042c f   UefiDriverEntryPoint:DriverEntryPoint.obj
 0001:000001e4       ProcessLibraryConstructorList 0000000000000484 f   Ip4Dxe:AutoGen.obj
 0001:000002bc       ProcessModuleEntryPointList 000000000000055c f   Ip4Dxe:AutoGen.obj
 0001:000003a0       IpSec2InstalledCallback    0000000000000640 f   Ip4Dxe:Ip4Driver.obj
 0001:000003bc       Ip4DriverBindingSupported  000000000000065c f   Ip4Dxe:Ip4Driver.obj
 0001:00000434       Ip4CreateService           00000000000006d4 f   Ip4Dxe:Ip4Driver.obj
 0001:000007b4       Ip4CleanService            0000000000000a54 f   Ip4Dxe:Ip4Driver.obj
 0001:000008ec       Ip4DestroyChildEntryInHandleBuffer 0000000000000b8c f   Ip4Dxe:Ip4Driver.obj
 0001:00000944       Ip4DriverBindingStart      0000000000000be4 f   Ip4Dxe:Ip4Driver.obj
 0001:00000b2c       Ip4DriverBindingStop       0000000000000dcc f   Ip4Dxe:Ip4Driver.obj
 0001:00000e84       Ip4ServiceBindingCreateChild 0000000000001124 f   Ip4Dxe:Ip4Driver.obj
 0001:00000fdc       Ip4ServiceBindingDestroyChild 000000000000127c f   Ip4Dxe:Ip4Driver.obj
 0001:000011d8       Ip4FreeLinkTxToken         0000000000001478 f   Ip4Dxe:Ip4If.obj
 0001:00001208       Ip4CreateArpQue            00000000000014a8 f   Ip4Dxe:Ip4If.obj
 0001:000012c4       Ip4CreateLinkRxToken       0000000000001564 f   Ip4Dxe:Ip4If.obj
 0001:00001374       Ip4CancelFrameArp          0000000000001614 f   Ip4Dxe:Ip4If.obj
 0001:0000141c       Ip4CancelFrames            00000000000016bc f   Ip4Dxe:Ip4If.obj
 0001:000014ec       Ip4CreateInterface         000000000000178c f   Ip4Dxe:Ip4If.obj
 0001:00001638       Ip4SetAddress              00000000000018d8 f   Ip4Dxe:Ip4If.obj
 0001:00001818       Ip4CancelInstanceFrame     0000000000001ab8 f   Ip4Dxe:Ip4If.obj
 0001:00001820       Ip4CancelReceive           0000000000001ac0 f   Ip4Dxe:Ip4If.obj
 0001:00001884       Ip4FreeInterface           0000000000001b24 f   Ip4Dxe:Ip4If.obj
 0001:0000194c       Ip4OnArpResolvedDpc        0000000000001bec f   Ip4Dxe:Ip4If.obj
 0001:00001ac4       Ip4OnArpResolved           0000000000001d64 f   Ip4Dxe:Ip4If.obj
 0001:00001ae0       Ip4OnFrameSentDpc          0000000000001d80 f   Ip4Dxe:Ip4If.obj
 0001:00001b2c       Ip4OnFrameSent             0000000000001dcc f   Ip4Dxe:Ip4If.obj
 0001:00001b48       Ip4SendFrame               0000000000001de8 f   Ip4Dxe:Ip4If.obj
 0001:00001ef4       Ip4RecycleFrame            0000000000002194 f   Ip4Dxe:Ip4If.obj
 0001:00001f30       Ip4OnFrameReceivedDpc      00000000000021d0 f   Ip4Dxe:Ip4If.obj
 0001:00002044       Ip4OnFrameReceived         00000000000022e4 f   Ip4Dxe:Ip4If.obj
 0001:00002060       Ip4ReceiveFrame            0000000000002300 f   Ip4Dxe:Ip4If.obj
 0001:0000210c       Ip4ComponentNameGetDriverName 00000000000023ac f   Ip4Dxe:ComponentName.obj
 0001:00002140       UpdateName                 00000000000023e0 f   Ip4Dxe:ComponentName.obj
 0001:0000223c       Ip4ComponentNameGetControllerName 00000000000024dc f   Ip4Dxe:ComponentName.obj
 0001:00002368       Ip4Config2DestroyDhcp4     0000000000002608 f   Ip4Dxe:Ip4Config2Impl.obj
 0001:000023f4       Ip4Config2OnPolicyChanged  0000000000002694 f   Ip4Dxe:Ip4Config2Impl.obj
 0001:000024e8       Ip4Config2SignalEvent      0000000000002788 f   Ip4Dxe:Ip4Config2Impl.obj
 0001:00002504       Ip4Config2ReadConfigData   00000000000027a4 f   Ip4Dxe:Ip4Config2Impl.obj
 0001:000026dc       Ip4Config2WriteConfigData  000000000000297c f   Ip4Dxe:Ip4Config2Impl.obj
 0001:00002828       Ip4Config2BuildDefaultRouteTable 0000000000002ac8 f   Ip4Dxe:Ip4Config2Impl.obj
 0001:00002934       Ip4Config2OnDhcp4SbInstalled 0000000000002bd4 f   Ip4Dxe:Ip4Config2Impl.obj
 0001:00002958       Ip4Config2SetDefaultAddr   0000000000002bf8 f   Ip4Dxe:Ip4Config2Impl.obj
 0001:00002b20       Ip4Config2SetDnsServerWorker 0000000000002dc0 f   Ip4Dxe:Ip4Config2Impl.obj
 0001:00002d68       Ip4Config2OnDhcp4Complete  0000000000003008 f   Ip4Dxe:Ip4Config2Impl.obj
 0001:00002fdc       Ip4StartAutoConfig         000000000000327c f   Ip4Dxe:Ip4Config2Impl.obj
 0001:000031c8       Ip4Config2GetIfInfo        0000000000003468 f   Ip4Dxe:Ip4Config2Impl.obj
 0001:000032e0       Ip4Config2SetPolicy        0000000000003580 f   Ip4Dxe:Ip4Config2Impl.obj
 0001:00003480       Ip4Config2SetMaunualAddress 0000000000003720 f   Ip4Dxe:Ip4Config2Impl.obj
 0001:000035f8       Ip4Config2SetGateway       0000000000003898 f   Ip4Dxe:Ip4Config2Impl.obj
 0001:00003878       Ip4Config2SetDnsServer     0000000000003b18 f   Ip4Dxe:Ip4Config2Impl.obj
 0001:000038b0       Ip4Config2OnDhcp4Event     0000000000003b50 f   Ip4Dxe:Ip4Config2Impl.obj
 0001:000038b4       EfiIp4Config2SetData       0000000000003b54 f   Ip4Dxe:Ip4Config2Impl.obj
 0001:000039ec       EfiIp4Config2GetData       0000000000003c8c f   Ip4Dxe:Ip4Config2Impl.obj
 0001:00003af8       EfiIp4Config2RegisterDataNotify 0000000000003d98 f   Ip4Dxe:Ip4Config2Impl.obj
 0001:00003bd4       EfiIp4Config2UnregisterDataNotify 0000000000003e74 f   Ip4Dxe:Ip4Config2Impl.obj
 0001:00003cc0       Ip4Config2InitInstance     0000000000003f60 f   Ip4Dxe:Ip4Config2Impl.obj
 0001:00003ee4       Ip4Config2CleanInstance    0000000000004184 f   Ip4Dxe:Ip4Config2Impl.obj
 0001:00003fb8       Ip4AutoReconfigCallBackDpc 0000000000004258 f   Ip4Dxe:Ip4Config2Impl.obj
 0001:00003fd8       Ip4AutoReconfigCallBack    0000000000004278 f   Ip4Dxe:Ip4Config2Impl.obj
 0001:00003ff4       EfiIp4GetModeData          0000000000004294 f   Ip4Dxe:Ip4Impl.obj
 0001:000041c4       Ip4ServiceConfigMnp        0000000000004464 f   Ip4Dxe:Ip4Impl.obj
 0001:00004270       Ip4InitProtocol            0000000000004510 f   Ip4Dxe:Ip4Impl.obj
 0001:00004350       Ip4ConfigProtocol          00000000000045f0 f   Ip4Dxe:Ip4Impl.obj
 0001:00004634       Ip4CleanProtocol           00000000000048d4 f   Ip4Dxe:Ip4Impl.obj
 0001:00004778       EfiIp4Configure            0000000000004a18 f   Ip4Dxe:Ip4Impl.obj
 0001:000049a0       Ip4Groups                  0000000000004c40 f   Ip4Dxe:Ip4Impl.obj
 0001:00004e2c       EfiIp4Groups               00000000000050cc f   Ip4Dxe:Ip4Impl.obj
 0001:00004f38       EfiIp4Routes               00000000000051d8 f   Ip4Dxe:Ip4Impl.obj
 0001:0000513c       Ip4TokenExist              00000000000053dc f   Ip4Dxe:Ip4Impl.obj
 0001:0000515c       Ip4TxTokenValid            00000000000053fc f   Ip4Dxe:Ip4Impl.obj
 0001:00005354       Ip4FreeTxToken             00000000000055f4 f   Ip4Dxe:Ip4Impl.obj
 0001:00005404       Ip4OnPacketSent            00000000000056a4 f   Ip4Dxe:Ip4Impl.obj
 0001:0000541c       EfiIp4Transmit             00000000000056bc f   Ip4Dxe:Ip4Impl.obj
 0001:000058bc       EfiIp4Receive              0000000000005b5c f   Ip4Dxe:Ip4Impl.obj
 0001:0000599c       Ip4CancelTxTokens          0000000000005c3c f   Ip4Dxe:Ip4Impl.obj
 0001:000059f8       Ip4CancelRxTokens          0000000000005c98 f   Ip4Dxe:Ip4Impl.obj
 0001:00005a80       Ip4Cancel                  0000000000005d20 f   Ip4Dxe:Ip4Impl.obj
 0001:00005b4c       EfiIp4Cancel               0000000000005dec f   Ip4Dxe:Ip4Impl.obj
 0001:00005be8       EfiIp4Poll                 0000000000005e88 f   Ip4Dxe:Ip4Impl.obj
 0001:00005c28       Ip4SentPacketTicking       0000000000005ec8 f   Ip4Dxe:Ip4Impl.obj
 0001:00005c70       Ip4TimerTicking            0000000000005f10 f   Ip4Dxe:Ip4Impl.obj
 0001:00005e40       Ip4PrependHead             00000000000060e0 f   Ip4Dxe:Ip4Output.obj
 0001:00005f9c       Ip4SysPacketSent           000000000000623c f   Ip4Dxe:Ip4Output.obj
 0001:00005fa4       Ip4Output                  0000000000006244 f   Ip4Dxe:Ip4Output.obj
 0001:000063b4       Ip4CancelPacketFragments   0000000000006654 f   Ip4Dxe:Ip4Output.obj
 0001:000063c8       Ip4FreeAssembleEntry       0000000000006668 f   Ip4Dxe:Ip4Input.obj
 0001:0000642c       Ip4CleanAssembleTable      00000000000066cc f   Ip4Dxe:Ip4Input.obj
 0001:0000649c       Ip4TrimPacket              000000000000673c f   Ip4Dxe:Ip4Input.obj
 0001:00006510       Ip4OnFreeFragments         00000000000067b0 f   Ip4Dxe:Ip4Input.obj
 0001:00006518       Ip4Reassemble              00000000000067b8 f   Ip4Dxe:Ip4Input.obj
 0001:00006884       Ip4IpSecFree               0000000000006b24 f   Ip4Dxe:Ip4Input.obj
 0001:000068bc       Ip4IpSecProcessPacket      0000000000006b5c f   Ip4Dxe:Ip4Input.obj
 0001:00006c70       Ip4PreProcessPacket        0000000000006f10 f   Ip4Dxe:Ip4Input.obj
 0001:00006e28       Ip4AccpetFrame             00000000000070c8 f   Ip4Dxe:Ip4Input.obj
 0001:00007000       Ip4OnRecyclePacket         00000000000072a0 f   Ip4Dxe:Ip4Input.obj
 0001:000070a0       Ip4WrapRxData              0000000000007340 f   Ip4Dxe:Ip4Input.obj
 0001:000071b8       Ip4InstanceDeliverPacket   0000000000007458 f   Ip4Dxe:Ip4Input.obj
 0001:000073e0       Ip4InterfaceEnquePacket    0000000000007680 f   Ip4Dxe:Ip4Input.obj
 0001:0000765c       Ip4Demultiplex             00000000000078fc f   Ip4Dxe:Ip4Input.obj
 0001:00007738       Ip4InitIgmp                00000000000079d8 f   Ip4Dxe:Ip4Igmp.obj
 0001:00007830       Ip4SendIgmpMessage         0000000000007ad0 f   Ip4Dxe:Ip4Igmp.obj
 0001:00007950       Ip4IgmpHandle              0000000000007bf0 f   Ip4Dxe:Ip4Igmp.obj
 0001:00007ae8       Ip4CreateRouteTable        0000000000007d88 f   Ip4Dxe:Ip4Route.obj
 0001:00007b54       Ip4FreeRouteTable          0000000000007df4 f   Ip4Dxe:Ip4Route.obj
 0001:00007c54       Ip4AddRoute                0000000000007ef4 f   Ip4Dxe:Ip4Route.obj
 0001:00007d48       Ip4DelRoute                0000000000007fe8 f   Ip4Dxe:Ip4Route.obj
 0001:00007e68       Ip4FindRouteCache          0000000000008108 f   Ip4Dxe:Ip4Route.obj
 0001:00007ebc       Ip4Route                   000000000000815c f   Ip4Dxe:Ip4Route.obj
 0001:00008080       Ip4BuildEfiRouteTable      0000000000008320 f   Ip4Dxe:Ip4Route.obj
 0001:00008208       Ip4GetNetCast              00000000000084a8 f   Ip4Dxe:Ip4Common.obj
 0001:00008238       Ip4GetHostCast             00000000000084d8 f   Ip4Dxe:Ip4Common.obj
 0001:0000833c       Ip4NtohHead                00000000000085dc f   Ip4Dxe:Ip4Common.obj
 0001:000083a8       Ip4Config2StrToIp          0000000000008648 f   Ip4Dxe:Ip4Config2Nv.obj
 0001:00008444       Ip4Config2StrToIpList      00000000000086e4 f   Ip4Dxe:Ip4Config2Nv.obj
 0001:00008660       Ip4Config2IpToStr          0000000000008900 f   Ip4Dxe:Ip4Config2Nv.obj
 0001:000086a0       Ip4Config2IpListToStr      0000000000008940 f   Ip4Dxe:Ip4Config2Nv.obj
 0001:0000879c       Ip4Config2ManualAddressNotify 0000000000008a3c f   Ip4Dxe:Ip4Config2Nv.obj
 0001:000087a0       Ip4Config2ConvertConfigNvDataToIfrNvData 0000000000008a40 f   Ip4Dxe:Ip4Config2Nv.obj
 0001:000089c4       Ip4Config2ConvertIfrNvDataToConfigNvData 0000000000008c64 f   Ip4Dxe:Ip4Config2Nv.obj
 0001:00008ef4       Ip4FormExtractConfig       0000000000009194 f   Ip4Dxe:Ip4Config2Nv.obj
 0001:00009120       Ip4FormRouteConfig         00000000000093c0 f   Ip4Dxe:Ip4Config2Nv.obj
 0001:00009238       Ip4Config2FormInit         00000000000094d8 f   Ip4Dxe:Ip4Config2Nv.obj
 0001:00009434       Ip4Config2FormUnload       00000000000096d4 f   Ip4Dxe:Ip4Config2Nv.obj
 0001:00009534       Ip4ProcessIcmpRedirect     00000000000097d4 f   Ip4Dxe:Ip4Icmp.obj
 0001:000096a0       Ip4IcmpReplyEcho           0000000000009940 f   Ip4Dxe:Ip4Icmp.obj
 0001:00009794       Ip4IcmpHandle              0000000000009a34 f   Ip4Dxe:Ip4Icmp.obj
 0001:000098c0       Ip4OptionIsValid           0000000000009b60 f   Ip4Dxe:Ip4Option.obj
 0001:00009990       Ip4CopyOption              0000000000009c30 f   Ip4Dxe:Ip4Option.obj
 0001:00009aa0       StrnCmp                    0000000000009d40 f   BaseLib:String.obj
 0001:00009ad8       StrStr                     0000000000009d78 f   BaseLib:String.obj
 0001:00009b2c       InternalAllocatePool       0000000000009dcc f   UefiMemoryAllocationLib:MemoryAllocationLib.obj
 0001:00009b5c       AllocateZeroPool           0000000000009dfc f   UefiMemoryAllocationLib:MemoryAllocationLib.obj
 0001:00009b88       InternalAllocateCopyPool   0000000000009e28 f   UefiMemoryAllocationLib:MemoryAllocationLib.obj
 0001:00009bcc       UnicodeSPrint              0000000000009e6c f   BasePrintLib:PrintLib.obj
 0001:00009c00       BasePrintLibFillBuffer     0000000000009ea0 f   BasePrintLib:PrintLibInternal.obj
 0001:00009c34       BasePrintLibConvertValueToString 0000000000009ed4 f   BasePrintLib:PrintLibInternal.obj
 0001:00009df0       BasePrintLibSPrintMarker   000000000000a090 f   BasePrintLib:PrintLibInternal.obj
 0001:0000ac6c       BasePrintLibSPrint         000000000000af0c f   BasePrintLib:PrintLibInternal.obj
 0001:0000ac90       GetDevicePathSize          000000000000af30 f   UefiDevicePathLib:UefiDevicePathLib.obj
 0001:0000acd8       AppendDevicePath           000000000000af78 f   UefiDevicePathLib:UefiDevicePathLib.obj
 0001:0000ade8       AppendDevicePathNode       000000000000b088 f   UefiDevicePathLib:UefiDevicePathLib.obj
 0001:0000aed0       IsDevicePathValid          000000000000b170 f   UefiDevicePathLib:DevicePathUtilities.obj
 0001:0000aefc       DevicePathFromHandle       000000000000b19c f   UefiDevicePathLib:DevicePathUtilities.obj
 0001:0000af30       EfiGetSystemConfigurationTable 000000000000b1d0 f   UefiLib:UefiLib.obj
 0001:0000af94       EfiCreateProtocolNotifyEvent 000000000000b234 f   UefiLib:UefiLib.obj
 0001:0000aff0       LookupUnicodeString2       000000000000b290 f   UefiLib:UefiLib.obj
 0001:0000b17c       AddUnicodeString2          000000000000b41c f   UefiLib:UefiLib.obj
 0001:0000b44c       FreeUnicodeStringTable     000000000000b6ec f   UefiLib:UefiLib.obj
 0001:0000b4c4       UefiLibGetStringWidth      000000000000b764 f   UefiLib:Console.obj
 0001:0000b574       CreatePopUp                000000000000b814 f   UefiLib:Console.obj
 0001:0000b9d8       NetGetIpClass              000000000000bc78 f   DxeNetLib:DxeNetLib.obj
 0001:0000ba20       NetIp4IsUnicast            000000000000bcc0 f   DxeNetLib:DxeNetLib.obj
 0001:0000ba5c       NetRandomInitSeed          000000000000bcfc f   DxeNetLib:DxeNetLib.obj
 0001:0000bba4       NetMapClean                000000000000be44 f   DxeNetLib:DxeNetLib.obj
 0001:0000bc28       NetMapAllocItem            000000000000bec8 f   DxeNetLib:DxeNetLib.obj
 0001:0000bc9c       NetMapInsertTail           000000000000bf3c f   DxeNetLib:DxeNetLib.obj
 0001:0000bd00       NetMapIterate              000000000000bfa0 f   DxeNetLib:DxeNetLib.obj
 0001:0000bd5c       NetLibCreateServiceChild   000000000000bffc f   DxeNetLib:DxeNetLib.obj
 0001:0000bda8       NetLibDestroyServiceChild  000000000000c048 f   DxeNetLib:DxeNetLib.obj
 0001:0000bdf4       NetLibGetSnpHandle         000000000000c094 f   DxeNetLib:DxeNetLib.obj
 0001:0000bebc       NetLibGetVlanId            000000000000c15c f   DxeNetLib:DxeNetLib.obj
 0001:0000bf04       NetLibGetMacString         000000000000c1a4 f   DxeNetLib:DxeNetLib.obj
 0001:0000c104       NetLibGetNicHandle         000000000000c3a4 f   DxeNetLib:DxeNetLib.obj
 0001:0000c150       NetbufAllocStruct          000000000000c3f0 f   DxeNetLib:NetBuffer.obj
 0001:0000c1f4       NetbufAlloc                000000000000c494 f   DxeNetLib:NetBuffer.obj
 0001:0000c28c       NetbufFreeVector           000000000000c52c f   DxeNetLib:NetBuffer.obj
 0001:0000c30c       NetbufFree                 000000000000c5ac f   DxeNetLib:NetBuffer.obj
 0001:0000c338       NetbufClone                000000000000c5d8 f   DxeNetLib:NetBuffer.obj
 0001:0000c414       NetbufDuplicate            000000000000c6b4 f   DxeNetLib:NetBuffer.obj
 0001:0000c4a4       NetbufGetByte              000000000000c744 f   DxeNetLib:NetBuffer.obj
 0001:0000c500       NetbufGetFragmentFree      000000000000c7a0 f   DxeNetLib:NetBuffer.obj
 0001:0000c508       NetbufGetFragment          000000000000c7a8 f   DxeNetLib:NetBuffer.obj
 0001:0000c7b8       NetbufFromExt              000000000000ca58 f   DxeNetLib:NetBuffer.obj
 0001:0000ca68       NetbufBuildExt             000000000000cd08 f   DxeNetLib:NetBuffer.obj
 0001:0000cac0       NetbufAllocSpace           000000000000cd60 f   DxeNetLib:NetBuffer.obj
 0001:0000cc00       NetbufTrim                 000000000000cea0 f   DxeNetLib:NetBuffer.obj
 0001:0000ccb4       NetbufCopy                 000000000000cf54 f   DxeNetLib:NetBuffer.obj
 0001:0000ce0c       NetblockChecksum           000000000000d0ac f   DxeNetLib:NetBuffer.obj
 0001:0000ce50       NetbufChecksum             000000000000d0f0 f   DxeNetLib:NetBuffer.obj
 0001:0000ced4       HiiConstructConfigHdr      000000000000d174 f   UefiHiiLib:HiiLib.obj
 0001:0000d0f4       InternalHiiCompareSubString 000000000000d394 f   UefiHiiLib:HiiLib.obj
 0001:0000d18c       HiiIsConfigHdrMatch        000000000000d42c f   UefiHiiLib:HiiLib.obj
 0001:0000d218       StrCpyS                    000000000000d4b8 f   BaseLib:SafeString.obj
 0001:0000d2ac       StrnCpyS                   000000000000d54c f   BaseLib:SafeString.obj
 0001:0000d360       StrCatS                    000000000000d600 f   BaseLib:SafeString.obj
 0001:0000d450       InternalMemZeroMem         000000000000d6f0     BaseMemoryLibRepStr:ZeroMem.obj
 0001:0000d470       InternalMemCompareMem      000000000000d710     BaseMemoryLibRepStr:CompareMem.obj
 0001:0000d490       InternalMemCopyMem         000000000000d730     BaseMemoryLibRepStr:CopyMem.obj
 0001:0000d4d0       InternalMemSetMem16        000000000000d770     BaseMemoryLibRepStr:SetMem16.obj
 0001:0000d4f0       InternalMemSetMem          000000000000d790     BaseMemoryLibRepStr:SetMem.obj
 0001:0000d510       InternalMemSetMem32        000000000000d7b0     BaseMemoryLibRepStr:SetMem32.obj
 0001:0000d530       InternalMemSetMem64        000000000000d7d0     BaseMemoryLibRepStr:SetMem64.obj
 0002:00000000       gEfiCallerIdGuid           000000000000d800     Ip4Dxe:AutoGen.obj
 0002:00000010       gEfiNetworkStackSetupGuid  000000000000d810     Ip4Dxe:AutoGen.obj
 0002:00000020       gIp4Config2NvDataGuid      000000000000d820     Ip4Dxe:AutoGen.obj
 0002:00000030       gEfiSmbiosTableGuid        000000000000d830     Ip4Dxe:AutoGen.obj
 0002:00000040       gEfiSmbios3TableGuid       000000000000d840     Ip4Dxe:AutoGen.obj
 0002:00000050       gEfiIp4ServiceBindingProtocolGuid 000000000000d850     Ip4Dxe:AutoGen.obj
 0002:00000060       gEfiIp4ProtocolGuid        000000000000d860     Ip4Dxe:AutoGen.obj
 0002:00000070       gEfiManagedNetworkServiceBindingProtocolGuid 000000000000d870     Ip4Dxe:AutoGen.obj
 0002:00000080       gEfiManagedNetworkProtocolGuid 000000000000d880     Ip4Dxe:AutoGen.obj
 0002:00000090       gEfiArpServiceBindingProtocolGuid 000000000000d890     Ip4Dxe:AutoGen.obj
 0002:000000a0       gEfiIp4Config2ProtocolGuid 000000000000d8a0     Ip4Dxe:AutoGen.obj
 0002:000000b0       gEfiArpProtocolGuid        000000000000d8b0     Ip4Dxe:AutoGen.obj
 0002:000000c0       gEfiDhcp4ServiceBindingProtocolGuid 000000000000d8c0     Ip4Dxe:AutoGen.obj
 0002:000000d0       gEfiDhcp4ProtocolGuid      000000000000d8d0     Ip4Dxe:AutoGen.obj
 0002:000000e0       gEfiIpSec2ProtocolGuid     000000000000d8e0     Ip4Dxe:AutoGen.obj
 0002:000000f0       gEfiHiiConfigAccessProtocolGuid 000000000000d8f0     Ip4Dxe:AutoGen.obj
 0002:00000100       gEfiDevicePathProtocolGuid 000000000000d900     Ip4Dxe:AutoGen.obj
 0002:00000110       gEfiDriverBindingProtocolGuid 000000000000d910     Ip4Dxe:AutoGen.obj
 0002:00000120       gEfiHiiFontProtocolGuid    000000000000d920     Ip4Dxe:AutoGen.obj
 0002:00000130       gEfiComponentNameProtocolGuid 000000000000d930     Ip4Dxe:AutoGen.obj
 0002:00000140       gEfiComponentName2ProtocolGuid 000000000000d940     Ip4Dxe:AutoGen.obj
 0002:00000150       gEfiHiiStringProtocolGuid  000000000000d950     Ip4Dxe:AutoGen.obj
 0002:00000160       gEfiHiiImageProtocolGuid   000000000000d960     Ip4Dxe:AutoGen.obj
 0002:00000170       gEfiHiiDatabaseProtocolGuid 000000000000d970     Ip4Dxe:AutoGen.obj
 0002:00000180       gEfiHiiConfigRoutingProtocolGuid 000000000000d980     Ip4Dxe:AutoGen.obj
 0002:00000190       gEfiLoadedImageProtocolGuid 000000000000d990     Ip4Dxe:AutoGen.obj
 0002:000001a0       gEfiSimpleNetworkProtocolGuid 000000000000d9a0     Ip4Dxe:AutoGen.obj
 0002:000001b0       gEfiDpcProtocolGuid        000000000000d9b0     Ip4Dxe:AutoGen.obj
 0002:000001c0       mIcmpClass                 000000000000d9c0     Ip4Dxe:Ip4Icmp.obj
 0002:000001e8       mIp4SupportedIcmp          000000000000d9e8     Ip4Dxe:Ip4Icmp.obj
 0002:00000218       mIp4Config2StorageName     000000000000da18     Ip4Dxe:Ip4Config2Nv.obj
 0002:00000248       mRouteAlertOption          000000000000da48     Ip4Dxe:Ip4Igmp.obj
 0002:00000250       mEfiIp4ProtocolTemplete    000000000000da50     Ip4Dxe:Ip4Impl.obj
 0002:00000290       mIp4Config2InstanceList    000000000000da90     Ip4Dxe:Ip4Config2Impl.obj
 0002:000002a0       gIp4DriverBinding          000000000000daa0     Ip4Dxe:Ip4Driver.obj
 0002:000002d0       gIp4ComponentName          000000000000dad0     Ip4Dxe:ComponentName.obj
 0002:000002e8       gIp4ComponentName2         000000000000dae8     Ip4Dxe:ComponentName.obj
 0002:00000300       mIp4DriverNameTable        000000000000db00     Ip4Dxe:ComponentName.obj
 0002:00000320       gIp4AllMasks               000000000000db20     DxeNetLib:DxeNetLib.obj
 0002:000003b0       _gUefiDriverRevision       000000000000dbb0     Ip4Dxe:AutoGen.obj
 0002:000003b8       ??_C@_1CA@BCMJNMNL@?$AAN?$AAe?$AAt?$AAw?$AAo?$AAr?$AAk?$AAS?$AAt?$AAa?$AAc?$AAk?$AAV?$AAa?$AAr?$AA?$AA@ 000000000000dbb8     Ip4Dxe:Ip4Driver.obj
 0002:000003d8       ??_C@_1DG@IHGHICFA@?$AAI?$AAP?$AA4?$AA?5?$AAN?$AAe?$AAt?$AAw?$AAo?$AAr?$AAk?$AA?5?$AAS?$AAe?$AAr?$AAv?$AAi?$AAc?$AAe?$AA?5?$AAD?$AAr?$AAi?$AAv?$AAe?$AAr?$AA?$AA@ 000000000000dbd8     Ip4Dxe:ComponentName.obj
 0002:00000410       ??_C@_06DALJLGPG@eng?$DLen?$AA@ 000000000000dc10     Ip4Dxe:ComponentName.obj
 0002:00000418       ??_C@_02LFNMGJAP@en?$AA@   000000000000dc18     Ip4Dxe:ComponentName.obj
 0002:0000041c       ??_C@_03LKLGDMJI@eng?$AA@  000000000000dc1c     Ip4Dxe:ComponentName.obj
 0002:00000420       ??_C@_1CG@HLBCDCEC@?$AAI?$AAP?$AAv?$AA4?$AA?5?$AA?$CI?$AAN?$AAo?$AAt?$AA?5?$AAs?$AAt?$AAa?$AAr?$AAt?$AAe?$AAd?$AA?$CJ?$AA?$AA@ 000000000000dc20     Ip4Dxe:ComponentName.obj
 0002:00000448       ??_C@_1DC@IHJIMGND@?$AAI?$AAP?$AAv?$AA4?$AA?5?$AA?$CI?$AAS?$AAr?$AAc?$AAI?$AAP?$AA?$DN?$AA?$CF?$AAd?$AA?4?$AA?$CF?$AAd?$AA?4?$AA?$CF?$AAd?$AA?4?$AA?$CF?$AAd?$AA?$CJ?$AA?$AA@ 000000000000dc48     Ip4Dxe:ComponentName.obj
 0002:00000480       ??_C@_1BI@FCMLLAGN@?$AA?$CF?$AAd?$AA?4?$AA?$CF?$AAd?$AA?4?$AA?$CF?$AAd?$AA?4?$AA?$CF?$AAd?$AA?$AA@ 000000000000dc80     Ip4Dxe:Ip4Config2Nv.obj
 0002:00000498       ??_C@_1CI@LMPBJGDM@?$AAI?$AAn?$AAv?$AAa?$AAl?$AAi?$AAd?$AA?5?$AAI?$AAP?$AA?5?$AAa?$AAd?$AAd?$AAr?$AAe?$AAs?$AAs?$AA?$CB?$AA?$AA@ 000000000000dc98     Ip4Dxe:Ip4Config2Nv.obj
 0002:000004c0       ??_C@_1CK@EKOBMLHN@?$AAI?$AAn?$AAv?$AAa?$AAl?$AAi?$AAd?$AA?5?$AAS?$AAu?$AAb?$AAn?$AAe?$AAt?$AA?5?$AAM?$AAa?$AAs?$AAk?$AA?$CB?$AA?$AA@ 000000000000dcc0     Ip4Dxe:Ip4Config2Nv.obj
 0002:000004f0       ??_C@_1CC@EECKCHGK@?$AAI?$AAn?$AAv?$AAa?$AAl?$AAi?$AAd?$AA?5?$AAG?$AAa?$AAt?$AAe?$AAw?$AAa?$AAy?$AA?$CB?$AA?$AA@ 000000000000dcf0     Ip4Dxe:Ip4Config2Nv.obj
 0002:00000518       ??_C@_1CI@GPLCPIIC@?$AAI?$AAn?$AAv?$AAa?$AAl?$AAi?$AAd?$AA?5?$AAD?$AAn?$AAs?$AA?5?$AAS?$AAe?$AAr?$AAv?$AAe?$AAr?$AA?$CB?$AA?$AA@ 000000000000dd18     Ip4Dxe:Ip4Config2Nv.obj
 0002:00000540       ??_C@_1O@LFMAFHMH@?$AAO?$AAF?$AAF?$AAS?$AAE?$AAT?$AA?$AA@ 000000000000dd40     Ip4Dxe:Ip4Config2Nv.obj
 0002:00000550       ??_C@_1DC@EPJEBJEB@?$AA?$CF?$AAs?$AA?$CG?$AAO?$AAF?$AAF?$AAS?$AAE?$AAT?$AA?$DN?$AA0?$AA?$CG?$AAW?$AAI?$AAD?$AAT?$AAH?$AA?$DN?$AA?$CF?$AA0?$AA1?$AA6?$AAL?$AAX?$AA?$AA@ 000000000000dd50     Ip4Dxe:Ip4Config2Nv.obj
 0002:00000588       ??_C@_0BB@MFGDFIJM@Compromised?5Data?$AA@ 000000000000dd88     BasePrintLib:PrintLibInternal.obj
 0002:000005a0       ??_C@_0BB@KFJAMCOC@Invalid?5Language?$AA@ 000000000000dda0     BasePrintLib:PrintLibInternal.obj
 0002:000005b8       ??_C@_0M@FKGOBENP@End?5of?5File?$AA@ 000000000000ddb8     BasePrintLib:PrintLibInternal.obj
 0002:000005c8       ??_C@_0O@GLPDOMCP@Reserved?5?$CI30?$CJ?$AA@ 000000000000ddc8     BasePrintLib:PrintLibInternal.obj
 0002:000005d8       ??_C@_0O@NMJOLAMF@Reserved?5?$CI29?$CJ?$AA@ 000000000000ddd8     BasePrintLib:PrintLibInternal.obj
 0002:000005e8       ??_C@_0N@JEJDHPO@End?5of?5Media?$AA@ 000000000000dde8     BasePrintLib:PrintLibInternal.obj
 0002:000005f8       ??_C@_09BOMAGJEG@CRC?5Error?$AA@ 000000000000ddf8     BasePrintLib:PrintLibInternal.obj
 0002:00000608       ??_C@_0BD@KHMPCIOG@Security?5Violation?$AA@ 000000000000de08     BasePrintLib:PrintLibInternal.obj
 0002:00000620       ??_C@_0BF@EHOBGFMI@Incompatible?5Version?$AA@ 000000000000de20     BasePrintLib:PrintLibInternal.obj
 0002:00000638       ??_C@_0P@NCJHBCLM@Protocol?5Error?$AA@ 000000000000de38     BasePrintLib:PrintLibInternal.obj
 0002:00000648       ??_C@_0L@DJKNJKHM@TFTP?5Error?$AA@ 000000000000de48     BasePrintLib:PrintLibInternal.obj
 0002:00000658       ??_C@_0L@LKIFCMNO@ICMP?5Error?$AA@ 000000000000de58     BasePrintLib:PrintLibInternal.obj
 0002:00000668       ??_C@_07LCKDCBKK@Aborted?$AA@ 000000000000de68     BasePrintLib:PrintLibInternal.obj
 0002:00000670       ??_C@_0BA@IGIBFFPH@Already?5started?$AA@ 000000000000de70     BasePrintLib:PrintLibInternal.obj
 0002:00000680       ??_C@_0M@DCJFAFHJ@Not?5started?$AA@ 000000000000de80     BasePrintLib:PrintLibInternal.obj
 0002:00000690       ??_C@_08PAFJCNGP@Time?5out?$AA@ 000000000000de90     BasePrintLib:PrintLibInternal.obj
 0002:000006a0       ??_C@_0L@IFPBNFC@No?5mapping?$AA@ 000000000000dea0     BasePrintLib:PrintLibInternal.obj
 0002:000006b0       ??_C@_0M@ENKCBFEP@No?5Response?$AA@ 000000000000deb0     BasePrintLib:PrintLibInternal.obj
 0002:000006c0       ??_C@_0O@NFHOBIDO@Access?5Denied?$AA@ 000000000000dec0     BasePrintLib:PrintLibInternal.obj
 0002:000006d0       ??_C@_09CFCBFJND@Not?5Found?$AA@ 000000000000ded0     BasePrintLib:PrintLibInternal.obj
 0002:000006e0       ??_C@_0O@JNCJKCCD@Media?5changed?$AA@ 000000000000dee0     BasePrintLib:PrintLibInternal.obj
 0002:000006f0       ??_C@_08KEGAJDNN@No?5Media?$AA@ 000000000000def0     BasePrintLib:PrintLibInternal.obj
 0002:00000700       ??_C@_0M@HDLEPOFA@Volume?5Full?$AA@ 000000000000df00     BasePrintLib:PrintLibInternal.obj
 0002:00000710       ??_C@_0P@EIOJGIF@Volume?5Corrupt?$AA@ 000000000000df10     BasePrintLib:PrintLibInternal.obj
 0002:00000720       ??_C@_0BB@GOILNEAA@Out?5of?5Resources?$AA@ 000000000000df20     BasePrintLib:PrintLibInternal.obj
 0002:00000738       ??_C@_0BA@LNEDDFNB@Write?5Protected?$AA@ 000000000000df38     BasePrintLib:PrintLibInternal.obj
 0002:00000748       ??_C@_0N@HHEABDHO@Device?5Error?$AA@ 000000000000df48     BasePrintLib:PrintLibInternal.obj
 0002:00000758       ??_C@_09NKFGCIPN@Not?5Ready?$AA@ 000000000000df58     BasePrintLib:PrintLibInternal.obj
 0002:00000768       ??_C@_0BB@EGELJFOB@Buffer?5Too?5Small?$AA@ 000000000000df68     BasePrintLib:PrintLibInternal.obj
 0002:00000780       ??_C@_0BA@FLNMPMCF@Bad?5Buffer?5Size?$AA@ 000000000000df80     BasePrintLib:PrintLibInternal.obj
 0002:00000790       ??_C@_0M@BEECMOIL@Unsupported?$AA@ 000000000000df90     BasePrintLib:PrintLibInternal.obj
 0002:000007a0       ??_C@_0BC@HOFHKGJN@Invalid?5Parameter?$AA@ 000000000000dfa0     BasePrintLib:PrintLibInternal.obj
 0002:000007b8       ??_C@_0L@PLPBEPPC@Load?5Error?$AA@ 000000000000dfb8     BasePrintLib:PrintLibInternal.obj
 0002:000007c8       ??_C@_0BD@IFJNJCCO@Warning?5Stale?5Data?$AA@ 000000000000dfc8     BasePrintLib:PrintLibInternal.obj
 0002:000007e0       ??_C@_0BJ@ODIPDGHB@Warning?5Buffer?5Too?5Small?$AA@ 000000000000dfe0     BasePrintLib:PrintLibInternal.obj
 0002:00000800       ??_C@_0BG@ECIJMOED@Warning?5Write?5Failure?$AA@ 000000000000e000     BasePrintLib:PrintLibInternal.obj
 0002:00000818       ??_C@_0BH@GKKCJEPJ@Warning?5Delete?5Failure?$AA@ 000000000000e018     BasePrintLib:PrintLibInternal.obj
 0002:00000830       ??_C@_0BG@CFJMNNJK@Warning?5Unknown?5Glyph?$AA@ 000000000000e030     BasePrintLib:PrintLibInternal.obj
 0002:00000848       ??_C@_07PBILKAFL@Success?$AA@ 000000000000e048     BasePrintLib:PrintLibInternal.obj
 0002:00000850       mHexStr                    000000000000e050     BasePrintLib:PrintLibInternal.obj
 0002:00000860       mStatusString              000000000000e060     BasePrintLib:PrintLibInternal.obj
 0002:00000998       ??_C@_0O@MLOLIMFM@?$DMnull?5string?$DO?$AA@ 000000000000e198     BasePrintLib:PrintLibInternal.obj
 0002:000009a8       ??_C@_0M@BJJDNPHK@?$DMnull?5guid?$DO?$AA@ 000000000000e1a8     BasePrintLib:PrintLibInternal.obj
 0002:000009b8       ??_C@_0DB@PMLHLBMO@?$CF08x?9?$CF04x?9?$CF04x?9?$CF02x?$CF02x?9?$CF02x?$CF02x@ 000000000000e1b8     BasePrintLib:PrintLibInternal.obj
 0002:000009f0       ??_C@_0M@LHGBCIKM@?$DMnull?5time?$DO?$AA@ 000000000000e1f0     BasePrintLib:PrintLibInternal.obj
 0002:00000a00       ??_C@_0BK@FCPKCIDD@?$CF02d?1?$CF02d?1?$CF04d?5?5?$CF02d?3?$CF02d?$AA@ 000000000000e200     BasePrintLib:PrintLibInternal.obj
 0002:00000a1c       ??_C@_04JIMNDDED@?$CF08X?$AA@ 000000000000e21c     BasePrintLib:PrintLibInternal.obj
 0002:00000a24       ??_C@_02PCIJFNDE@?$AN?6?$AA@ 000000000000e224     BasePrintLib:PrintLibInternal.obj
 0002:00000a28       ??_C@_01LIIJDEN@?$AN?$AA@  000000000000e228     BasePrintLib:PrintLibInternal.obj
 0002:00000a2c       mUefiDevicePathLibEndDevicePath 000000000000e22c     UefiDevicePathLib:DevicePathUtilities.obj
 0002:00000a30       ??_C@_17LGKOMLJ@?$AA?4?$AA?4?$AA?4?$AA?$AA@ 000000000000e230     UefiLib:Console.obj
 0002:00000a38       ??_C@_1M@DPLGJLCD@?$AAG?$AAU?$AAI?$AAD?$AA?$DN?$AA?$AA@ 000000000000e238     UefiHiiLib:HiiLib.obj
 0002:00000a48       ??_C@_1O@FMIENBLJ@?$AA?$CG?$AAN?$AAA?$AAM?$AAE?$AA?$DN?$AA?$AA@ 000000000000e248     UefiHiiLib:HiiLib.obj
 0002:00000a58       ??_C@_1O@GGMHNGIF@?$AA?$CG?$AAP?$AAA?$AAT?$AAH?$AA?$DN?$AA?$AA@ 000000000000e258     UefiHiiLib:HiiLib.obj
 0002:00000a80       mIpSec2Installed           000000000000e280     Ip4Dxe:Ip4Driver.obj
 0002:00000a88       mIpSec                     000000000000e288     Ip4Dxe:Ip4Impl.obj
 0002:00000a90       gImageHandle               000000000000e290     UefiBootServicesTableLib:UefiBootServicesTableLib.obj
 0002:00000a98       gST                        000000000000e298     UefiBootServicesTableLib:UefiBootServicesTableLib.obj
 0002:00000aa0       gBS                        000000000000e2a0     UefiBootServicesTableLib:UefiBootServicesTableLib.obj
 0002:00000aa8       gRT                        000000000000e2a8     UefiRuntimeServicesTableLib:UefiRuntimeServicesTableLib.obj
 0002:00000ab0       gHiiFont                   000000000000e2b0     UefiHiiServicesLib:UefiHiiServicesLib.obj
 0002:00000ab8       gHiiString                 000000000000e2b8     UefiHiiServicesLib:UefiHiiServicesLib.obj
 0002:00000ac0       gHiiImage                  000000000000e2c0     UefiHiiServicesLib:UefiHiiServicesLib.obj
 0002:00000ac8       gHiiDatabase               000000000000e2c8     UefiHiiServicesLib:UefiHiiServicesLib.obj
 0002:00000ad0       gHiiConfigRouting          000000000000e2d0     UefiHiiServicesLib:UefiHiiServicesLib.obj
 0002:00000ad8       mUefiFormBrowser2          000000000000e2d8     UefiHiiLib:HiiLib.obj
 0002:00000ae8       gIp4ControllerNameTable    000000000000e2e8     Ip4Dxe:ComponentName.obj
 0002:00000af0       mDpc                       000000000000e2f0     <common>
 0002:00000af8       mIp4Id                     000000000000e2f8     <common>
 0002:00000b00       mZeroMacAddress            000000000000e300     <common>

 entry point at        0001:0000018c

 Static symbols

