 CryptoDXE

 Timestamp is 6448e7f2 (Wed Apr 26 16:59:30 2023)

 Preferred load address is 0000000000000000

 Start         Length     Name                   Class
 0001:00000000 0000c502H .text                   CODE
 0002:00000000 000006d0H .data                   DATA
 0002:000006d0 00000842H .rdata                  DATA
 0002:00000f20 00001a20H .bss                    DATA
 0003:00000000 00000510H .pdata                  DATA
 0004:00000000 00000574H .xdata                  DATA

  Address         Publics by Value              Rva+Base               Lib:Object

 0000:00000000       __ImageBase                0000000000000000     <linker-defined>
 0001:00000000       _ModuleEntryPoint          0000000000001000 f   UefiDriverEntryPoint:DriverEntryPoint.obj
 0001:0000004c       ProcessLibraryConstructorList 000000000000104c f   CryptoDXE:AutoGen.obj
 0001:000001a0       ProcessLibraryDestructorList 00000000000011a0 f   CryptoDXE:AutoGen.obj
 0001:000001f8       ProcessModuleEntryPointList 00000000000011f8 f   CryptoDXE:AutoGen.obj
 0001:000002e4       DxeHash                    00000000000012e4 f   CryptoDXE:CryptoDxe.obj
 0001:00000454       DxePkcs7Verify             0000000000001454 f   CryptoDXE:CryptoDxe.obj
 0001:00000dd8       DxePkcs1Verify             0000000000001dd8 f   CryptoDXE:CryptoDxe.obj
 0001:00000f60       CryptoGetFwKey             0000000000001f60 f   CryptoDXE:CryptoDxe.obj
 0001:00001014       DxeGetKey                  0000000000002014 f   CryptoDXE:CryptoDxe.obj
 0001:000010e4       DxeVerifyKey               00000000000020e4 f   CryptoDXE:CryptoDxe.obj
 0001:000012e4       AmiDebugLibExitBsNotifyEvent 00000000000022e4 f   RuntimeAmiDebugLib:RuntimeAmiDebugLib.obj
 0001:000012f0       AmiDebugLibVirtualNotifyEvent 00000000000022f0 f   RuntimeAmiDebugLib:RuntimeAmiDebugLib.obj
 0001:00001318       MemCmp                     0000000000002318 f   AmiDxeLib:Memory.obj
 0001:00001390       GetEfiConfigurationTable   0000000000002390 f   AmiDxeLib:EfiLib.obj
 0001:000013e0       RuntimeCryptLibAddressChangeEvent 00000000000023e0 f   RuntimeAmiCryptLib:CryptLibInit.obj
 0001:00001438       Pkcs7_Microsoft_oid        0000000000002438 f   RuntimeAmiCryptLib:Pkcs7.obj
 0001:00001468       Pkcs7_store_octet_string   0000000000002468 f   RuntimeAmiCryptLib:Pkcs7.obj
 0001:0000151c       Pkcs7_parse_IssuerSerial_sequence 000000000000251c f   RuntimeAmiCryptLib:Pkcs7.obj
 0001:000015c4       Pkcs7_signer_info_common_hdr_parse 00000000000025c4 f   RuntimeAmiCryptLib:Pkcs7.obj
 0001:00001d00       Pkcs7_TimeStamp_parse      0000000000002d00 f   RuntimeAmiCryptLib:Pkcs7.obj
 0001:00001e5c       Pkcs7_parse_Authenticode_contentInfo 0000000000002e5c f   RuntimeAmiCryptLib:Pkcs7.obj
 0001:00001ff0       Pkcs7_parse_contentInfo_tstInfo 0000000000002ff0 f   RuntimeAmiCryptLib:Pkcs7.obj
 0001:000024a8       Pkcs7_parse_Authenticode_certificate 00000000000034a8 f   RuntimeAmiCryptLib:Pkcs7.obj
 0001:00002a34       Pkcs7_return_signing_cerificate 0000000000003a34 f   RuntimeAmiCryptLib:Pkcs7.obj
 0001:00002a90       Pkcs7_x509_certificate_chain_validate_with_timestamp 0000000000003a90 f   RuntimeAmiCryptLib:Pkcs7.obj
 0001:00002dd8       Pkcs7_decrypt_validate_digest 0000000000003dd8 f   RuntimeAmiCryptLib:Pkcs7.obj
 0001:00002ffc       Pkcs7_certificate_validate_digest 0000000000003ffc f   RuntimeAmiCryptLib:Pkcs7.obj
 0001:00003200       Pkcs7_certificate_validate_timestamp_digest 0000000000004200 f   RuntimeAmiCryptLib:Pkcs7.obj
 0001:00003320       Pkcs7_x509_return_pubKey   0000000000004320 f   RuntimeAmiCryptLib:Pkcs7.obj
 0001:000033cc       Pkcs7_return_cerificate_ptr 00000000000043cc f   RuntimeAmiCryptLib:Pkcs7.obj
 0001:000034e4       Pkcs7_x509_get_certificates_List 00000000000044e4 f   RuntimeAmiCryptLib:Pkcs7.obj
 0001:000037f0       x509_name_compare          00000000000047f0 f   RuntimeAmiCryptLib:x509v3.obj
 0001:0000389c       x509_parse_algorithm_identifier 000000000000489c f   RuntimeAmiCryptLib:x509v3.obj
 0001:00003a0c       x509_parse_name            0000000000004a0c f   RuntimeAmiCryptLib:x509v3.obj
 0001:00003ca0       x509_parse_time            0000000000004ca0 f   RuntimeAmiCryptLib:x509v3.obj
 0001:00004528       x509_pkcs_oid              0000000000005528 f   RuntimeAmiCryptLib:x509v3.obj
 0001:00004560       x509_sha1_oid              0000000000005560 f   RuntimeAmiCryptLib:x509v3.obj
 0001:00004594       x509_sha256_oid            0000000000005594 f   RuntimeAmiCryptLib:x509v3.obj
 0001:000045dc       x509_sha384_oid            00000000000055dc f   RuntimeAmiCryptLib:x509v3.obj
 0001:00004624       x509_sha512_oid            0000000000005624 f   RuntimeAmiCryptLib:x509v3.obj
 0001:0000466c       x509_certificate_parse     000000000000566c f   RuntimeAmiCryptLib:x509v3.obj
 0001:0000481c       x509_certificate_check_signature 000000000000581c f   RuntimeAmiCryptLib:x509v3.obj
 0001:00004b98       x509_valid_issuer          0000000000005b98 f   RuntimeAmiCryptLib:x509v3.obj
 0001:00004bd0       x509_certificate_chain_validate 0000000000005bd0 f   RuntimeAmiCryptLib:x509v3.obj
 0001:00004cf0       crypto_import_rsa2048_public_key 0000000000005cf0 f   RuntimeAmiCryptLib:RSAKeyImport.obj
 0001:00004ddc       crypto_public_key_import   0000000000005ddc f   RuntimeAmiCryptLib:RSAKeyImport.obj
 0001:00004ea0       crypto_public_key_decrypt_pkcs1 0000000000005ea0 f   RuntimeAmiCryptLib:RSAKeyImport.obj
 0001:000051d4       sha512_process             00000000000061d4 f   RuntimeAmiCryptLib:sha512.obj
 0001:000052b4       sha512_done                00000000000062b4 f   RuntimeAmiCryptLib:sha512.obj
 0001:000053dc       sha512_vector              00000000000063dc f   RuntimeAmiCryptLib:sha512.obj
 0001:000054cc       amicrypt_malloc            00000000000064cc f   RuntimeAmiCryptLib:Memalloc.obj
 0001:000055ac       amicrypt_free              00000000000065ac f   RuntimeAmiCryptLib:Memalloc.obj
 0001:00005638       ResetCRmm                  0000000000006638 f   RuntimeAmiCryptLib:Memalloc.obj
 0001:00005684       sha1_vector                0000000000006684 f   RuntimeAmiCryptLib:sha1.obj
 0001:00006b40       SHA1Update                 0000000000007b40 f   RuntimeAmiCryptLib:sha1.obj
 0001:00006c70       crypto_rsa_exptmod         0000000000007c70 f   RuntimeAmiCryptLib:rsa.obj
 0001:00006e28       crypto_rsa_free            0000000000007e28 f   RuntimeAmiCryptLib:rsa.obj
 0001:00006e90       sha384_vector              0000000000007e90 f   RuntimeAmiCryptLib:sha384.obj
 0001:00006fb8       sha256_vector              0000000000007fb8 f   RuntimeAmiCryptLib:sha256.obj
 0001:00007458       pkcs_1_mgf1                0000000000008458 f   RuntimeAmiCryptLib:Pkcs1_sigDecode.obj
 0001:00007554       pkcs_1_pss_decode          0000000000008554 f   RuntimeAmiCryptLib:Pkcs1_sigDecode.obj
 0001:000077c8       os_mktime                  00000000000087c8 f   RuntimeAmiCryptLib:TimeWrapper.obj
 0001:00007938       os_get_time                0000000000008938 f   RuntimeAmiCryptLib:TimeWrapper.obj
 0001:000079b8       _strdup                    00000000000089b8 f   RuntimeAmiCryptLib:Scrtlib.obj
 0001:00007a1c       AtoiEX                     0000000000008a1c f   RuntimeAmiCryptLib:Scrtlib.obj
 0001:00007aa4       Snprintf                   0000000000008aa4 f   RuntimeAmiCryptLib:Scrtlib.obj
 0001:00007b30       asn1_get_next              0000000000008b30 f   RuntimeAmiCryptLib:asn1.obj
 0001:00007c14       asn1_get_oid               0000000000008c14 f   RuntimeAmiCryptLib:asn1.obj
 0001:00007d1c       asn1_bit_string_to_long    0000000000008d1c f   RuntimeAmiCryptLib:asn1.obj
 0001:00007de0       md5_vector                 0000000000008de0 f   RuntimeAmiCryptLib:md5.obj
 0001:0000a7f0       fast_mp_montgomery_reduce  000000000000b7f0 f   RuntimeAmiCryptLib:bignum.obj
 0001:0000b308       bignum_init                000000000000c308 f   RuntimeAmiCryptLib:bignum.obj
 0001:0000b340       bignum_set_unsigned_bin    000000000000c340 f   RuntimeAmiCryptLib:bignum.obj
 0001:0000b3b8       AsciiStriCmp               000000000000c3b8 f   BaseLib:String.obj
 0001:0000b408       BasePrintLibFillBuffer     000000000000c408 f   BasePrintLib:PrintLibInternal.obj
 0001:0000b43c       BasePrintLibSPrintMarker   000000000000c43c f   BasePrintLib:PrintLibInternal.obj
 0001:0000c2a8       BasePrintLibSPrint         000000000000d2a8 f   BasePrintLib:PrintLibInternal.obj
 0001:0000c2d0       CPULib_CpuID               000000000000d2d0 f   AmiDxeLib:CpuLib_CpuId.obj
 0001:0000c310       memset                     000000000000d310     AmiDxeLib:MemSet.obj
 0001:0000c31e       MemSetAsm                  000000000000d31e f   AmiDxeLib:MemSet.obj
 0001:0000c370       MemCpyAsm                  000000000000d370 f   AmiDxeLib:MemCpy.obj
 0001:0000c370       memcpy                     000000000000d370     AmiDxeLib:MemCpy.obj
 0001:0000c420       GetCpuTimer                000000000000d420 f   AmiDxeLib:GetCpuTimer.obj
 0001:0000c430       InternalMemSetMem          000000000000d430     BaseMemoryLibRepStr:SetMem.obj
 0001:0000c450       InternalMemCopyMem         000000000000d450     BaseMemoryLibRepStr:CopyMem.obj
 0001:0000c490       InternalMemZeroMem         000000000000d490     BaseMemoryLibRepStr:ZeroMem.obj
 0001:0000c4b0       InternalMemCompareMem      000000000000d4b0     BaseMemoryLibRepStr:CompareMem.obj
 0001:0000c4d0       InternalMemSetMem32        000000000000d4d0     BaseMemoryLibRepStr:SetMem32.obj
 0001:0000c4f0       InternalMemSetMem64        000000000000d4f0     BaseMemoryLibRepStr:SetMem64.obj
 0002:00000000       gEfiCertX509Guid           000000000000e000     CryptoDXE:AutoGen.obj
 0002:00000010       gEfiCertSha256Guid         000000000000e010     CryptoDXE:AutoGen.obj
 0002:00000020       gEfiCertRsa2048Guid        000000000000e020     CryptoDXE:AutoGen.obj
 0002:00000030       gEfiHashAlgorithmSha1Guid  000000000000e030     CryptoDXE:AutoGen.obj
 0002:00000040       gEfiHashAlgorithmSha256Guid 000000000000e040     CryptoDXE:AutoGen.obj
 0002:00000050       gEfiHashAlgorithmSha384Guid 000000000000e050     CryptoDXE:AutoGen.obj
 0002:00000060       gEfiHashAlgorithmSha512Guid 000000000000e060     CryptoDXE:AutoGen.obj
 0002:00000070       gEfiHashAlgorithmSha1NoPadGuid 000000000000e070     CryptoDXE:AutoGen.obj
 0002:00000080       gEfiHashAlgorithmSha256NoPadGuid 000000000000e080     CryptoDXE:AutoGen.obj
 0002:00000090       gAmiDigitalSignatureProtocolGuid 000000000000e090     CryptoDXE:AutoGen.obj
 0002:000000a8       ghLen                      000000000000e0a8     RuntimeAmiCryptLib:Pkcs1_sigDecode.obj
 0002:00000128       AmiErrorStatus             000000000000e128     AmiDxeLib:StdLibC.obj
 0002:00000160       EfiErrorStatus             000000000000e160     AmiDxeLib:StdLibC.obj
 0002:000004a0       PiErrorStatus              000000000000e4a0     AmiDxeLib:StdLibC.obj
 0002:000004f0       EfiWarningStatus           000000000000e4f0     AmiDxeLib:StdLibC.obj
 0002:00000560       PiWarningStatus            000000000000e560     AmiDxeLib:StdLibC.obj
 0002:000005a8       EfiUnknown                 000000000000e5a8     AmiDxeLib:StdLibC.obj
 0002:00000698       mAmiSig                    000000000000e698     CryptoDXE:CryptoDxe.obj
 0002:00000a50       KeyE                       000000000000ea50     CryptoDXE:CryptoDxe.obj
 0002:00000a58       LenE                       000000000000ea58     CryptoDXE:CryptoDxe.obj
 0002:00000a60       saltlen                    000000000000ea60     CryptoDXE:CryptoDxe.obj
 0002:00000a64       _gUefiDriverRevision       000000000000ea64     CryptoDXE:AutoGen.obj
 0002:00000a68       ??_C@_0DB@PMLHLBMO@?$CF08x?9?$CF04x?9?$CF04x?9?$CF02x?$CF02x?9?$CF02x?$CF02x@ 000000000000ea68     AmiDxeLib:StdLibC.obj
 0002:00000a9c       ??_C@_02DKCKIIND@?$CFs?$AA@ 000000000000ea9c     AmiDxeLib:StdLibC.obj
 0002:00000aa0       ??_C@_01IFKFHFEL@?$IA?$AA@ 000000000000eaa0     RuntimeAmiCryptLib:sha1.obj
 0002:00000aa4       ??_C@_01LOCGONAA@?$AA?$AA@ 000000000000eaa4     RuntimeAmiCryptLib:sha1.obj
 0002:00000aa8       ??_C@_0BB@MFGDFIJM@Compromised?5Data?$AA@ 000000000000eaa8     BasePrintLib:PrintLibInternal.obj
 0002:00000ac0       ??_C@_0BB@KFJAMCOC@Invalid?5Language?$AA@ 000000000000eac0     BasePrintLib:PrintLibInternal.obj
 0002:00000ad8       ??_C@_0M@FKGOBENP@End?5of?5File?$AA@ 000000000000ead8     BasePrintLib:PrintLibInternal.obj
 0002:00000ae8       ??_C@_0O@GLPDOMCP@Reserved?5?$CI30?$CJ?$AA@ 000000000000eae8     BasePrintLib:PrintLibInternal.obj
 0002:00000af8       ??_C@_0O@NMJOLAMF@Reserved?5?$CI29?$CJ?$AA@ 000000000000eaf8     BasePrintLib:PrintLibInternal.obj
 0002:00000b08       ??_C@_0N@JEJDHPO@End?5of?5Media?$AA@ 000000000000eb08     BasePrintLib:PrintLibInternal.obj
 0002:00000b18       ??_C@_09BOMAGJEG@CRC?5Error?$AA@ 000000000000eb18     BasePrintLib:PrintLibInternal.obj
 0002:00000b28       ??_C@_0BD@KHMPCIOG@Security?5Violation?$AA@ 000000000000eb28     BasePrintLib:PrintLibInternal.obj
 0002:00000b40       ??_C@_0BF@EHOBGFMI@Incompatible?5Version?$AA@ 000000000000eb40     BasePrintLib:PrintLibInternal.obj
 0002:00000b58       ??_C@_0P@NCJHBCLM@Protocol?5Error?$AA@ 000000000000eb58     BasePrintLib:PrintLibInternal.obj
 0002:00000b68       ??_C@_0L@DJKNJKHM@TFTP?5Error?$AA@ 000000000000eb68     BasePrintLib:PrintLibInternal.obj
 0002:00000b78       ??_C@_0L@LKIFCMNO@ICMP?5Error?$AA@ 000000000000eb78     BasePrintLib:PrintLibInternal.obj
 0002:00000b88       ??_C@_07LCKDCBKK@Aborted?$AA@ 000000000000eb88     BasePrintLib:PrintLibInternal.obj
 0002:00000b90       ??_C@_0BA@IGIBFFPH@Already?5started?$AA@ 000000000000eb90     BasePrintLib:PrintLibInternal.obj
 0002:00000ba0       ??_C@_0M@DCJFAFHJ@Not?5started?$AA@ 000000000000eba0     BasePrintLib:PrintLibInternal.obj
 0002:00000bb0       ??_C@_08PAFJCNGP@Time?5out?$AA@ 000000000000ebb0     BasePrintLib:PrintLibInternal.obj
 0002:00000bc0       ??_C@_0L@IFPBNFC@No?5mapping?$AA@ 000000000000ebc0     BasePrintLib:PrintLibInternal.obj
 0002:00000bd0       ??_C@_0M@ENKCBFEP@No?5Response?$AA@ 000000000000ebd0     BasePrintLib:PrintLibInternal.obj
 0002:00000be0       ??_C@_0O@NFHOBIDO@Access?5Denied?$AA@ 000000000000ebe0     BasePrintLib:PrintLibInternal.obj
 0002:00000bf0       ??_C@_09CFCBFJND@Not?5Found?$AA@ 000000000000ebf0     BasePrintLib:PrintLibInternal.obj
 0002:00000c00       ??_C@_0O@JNCJKCCD@Media?5changed?$AA@ 000000000000ec00     BasePrintLib:PrintLibInternal.obj
 0002:00000c10       ??_C@_08KEGAJDNN@No?5Media?$AA@ 000000000000ec10     BasePrintLib:PrintLibInternal.obj
 0002:00000c20       ??_C@_0M@HDLEPOFA@Volume?5Full?$AA@ 000000000000ec20     BasePrintLib:PrintLibInternal.obj
 0002:00000c30       ??_C@_0P@EIOJGIF@Volume?5Corrupt?$AA@ 000000000000ec30     BasePrintLib:PrintLibInternal.obj
 0002:00000c40       ??_C@_0BB@GOILNEAA@Out?5of?5Resources?$AA@ 000000000000ec40     BasePrintLib:PrintLibInternal.obj
 0002:00000c58       ??_C@_0BA@LNEDDFNB@Write?5Protected?$AA@ 000000000000ec58     BasePrintLib:PrintLibInternal.obj
 0002:00000c68       ??_C@_0N@HHEABDHO@Device?5Error?$AA@ 000000000000ec68     BasePrintLib:PrintLibInternal.obj
 0002:00000c78       ??_C@_09NKFGCIPN@Not?5Ready?$AA@ 000000000000ec78     BasePrintLib:PrintLibInternal.obj
 0002:00000c88       ??_C@_0BB@EGELJFOB@Buffer?5Too?5Small?$AA@ 000000000000ec88     BasePrintLib:PrintLibInternal.obj
 0002:00000ca0       ??_C@_0BA@FLNMPMCF@Bad?5Buffer?5Size?$AA@ 000000000000eca0     BasePrintLib:PrintLibInternal.obj
 0002:00000cb0       ??_C@_0M@BEECMOIL@Unsupported?$AA@ 000000000000ecb0     BasePrintLib:PrintLibInternal.obj
 0002:00000cc0       ??_C@_0BC@HOFHKGJN@Invalid?5Parameter?$AA@ 000000000000ecc0     BasePrintLib:PrintLibInternal.obj
 0002:00000cd8       ??_C@_0L@PLPBEPPC@Load?5Error?$AA@ 000000000000ecd8     BasePrintLib:PrintLibInternal.obj
 0002:00000ce8       ??_C@_0BD@IFJNJCCO@Warning?5Stale?5Data?$AA@ 000000000000ece8     BasePrintLib:PrintLibInternal.obj
 0002:00000d00       ??_C@_0BJ@ODIPDGHB@Warning?5Buffer?5Too?5Small?$AA@ 000000000000ed00     BasePrintLib:PrintLibInternal.obj
 0002:00000d20       ??_C@_0BG@ECIJMOED@Warning?5Write?5Failure?$AA@ 000000000000ed20     BasePrintLib:PrintLibInternal.obj
 0002:00000d38       ??_C@_0BH@GKKCJEPJ@Warning?5Delete?5Failure?$AA@ 000000000000ed38     BasePrintLib:PrintLibInternal.obj
 0002:00000d50       ??_C@_0BG@CFJMNNJK@Warning?5Unknown?5Glyph?$AA@ 000000000000ed50     BasePrintLib:PrintLibInternal.obj
 0002:00000d68       ??_C@_07PBILKAFL@Success?$AA@ 000000000000ed68     BasePrintLib:PrintLibInternal.obj
 0002:00000d70       mHexStr                    000000000000ed70     BasePrintLib:PrintLibInternal.obj
 0002:00000d80       mStatusString              000000000000ed80     BasePrintLib:PrintLibInternal.obj
 0002:00000eb8       ??_C@_0O@MLOLIMFM@?$DMnull?5string?$DO?$AA@ 000000000000eeb8     BasePrintLib:PrintLibInternal.obj
 0002:00000ec8       ??_C@_0M@BJJDNPHK@?$DMnull?5guid?$DO?$AA@ 000000000000eec8     BasePrintLib:PrintLibInternal.obj
 0002:00000ed8       ??_C@_0M@LHGBCIKM@?$DMnull?5time?$DO?$AA@ 000000000000eed8     BasePrintLib:PrintLibInternal.obj
 0002:00000ee8       ??_C@_0BK@FCPKCIDD@?$CF02d?1?$CF02d?1?$CF04d?5?5?$CF02d?3?$CF02d?$AA@ 000000000000eee8     BasePrintLib:PrintLibInternal.obj
 0002:00000f04       ??_C@_04JIMNDDED@?$CF08X?$AA@ 000000000000ef04     BasePrintLib:PrintLibInternal.obj
 0002:00000f0c       ??_C@_02PCIJFNDE@?$AN?6?$AA@ 000000000000ef0c     BasePrintLib:PrintLibInternal.obj
 0002:00000f10       ??_C@_01LIIJDEN@?$AN?$AA@  000000000000ef10     BasePrintLib:PrintLibInternal.obj
 0002:0000104b       crypto_trace_level         000000000000f04b     RuntimeAmiCryptLib:wpa_debug.obj
 0002:00001050       gImageHandle               000000000000f050     UefiBootServicesTableLib:UefiBootServicesTableLib.obj
 0002:00001058       gST                        000000000000f058     UefiBootServicesTableLib:UefiBootServicesTableLib.obj
 0002:00001060       gBS                        000000000000f060     UefiBootServicesTableLib:UefiBootServicesTableLib.obj
 0002:00001068       gRT                        000000000000f068     UefiRuntimeServicesTableLib:UefiRuntimeServicesTableLib.obj
 0002:000010d8       mVirtualAddressChangeEvent 000000000000f0d8     RuntimeAmiCryptLib:CryptLibInit.obj
 0002:00001120       pST                        000000000000f120     AmiDxeLib:EfiLib.obj
 0002:00001128       pBS                        000000000000f128     AmiDxeLib:EfiLib.obj
 0002:00001130       pRS                        000000000000f130     AmiDxeLib:EfiLib.obj
 0002:00001138       TheImageHandle             000000000000f138     AmiDxeLib:EfiLib.obj
 0002:00001140       M                          000000000000f140     <common>

 entry point at        0001:00000000

 Static symbols

 0001:000036d4       x509_str_strip_whitespace  00000000000046d4 f    CIL library: CIL module
 0001:00003738       x509_str_compare           0000000000004738 f    CIL library: CIL module
 0001:000038e8       x509_parse_public_key      00000000000048e8 f    CIL library: CIL module
 0001:00003e0c       x509_parse_validity        0000000000004e0c f    CIL library: CIL module
 0001:00003f00       x509_parse_ext_basic_constraints 0000000000004f00 f    CIL library: CIL module
 0001:00004014       x509_parse_extensions      0000000000005014 f    CIL library: CIL module
 0001:00004220       x509_parse_tbs_certificate 0000000000005220 f    CIL library: CIL module
 0001:00004fb0       sha512_compress            0000000000005fb0 f    CIL library: CIL module
 0001:0000581c       SHA1Transform              000000000000681c f    CIL library: CIL module
 0001:00006c18       crypto_rsa_parse_integer   0000000000007c18 f    CIL library: CIL module
 0001:00007280       sha256_compress            0000000000008280 f    CIL library: CIL module
 0001:00007f58       MD5Transform               0000000000008f58 f    CIL library: CIL module
 0001:00008698       s_mp_add                   0000000000009698 f    CIL library: CIL module
 0001:000087a8       s_mp_sub                   00000000000097a8 f    CIL library: CIL module
 0001:00008890       mp_init                    0000000000009890 f    CIL library: CIL module
 0001:000088e0       mp_clear                   00000000000098e0 f    CIL library: CIL module
 0001:00008924       mp_add                     0000000000009924 f    CIL library: CIL module
 0001:00008994       mp_sub                     0000000000009994 f    CIL library: CIL module
 0001:000089fc       mp_mul                     00000000000099fc f    CIL library: CIL module
 0001:00008a44       mp_mulmod                  0000000000009a44 f    CIL library: CIL module
 0001:00008ac4       mp_mod                     0000000000009ac4 f    CIL library: CIL module
 0001:00008bbc       mp_cmp_mag                 0000000000009bbc f    CIL library: CIL module
 0001:00008c04       mp_to_unsigned_bin         0000000000009c04 f    CIL library: CIL module
 0001:00008ce4       mp_div_2d                  0000000000009ce4 f    CIL library: CIL module
 0001:00008ec0       mp_zero                    0000000000009ec0 f    CIL library: CIL module
 0001:00008ee8       mp_copy                    0000000000009ee8 f    CIL library: CIL module
 0001:00008f58       mp_rshd                    0000000000009f58 f    CIL library: CIL module
 0001:00008fb4       mp_clamp                   0000000000009fb4 f    CIL library: CIL module
 0001:00008fe0       mp_grow                    0000000000009fe0 f    CIL library: CIL module
 0001:000090c8       mp_mul_2d                  000000000000a0c8 f    CIL library: CIL module
 0001:000091c0       mp_lshd                    000000000000a1c0 f    CIL library: CIL module
 0001:00009248       mp_count_bits              000000000000a248 f    CIL library: CIL module
 0001:00009274       mp_mod_2d                  000000000000a274 f    CIL library: CIL module
 0001:00009344       mp_div                     000000000000a344 f    CIL library: CIL module
 0001:000099a4       s_mp_exptmod               000000000000a9a4 f    CIL library: CIL module
 0001:00009f40       mp_sqr                     000000000000af40 f    CIL library: CIL module
 0001:00009f7c       mp_2expt                   000000000000af7c f    CIL library: CIL module
 0001:00009ff0       mp_reduce                  000000000000aff0 f    CIL library: CIL module
 0001:0000a18c       s_mp_mul_digs              000000000000b18c f    CIL library: CIL module
 0001:0000a328       fast_s_mp_mul_digs         000000000000b328 f    CIL library: CIL module
 0001:0000a47c       mp_init_size               000000000000b47c f    CIL library: CIL module
 0001:0000a4ec       s_mp_sqr                   000000000000b4ec f    CIL library: CIL module
 0001:0000a690       s_mp_mul_high_digs         000000000000b690 f    CIL library: CIL module
 0001:0000a9b8       mp_montgomery_calc_normalization 000000000000b9b8 f    CIL library: CIL module
 0001:0000ab00       mp_exptmod_fast            000000000000bb00 f    CIL library: CIL module
 0001:0000b0cc       fast_s_mp_sqr              000000000000c0cc f    CIL library: CIL module
 0001:0000b24c       mp_mul_d                   000000000000c24c f    CIL library: CIL module
