 DevicePathDxe

 Timestamp is 6448e7ed (Wed Apr 26 16:59:25 2023)

 Preferred load address is 0000000000000000

 Start         Length     Name                   Class
 0001:00000000 000069edH .text                   CODE
 0002:00000000 00000630H .data                   DATA
 0002:00000630 00001f7aH .rdata                  DATA
 0002:000025b0 00000018H .bss                    DATA
 0003:00000000 00000600H .pdata                  DATA
 0004:00000000 00000340H .xdata                  DATA

  Address         Publics by Value              Rva+Base               Lib:Object

 0000:00000000       __ImageBase                0000000000000000     <linker-defined>
 0001:00000000       _ModuleEntryPoint          00000000000002a0 f   UefiDriverEntryPoint:DriverEntryPoint.obj
 0001:00000070       GetDevicePathSize          0000000000000310 f   UefiDevicePathLib:UefiDevicePathLib.obj
 0001:000000b8       DuplicateDevicePath        0000000000000358 f   UefiDevicePathLib:UefiDevicePathLib.obj
 0001:000000e0       AppendDevicePath           0000000000000380 f   UefiDevicePathLib:UefiDevicePathLib.obj
 0001:000001c4       AppendDevicePathNode       0000000000000464 f   UefiDevicePathLib:UefiDevicePathLib.obj
 0001:00000290       AppendDevicePathInstance   0000000000000530 f   UefiDevicePathLib:UefiDevicePathLib.obj
 0001:00000394       GetNextDevicePathInstance  0000000000000634 f   UefiDevicePathLib:UefiDevicePathLib.obj
 0001:00000438       CreateDeviceNode           00000000000006d8 f   UefiDevicePathLib:UefiDevicePathLib.obj
 0001:000004bc       IsDevicePathMultiInstance  000000000000075c f   UefiDevicePathLib:UefiDevicePathLib.obj
 0001:00000500       ConvertDeviceNodeToText    00000000000007a0 f   UefiDevicePathLib:UefiDevicePathLib.obj
 0001:000005a8       ConvertDevicePathToText    0000000000000848 f   UefiDevicePathLib:UefiDevicePathLib.obj
 0001:00000704       ConvertTextToDeviceNode    00000000000009a4 f   UefiDevicePathLib:UefiDevicePathLib.obj
 0001:0000070c       ConvertTextToDevicePath    00000000000009ac f   UefiDevicePathLib:UefiDevicePathLib.obj
 0001:00000714       IsDevicePathValid          00000000000009b4 f   UefiDevicePathLib:DevicePathUtilities.obj
 0001:00000740       GetNextParamStr            00000000000009e0 f   UefiDevicePathLib:DevicePathFromText.obj
 0001:00000774       Strtoi                     0000000000000a14 f   UefiDevicePathLib:DevicePathFromText.obj
 0001:00000814       Strtoi64                   0000000000000ab4 f   UefiDevicePathLib:DevicePathFromText.obj
 0001:000008b8       StrToBuf                   0000000000000b58 f   UefiDevicePathLib:DevicePathFromText.obj
 0001:00000948       StrToGuid                  0000000000000be8 f   UefiDevicePathLib:DevicePathFromText.obj
 0001:00000a2c       StrToIPv4Addr              0000000000000ccc f   UefiDevicePathLib:DevicePathFromText.obj
 0001:00000a8c       StrToIPv6Addr              0000000000000d2c f   UefiDevicePathLib:DevicePathFromText.obj
 0001:00000af8       DevPathFromTextGenericPath 0000000000000d98 f   UefiDevicePathLib:DevicePathFromText.obj
 0001:00000b94       DevPathFromTextPath        0000000000000e34 f   UefiDevicePathLib:DevicePathFromText.obj
 0001:00000bc0       DevPathFromTextHardwarePath 0000000000000e60 f   UefiDevicePathLib:DevicePathFromText.obj
 0001:00000bcc       DevPathFromTextPci         0000000000000e6c f   UefiDevicePathLib:DevicePathFromText.obj
 0001:00000c30       DevPathFromTextPcCard      0000000000000ed0 f   UefiDevicePathLib:DevicePathFromText.obj
 0001:00000c70       DevPathFromTextMemoryMapped 0000000000000f10 f   UefiDevicePathLib:DevicePathFromText.obj
 0001:00000cf4       ConvertFromTextVendor      0000000000000f94 f   UefiDevicePathLib:DevicePathFromText.obj
 0001:00000d90       DevPathFromTextVenHw       0000000000001030 f   UefiDevicePathLib:DevicePathFromText.obj
 0001:00000d9c       DevPathFromTextCtrl        000000000000103c f   UefiDevicePathLib:DevicePathFromText.obj
 0001:00000ddc       DevPathFromTextBmc         000000000000107c f   UefiDevicePathLib:DevicePathFromText.obj
 0001:00000e40       DevPathFromTextAcpiPath    00000000000010e0 f   UefiDevicePathLib:DevicePathFromText.obj
 0001:00000e4c       DevPathFromTextAcpi        00000000000010ec f   UefiDevicePathLib:DevicePathFromText.obj
 0001:00000ed8       ConvertFromTextAcpi        0000000000001178 f   UefiDevicePathLib:DevicePathFromText.obj
 0001:00000f30       DevPathFromTextPciRoot     00000000000011d0 f   UefiDevicePathLib:DevicePathFromText.obj
 0001:00000f3c       DevPathFromTextPcieRoot    00000000000011dc f   UefiDevicePathLib:DevicePathFromText.obj
 0001:00000f48       DevPathFromTextFloppy      00000000000011e8 f   UefiDevicePathLib:DevicePathFromText.obj
 0001:00000f54       DevPathFromTextKeyboard    00000000000011f4 f   UefiDevicePathLib:DevicePathFromText.obj
 0001:00000f60       DevPathFromTextSerial      0000000000001200 f   UefiDevicePathLib:DevicePathFromText.obj
 0001:00000f6c       DevPathFromTextParallelPort 000000000000120c f   UefiDevicePathLib:DevicePathFromText.obj
 0001:00000f78       DevPathFromTextAcpiEx      0000000000001218 f   UefiDevicePathLib:DevicePathFromText.obj
 0001:00001134       DevPathFromTextAcpiExp     00000000000013d4 f   UefiDevicePathLib:DevicePathFromText.obj
 0001:00001248       DevPathFromTextAcpiAdr     00000000000014e8 f   UefiDevicePathLib:DevicePathFromText.obj
 0001:000012ec       DevPathFromTextMsg         000000000000158c f   UefiDevicePathLib:DevicePathFromText.obj
 0001:000012f8       DevPathFromTextAta         0000000000001598 f   UefiDevicePathLib:DevicePathFromText.obj
 0001:00001454       DevPathFromTextScsi        00000000000016f4 f   UefiDevicePathLib:DevicePathFromText.obj
 0001:000014b8       DevPathFromTextFibre       0000000000001758 f   UefiDevicePathLib:DevicePathFromText.obj
 0001:00001520       DevPathFromTextFibreEx     00000000000017c0 f   UefiDevicePathLib:DevicePathFromText.obj
 0001:00001634       DevPathFromText1394        00000000000018d4 f   UefiDevicePathLib:DevicePathFromText.obj
 0001:00001678       DevPathFromTextUsb         0000000000001918 f   UefiDevicePathLib:DevicePathFromText.obj
 0001:000016dc       DevPathFromTextI2O         000000000000197c f   UefiDevicePathLib:DevicePathFromText.obj
 0001:0000171c       DevPathFromTextInfiniband  00000000000019bc f   UefiDevicePathLib:DevicePathFromText.obj
 0001:00001800       DevPathFromTextVenMsg      0000000000001aa0 f   UefiDevicePathLib:DevicePathFromText.obj
 0001:0000180c       DevPathFromTextVenPcAnsi   0000000000001aac f   UefiDevicePathLib:DevicePathFromText.obj
 0001:0000183c       DevPathFromTextVenVt100    0000000000001adc f   UefiDevicePathLib:DevicePathFromText.obj
 0001:0000186c       DevPathFromTextVenVt100Plus 0000000000001b0c f   UefiDevicePathLib:DevicePathFromText.obj
 0001:0000189c       DevPathFromTextVenUtf8     0000000000001b3c f   UefiDevicePathLib:DevicePathFromText.obj
 0001:000018cc       DevPathFromTextUartFlowCtrl 0000000000001b6c f   UefiDevicePathLib:DevicePathFromText.obj
 0001:00001988       DevPathFromTextSAS         0000000000001c28 f   UefiDevicePathLib:DevicePathFromText.obj
 0001:00001c88       DevPathFromTextSasEx       0000000000001f28 f   UefiDevicePathLib:DevicePathFromText.obj
 0001:00002000       DevPathFromTextNVMe        00000000000022a0 f   UefiDevicePathLib:DevicePathFromText.obj
 0001:00002094       DevPathFromTextUfs         0000000000002334 f   UefiDevicePathLib:DevicePathFromText.obj
 0001:000020f8       DevPathFromTextSd          0000000000002398 f   UefiDevicePathLib:DevicePathFromText.obj
 0001:00002138       DevPathFromTextEmmc        00000000000023d8 f   UefiDevicePathLib:DevicePathFromText.obj
 0001:00002178       DevPathFromTextDebugPort   0000000000002418 f   UefiDevicePathLib:DevicePathFromText.obj
 0001:000021a8       DevPathFromTextMAC         0000000000002448 f   UefiDevicePathLib:DevicePathFromText.obj
 0001:00002218       NetworkProtocolFromText    00000000000024b8 f   UefiDevicePathLib:DevicePathFromText.obj
 0001:000022a8       DevPathFromTextIPv4        0000000000002548 f   UefiDevicePathLib:DevicePathFromText.obj
 0001:000023ec       DevPathFromTextIPv6        000000000000268c f   UefiDevicePathLib:DevicePathFromText.obj
 0001:00002548       DevPathFromTextUart        00000000000027e8 f   UefiDevicePathLib:DevicePathFromText.obj
 0001:00002790       ConvertFromTextUsbClass    0000000000002a30 f   UefiDevicePathLib:DevicePathFromText.obj
 0001:0000285c       DevPathFromTextUsbClass    0000000000002afc f   UefiDevicePathLib:DevicePathFromText.obj
 0001:0000287c       DevPathFromTextUsbAudio    0000000000002b1c f   UefiDevicePathLib:DevicePathFromText.obj
 0001:000028a0       DevPathFromTextUsbCDCControl 0000000000002b40 f   UefiDevicePathLib:DevicePathFromText.obj
 0001:000028c4       DevPathFromTextUsbHID      0000000000002b64 f   UefiDevicePathLib:DevicePathFromText.obj
 0001:000028e8       DevPathFromTextUsbImage    0000000000002b88 f   UefiDevicePathLib:DevicePathFromText.obj
 0001:0000290c       DevPathFromTextUsbPrinter  0000000000002bac f   UefiDevicePathLib:DevicePathFromText.obj
 0001:00002930       DevPathFromTextUsbMassStorage 0000000000002bd0 f   UefiDevicePathLib:DevicePathFromText.obj
 0001:00002954       DevPathFromTextUsbHub      0000000000002bf4 f   UefiDevicePathLib:DevicePathFromText.obj
 0001:00002978       DevPathFromTextUsbCDCData  0000000000002c18 f   UefiDevicePathLib:DevicePathFromText.obj
 0001:0000299c       DevPathFromTextUsbSmartCard 0000000000002c3c f   UefiDevicePathLib:DevicePathFromText.obj
 0001:000029c0       DevPathFromTextUsbVideo    0000000000002c60 f   UefiDevicePathLib:DevicePathFromText.obj
 0001:000029e4       DevPathFromTextUsbDiagnostic 0000000000002c84 f   UefiDevicePathLib:DevicePathFromText.obj
 0001:00002a08       DevPathFromTextUsbWireless 0000000000002ca8 f   UefiDevicePathLib:DevicePathFromText.obj
 0001:00002a2c       DevPathFromTextUsbDeviceFirmwareUpdate 0000000000002ccc f   UefiDevicePathLib:DevicePathFromText.obj
 0001:00002a54       DevPathFromTextUsbIrdaBridge 0000000000002cf4 f   UefiDevicePathLib:DevicePathFromText.obj
 0001:00002a7c       DevPathFromTextUsbTestAndMeasurement 0000000000002d1c f   UefiDevicePathLib:DevicePathFromText.obj
 0001:00002aa4       DevPathFromTextUsbWwid     0000000000002d44 f   UefiDevicePathLib:DevicePathFromText.obj
 0001:00002b9c       DevPathFromTextUnit        0000000000002e3c f   UefiDevicePathLib:DevicePathFromText.obj
 0001:00002bdc       DevPathFromTextiSCSI       0000000000002e7c f   UefiDevicePathLib:DevicePathFromText.obj
 0001:00002dcc       DevPathFromTextVlan        000000000000306c f   UefiDevicePathLib:DevicePathFromText.obj
 0001:00002e0c       DevPathFromTextBluetooth   00000000000030ac f   UefiDevicePathLib:DevicePathFromText.obj
 0001:00002fb4       DevPathFromTextWiFi        0000000000003254 f   UefiDevicePathLib:DevicePathFromText.obj
 0001:000030c4       DevPathFromTextUri         0000000000003364 f   UefiDevicePathLib:DevicePathFromText.obj
 0001:00003138       DevPathFromTextMediaPath   00000000000033d8 f   UefiDevicePathLib:DevicePathFromText.obj
 0001:00003144       DevPathFromTextHD          00000000000033e4 f   UefiDevicePathLib:DevicePathFromText.obj
 0001:000032c4       DevPathFromTextCDROM       0000000000003564 f   UefiDevicePathLib:DevicePathFromText.obj
 0001:00003348       DevPathFromTextVenMedia    00000000000035e8 f   UefiDevicePathLib:DevicePathFromText.obj
 0001:00003354       DevPathFromTextFilePath    00000000000035f4 f   UefiDevicePathLib:DevicePathFromText.obj
 0001:000033c4       DevPathFromTextMedia       0000000000003664 f   UefiDevicePathLib:DevicePathFromText.obj
 0001:0000340c       DevPathFromTextFv          00000000000036ac f   UefiDevicePathLib:DevicePathFromText.obj
 0001:00003454       DevPathFromTextFvFile      00000000000036f4 f   UefiDevicePathLib:DevicePathFromText.obj
 0001:0000349c       DevPathFromTextRelativeOffsetRange 000000000000373c f   UefiDevicePathLib:DevicePathFromText.obj
 0001:00003500       DevPathFromTextRamDisk     00000000000037a0 f   UefiDevicePathLib:DevicePathFromText.obj
 0001:000035b8       DevPathFromTextVirtualDisk 0000000000003858 f   UefiDevicePathLib:DevicePathFromText.obj
 0001:00003660       DevPathFromTextVirtualCd   0000000000003900 f   UefiDevicePathLib:DevicePathFromText.obj
 0001:00003708       DevPathFromTextPersistentVirtualDisk 00000000000039a8 f   UefiDevicePathLib:DevicePathFromText.obj
 0001:000037b0       DevPathFromTextPersistentVirtualCd 0000000000003a50 f   UefiDevicePathLib:DevicePathFromText.obj
 0001:00003858       DevPathFromTextBbsPath     0000000000003af8 f   UefiDevicePathLib:DevicePathFromText.obj
 0001:00003864       DevPathFromTextBBS         0000000000003b04 f   UefiDevicePathLib:DevicePathFromText.obj
 0001:00003a88       DevPathFromTextSata        0000000000003d28 f   UefiDevicePathLib:DevicePathFromText.obj
 0001:00003b10       UefiDevicePathLibConvertTextToDeviceNode 0000000000003db0 f   UefiDevicePathLib:DevicePathFromText.obj
 0001:00003ca4       UefiDevicePathLibConvertTextToDevicePath 0000000000003f44 f   UefiDevicePathLib:DevicePathFromText.obj
 0001:00003e8c       UefiDevicePathLibCatPrint  000000000000412c f   UefiDevicePathLib:DevicePathToText.obj
 0001:00003f40       DevPathToTextPci           00000000000041e0 f   UefiDevicePathLib:DevicePathToText.obj
 0001:00003f58       DevPathToTextPccard        00000000000041f8 f   UefiDevicePathLib:DevicePathToText.obj
 0001:00003f6c       DevPathToTextMemMap        000000000000420c f   UefiDevicePathLib:DevicePathToText.obj
 0001:00003f94       DevPathToTextVendor        0000000000004234 f   UefiDevicePathLib:DevicePathToText.obj
 0001:000042b4       DevPathToTextController    0000000000004554 f   UefiDevicePathLib:DevicePathToText.obj
 0001:000042c4       DevPathToTextBmc           0000000000004564 f   UefiDevicePathLib:DevicePathToText.obj
 0001:000042dc       DevPathToTextAcpi          000000000000457c f   UefiDevicePathLib:DevicePathToText.obj
 0001:00004398       DevPathToTextAcpiEx        0000000000004638 f   UefiDevicePathLib:DevicePathToText.obj
 0001:0000457c       DevPathToTextAcpiAdr       000000000000481c f   UefiDevicePathLib:DevicePathToText.obj
 0001:000045fc       DevPathToTextAtapi         000000000000489c f   UefiDevicePathLib:DevicePathToText.obj
 0001:00004660       DevPathToTextScsi          0000000000004900 f   UefiDevicePathLib:DevicePathToText.obj
 0001:00004678       DevPathToTextFibre         0000000000004918 f   UefiDevicePathLib:DevicePathToText.obj
 0001:0000468c       DevPathToTextFibreEx       000000000000492c f   UefiDevicePathLib:DevicePathToText.obj
 0001:00004728       DevPathToTextSasEx         00000000000049c8 f   UefiDevicePathLib:DevicePathToText.obj
 0001:00004898       DevPathToTextNVMe          0000000000004b38 f   UefiDevicePathLib:DevicePathToText.obj
 0001:00004914       DevPathToTextUfs           0000000000004bb4 f   UefiDevicePathLib:DevicePathToText.obj
 0001:0000492c       DevPathToTextSd            0000000000004bcc f   UefiDevicePathLib:DevicePathToText.obj
 0001:00004940       DevPathToTextEmmc          0000000000004be0 f   UefiDevicePathLib:DevicePathToText.obj
 0001:00004954       DevPathToText1394          0000000000004bf4 f   UefiDevicePathLib:DevicePathToText.obj
 0001:00004964       DevPathToTextUsb           0000000000004c04 f   UefiDevicePathLib:DevicePathToText.obj
 0001:0000497c       DevPathToTextUsbWWID       0000000000004c1c f   UefiDevicePathLib:DevicePathToText.obj
 0001:00004a0c       DevPathToTextLogicalUnit   0000000000004cac f   UefiDevicePathLib:DevicePathToText.obj
 0001:00004a20       DevPathToTextUsbClass      0000000000004cc0 f   UefiDevicePathLib:DevicePathToText.obj
 0001:00004bc8       DevPathToTextSata          0000000000004e68 f   UefiDevicePathLib:DevicePathToText.obj
 0001:00004bf0       DevPathToTextI2O           0000000000004e90 f   UefiDevicePathLib:DevicePathToText.obj
 0001:00004c00       DevPathToTextMacAddr       0000000000004ea0 f   UefiDevicePathLib:DevicePathToText.obj
 0001:00004c88       CatIPv6Address             0000000000004f28 f   UefiDevicePathLib:DevicePathToText.obj
 0001:00004d7c       DevPathToTextIPv4          000000000000501c f   UefiDevicePathLib:DevicePathToText.obj
 0001:00004efc       DevPathToTextIPv6          000000000000519c f   UefiDevicePathLib:DevicePathToText.obj
 0001:00005000       DevPathToTextInfiniBand    00000000000052a0 f   UefiDevicePathLib:DevicePathToText.obj
 0001:00005038       DevPathToTextUart          00000000000052d8 f   UefiDevicePathLib:DevicePathToText.obj
 0001:00005158       DevPathToTextiSCSI         00000000000053f8 f   UefiDevicePathLib:DevicePathToText.obj
 0001:00005250       DevPathToTextVlan          00000000000054f0 f   UefiDevicePathLib:DevicePathToText.obj
 0001:00005264       DevPathToTextBluetooth     0000000000005504 f   UefiDevicePathLib:DevicePathToText.obj
 0001:000052b0       DevPathToTextWiFi          0000000000005550 f   UefiDevicePathLib:DevicePathToText.obj
 0001:000052f8       DevPathToTextUri           0000000000005598 f   UefiDevicePathLib:DevicePathToText.obj
 0001:0000537c       DevPathToTextHardDrive     000000000000561c f   UefiDevicePathLib:DevicePathToText.obj
 0001:00005404       DevPathToTextCDROM         00000000000056a4 f   UefiDevicePathLib:DevicePathToText.obj
 0001:00005440       DevPathToTextFilePath      00000000000056e0 f   UefiDevicePathLib:DevicePathToText.obj
 0001:00005450       DevPathToTextMediaProtocol 00000000000056f0 f   UefiDevicePathLib:DevicePathToText.obj
 0001:00005460       DevPathToTextFv            0000000000005700 f   UefiDevicePathLib:DevicePathToText.obj
 0001:00005470       DevPathToTextFvFile        0000000000005710 f   UefiDevicePathLib:DevicePathToText.obj
 0001:00005480       DevPathRelativeOffsetRange 0000000000005720 f   UefiDevicePathLib:DevicePathToText.obj
 0001:00005494       DevPathToTextRamDisk       0000000000005734 f   UefiDevicePathLib:DevicePathToText.obj
 0001:000055e4       DevPathToTextBBS           0000000000005884 f   UefiDevicePathLib:DevicePathToText.obj
 0001:000056b4       DevPathToTextEndInstance   0000000000005954 f   UefiDevicePathLib:DevicePathToText.obj
 0001:000056c0       DevPathToTextNodeGeneric   0000000000005960 f   UefiDevicePathLib:DevicePathToText.obj
 0001:00005798       StrHexToUintn              0000000000005a38 f   BaseLib:String.obj
 0001:0000584c       StrHexToUint64             0000000000005aec f   BaseLib:String.obj
 0001:00005900       StrCpyS                    0000000000005ba0 f   BaseLib:SafeString.obj
 0001:00005994       UnicodeSPrint              0000000000005c34 f   BasePrintLib:PrintLib.obj
 0001:000059c8       BasePrintLibFillBuffer     0000000000005c68 f   BasePrintLib:PrintLibInternal.obj
 0001:000059fc       BasePrintLibSPrintMarker   0000000000005c9c f   BasePrintLib:PrintLibInternal.obj
 0001:00006868       BasePrintLibSPrint         0000000000006b08 f   BasePrintLib:PrintLibInternal.obj
 0001:0000688c       InternalAllocatePool       0000000000006b2c f   UefiMemoryAllocationLib:MemoryAllocationLib.obj
 0001:000068bc       InternalAllocateCopyPool   0000000000006b5c f   UefiMemoryAllocationLib:MemoryAllocationLib.obj
 0001:00006900       InternalReallocatePool     0000000000006ba0 f   UefiMemoryAllocationLib:MemoryAllocationLib.obj
 0001:00006990       InternalMemCopyMem         0000000000006c30     BaseMemoryLibRepStr:CopyMem.obj
 0001:000069d0       InternalMemZeroMem         0000000000006c70     BaseMemoryLibRepStr:ZeroMem.obj
 0002:00000000       gEfiVTUTF8Guid             0000000000006ca0     DevicePathDxe:AutoGen.obj
 0002:00000010       gEfiVT100Guid              0000000000006cb0     DevicePathDxe:AutoGen.obj
 0002:00000020       gEfiVT100PlusGuid          0000000000006cc0     DevicePathDxe:AutoGen.obj
 0002:00000030       gEfiPcAnsiGuid             0000000000006cd0     DevicePathDxe:AutoGen.obj
 0002:00000040       gEfiUartDevicePathGuid     0000000000006ce0     DevicePathDxe:AutoGen.obj
 0002:00000050       gEfiSasDevicePathGuid      0000000000006cf0     DevicePathDxe:AutoGen.obj
 0002:00000060       gEfiVirtualDiskGuid        0000000000006d00     DevicePathDxe:AutoGen.obj
 0002:00000070       gEfiVirtualCdGuid          0000000000006d10     DevicePathDxe:AutoGen.obj
 0002:00000080       gEfiPersistentVirtualDiskGuid 0000000000006d20     DevicePathDxe:AutoGen.obj
 0002:00000090       gEfiPersistentVirtualCdGuid 0000000000006d30     DevicePathDxe:AutoGen.obj
 0002:000000a0       gEfiDevicePathToTextProtocolGuid 0000000000006d40     DevicePathDxe:AutoGen.obj
 0002:000000b0       gEfiDevicePathFromTextProtocolGuid 0000000000006d50     DevicePathDxe:AutoGen.obj
 0002:000000c0       gEfiDevicePathUtilitiesProtocolGuid 0000000000006d60     DevicePathDxe:AutoGen.obj
 0002:000000d0       gEfiDebugPortProtocolGuid  0000000000006d70     DevicePathDxe:AutoGen.obj
 0002:000000e0       mUefiDevicePathLibDevPathFromTextTable 0000000000006d80     UefiDevicePathLib:DevicePathFromText.obj
 0002:00000630       _gUefiDriverRevision       00000000000072d0     DevicePathDxe:AutoGen.obj
 0002:00000640       mDevicePathUtilities       00000000000072e0     DevicePathDxe:DevicePath.obj
 0002:00000680       mDevicePathToText          0000000000007320     DevicePathDxe:DevicePath.obj
 0002:00000690       mDevicePathFromText        0000000000007330     DevicePathDxe:DevicePath.obj
 0002:000006a0       mUefiDevicePathLibEndDevicePath 0000000000007340     UefiDevicePathLib:DevicePathUtilities.obj
 0002:000006a8       ??_C@_19EBDONFFG@?$AAS?$AAa?$AAt?$AAa?$AA?$AA@ 0000000000007348     UefiDevicePathLib:DevicePathFromText.obj
 0002:000006b8       ??_C@_17GKENOOCN@?$AAB?$AAB?$AAS?$AA?$AA@ 0000000000007358     UefiDevicePathLib:DevicePathFromText.obj
 0002:000006c0       ??_C@_1BA@EPIJMJOF@?$AAB?$AAb?$AAs?$AAP?$AAa?$AAt?$AAh?$AA?$AA@ 0000000000007360     UefiDevicePathLib:DevicePathFromText.obj
 0002:000006d0       ??_C@_1CI@NFGDEDCN@?$AAP?$AAe?$AAr?$AAs?$AAi?$AAs?$AAt?$AAe?$AAn?$AAt?$AAV?$AAi?$AAr?$AAt?$AAu?$AAa?$AAl?$AAC?$AAD?$AA?$AA@ 0000000000007370     UefiDevicePathLib:DevicePathFromText.obj
 0002:000006f8       ??_C@_1CM@HJNDDJNG@?$AAP?$AAe?$AAr?$AAs?$AAi?$AAs?$AAt?$AAe?$AAn?$AAt?$AAV?$AAi?$AAr?$AAt?$AAu?$AAa?$AAl?$AAD?$AAi?$AAs?$AAk?$AA?$AA@ 0000000000007398     UefiDevicePathLib:DevicePathFromText.obj
 0002:00000728       ??_C@_1BE@INMIBDPL@?$AAV?$AAi?$AAr?$AAt?$AAu?$AAa?$AAl?$AAC?$AAD?$AA?$AA@ 00000000000073c8     UefiDevicePathLib:DevicePathFromText.obj
 0002:00000740       ??_C@_1BI@DOBDENMH@?$AAV?$AAi?$AAr?$AAt?$AAu?$AAa?$AAl?$AAD?$AAi?$AAs?$AAk?$AA?$AA@ 00000000000073e0     UefiDevicePathLib:DevicePathFromText.obj
 0002:00000758       ??_C@_1BA@MCPGEJDD@?$AAR?$AAa?$AAm?$AAD?$AAi?$AAs?$AAk?$AA?$AA@ 00000000000073f8     UefiDevicePathLib:DevicePathFromText.obj
 0002:00000768       ??_C@_1O@LMEEEHLB@?$AAO?$AAf?$AAf?$AAs?$AAe?$AAt?$AA?$AA@ 0000000000007408     UefiDevicePathLib:DevicePathFromText.obj
 0002:00000778       ??_C@_1O@HDIGBKAM@?$AAF?$AAv?$AAF?$AAi?$AAl?$AAe?$AA?$AA@ 0000000000007418     UefiDevicePathLib:DevicePathFromText.obj
 0002:00000788       ??_C@_15NJGIEIGN@?$AAF?$AAv?$AA?$AA@ 0000000000007428     UefiDevicePathLib:DevicePathFromText.obj
 0002:00000790       ??_C@_1M@OFOICAAP@?$AAM?$AAe?$AAd?$AAi?$AAa?$AA?$AA@ 0000000000007430     UefiDevicePathLib:DevicePathFromText.obj
 0002:000007a0       ??_C@_1BC@GHCKDDOI@?$AAV?$AAe?$AAn?$AAM?$AAe?$AAd?$AAi?$AAa?$AA?$AA@ 0000000000007440     UefiDevicePathLib:DevicePathFromText.obj
 0002:000007b8       ??_C@_1BE@MHMKEMCG@?$AAM?$AAe?$AAd?$AAi?$AAa?$AAP?$AAa?$AAt?$AAh?$AA?$AA@ 0000000000007458     UefiDevicePathLib:DevicePathFromText.obj
 0002:000007d0       ??_C@_1M@BMGHIDNG@?$AAW?$AAi?$AA?9?$AAF?$AAi?$AA?$AA@ 0000000000007470     UefiDevicePathLib:DevicePathFromText.obj
 0002:000007e0       ??_C@_1BE@DJCFELKD@?$AAB?$AAl?$AAu?$AAe?$AAt?$AAo?$AAo?$AAt?$AAh?$AA?$AA@ 0000000000007480     UefiDevicePathLib:DevicePathFromText.obj
 0002:000007f8       ??_C@_17IHNPMJHH@?$AAU?$AAr?$AAi?$AA?$AA@ 0000000000007498     UefiDevicePathLib:DevicePathFromText.obj
 0002:00000800       ??_C@_19DHGKIILN@?$AAV?$AAl?$AAa?$AAn?$AA?$AA@ 00000000000074a0     UefiDevicePathLib:DevicePathFromText.obj
 0002:00000810       ??_C@_1M@KIOGPKKC@?$AAi?$AAS?$AAC?$AAS?$AAI?$AA?$AA@ 00000000000074b0     UefiDevicePathLib:DevicePathFromText.obj
 0002:00000820       ??_C@_19ENIPABFF@?$AAU?$AAn?$AAi?$AAt?$AA?$AA@ 00000000000074c0     UefiDevicePathLib:DevicePathFromText.obj
 0002:00000830       ??_C@_1BA@JFMBPOKP@?$AAU?$AAs?$AAb?$AAW?$AAw?$AAi?$AAd?$AA?$AA@ 00000000000074d0     UefiDevicePathLib:DevicePathFromText.obj
 0002:00000840       ??_C@_1CM@FCDMDMMH@?$AAU?$AAs?$AAb?$AAT?$AAe?$AAs?$AAt?$AAA?$AAn?$AAd?$AAM?$AAe?$AAa?$AAs?$AAu?$AAr?$AAe?$AAm?$AAe?$AAn?$AAt?$AA?$AA@ 00000000000074e0     UefiDevicePathLib:DevicePathFromText.obj
 0002:00000870       ??_C@_1BM@OGJGENB@?$AAU?$AAs?$AAb?$AAI?$AAr?$AAd?$AAa?$AAB?$AAr?$AAi?$AAd?$AAg?$AAe?$AA?$AA@ 0000000000007510     UefiDevicePathLib:DevicePathFromText.obj
 0002:00000890       ??_C@_1DA@MALGIHBH@?$AAU?$AAs?$AAb?$AAD?$AAe?$AAv?$AAi?$AAc?$AAe?$AAF?$AAi?$AAr?$AAm?$AAw?$AAa?$AAr?$AAe?$AAU?$AAp?$AAd?$AAa?$AAt?$AAe?$AA?$AA@ 0000000000007530     UefiDevicePathLib:DevicePathFromText.obj
 0002:000008c0       ??_C@_1BI@FHBIGIDC@?$AAU?$AAs?$AAb?$AAW?$AAi?$AAr?$AAe?$AAl?$AAe?$AAs?$AAs?$AA?$AA@ 0000000000007560     UefiDevicePathLib:DevicePathFromText.obj
 0002:000008d8       ??_C@_1BM@LPAMJGAO@?$AAU?$AAs?$AAb?$AAD?$AAi?$AAa?$AAg?$AAn?$AAo?$AAs?$AAt?$AAi?$AAc?$AA?$AA@ 0000000000007578     UefiDevicePathLib:DevicePathFromText.obj
 0002:000008f8       ??_C@_1BC@OCEEDGOJ@?$AAU?$AAs?$AAb?$AAV?$AAi?$AAd?$AAe?$AAo?$AA?$AA@ 0000000000007598     UefiDevicePathLib:DevicePathFromText.obj
 0002:00000910       ??_C@_1BK@COBNKHKO@?$AAU?$AAs?$AAb?$AAS?$AAm?$AAa?$AAr?$AAt?$AAC?$AAa?$AAr?$AAd?$AA?$AA@ 00000000000075b0     UefiDevicePathLib:DevicePathFromText.obj
 0002:00000930       ??_C@_1BG@HNPFOCNE@?$AAU?$AAs?$AAb?$AAC?$AAD?$AAC?$AAD?$AAa?$AAt?$AAa?$AA?$AA@ 00000000000075d0     UefiDevicePathLib:DevicePathFromText.obj
 0002:00000948       ??_C@_1O@DLJCNOCD@?$AAU?$AAs?$AAb?$AAH?$AAu?$AAb?$AA?$AA@ 00000000000075e8     UefiDevicePathLib:DevicePathFromText.obj
 0002:00000958       ??_C@_1BO@PDNPADEO@?$AAU?$AAs?$AAb?$AAM?$AAa?$AAs?$AAs?$AAS?$AAt?$AAo?$AAr?$AAa?$AAg?$AAe?$AA?$AA@ 00000000000075f8     UefiDevicePathLib:DevicePathFromText.obj
 0002:00000978       ??_C@_1BG@PFAKNBDK@?$AAU?$AAs?$AAb?$AAP?$AAr?$AAi?$AAn?$AAt?$AAe?$AAr?$AA?$AA@ 0000000000007618     UefiDevicePathLib:DevicePathFromText.obj
 0002:00000990       ??_C@_1BC@PPLGKLBF@?$AAU?$AAs?$AAb?$AAI?$AAm?$AAa?$AAg?$AAe?$AA?$AA@ 0000000000007630     UefiDevicePathLib:DevicePathFromText.obj
 0002:000009a8       ??_C@_1O@MNHDOJBH@?$AAU?$AAs?$AAb?$AAH?$AAI?$AAD?$AA?$AA@ 0000000000007648     UefiDevicePathLib:DevicePathFromText.obj
 0002:000009b8       ??_C@_1BM@EBMHFGAN@?$AAU?$AAs?$AAb?$AAC?$AAD?$AAC?$AAC?$AAo?$AAn?$AAt?$AAr?$AAo?$AAl?$AA?$AA@ 0000000000007658     UefiDevicePathLib:DevicePathFromText.obj
 0002:000009d8       ??_C@_1BC@NAJEJDIH@?$AAU?$AAs?$AAb?$AAA?$AAu?$AAd?$AAi?$AAo?$AA?$AA@ 0000000000007678     UefiDevicePathLib:DevicePathFromText.obj
 0002:000009f0       ??_C@_1BC@BHHGGAIE@?$AAU?$AAs?$AAb?$AAC?$AAl?$AAa?$AAs?$AAs?$AA?$AA@ 0000000000007690     UefiDevicePathLib:DevicePathFromText.obj
 0002:00000a08       ??_C@_19PNLOOBKB@?$AAU?$AAa?$AAr?$AAt?$AA?$AA@ 00000000000076a8     UefiDevicePathLib:DevicePathFromText.obj
 0002:00000a18       ??_C@_19CDMHABIE@?$AAI?$AAP?$AAv?$AA6?$AA?$AA@ 00000000000076b8     UefiDevicePathLib:DevicePathFromText.obj
 0002:00000a28       ??_C@_19IJMOMJAP@?$AAI?$AAP?$AAv?$AA4?$AA?$AA@ 00000000000076c8     UefiDevicePathLib:DevicePathFromText.obj
 0002:00000a38       ??_C@_17GFOANJLA@?$AAM?$AAA?$AAC?$AA?$AA@ 00000000000076d8     UefiDevicePathLib:DevicePathFromText.obj
 0002:00000a40       ??_C@_1BE@BGIBNJJP@?$AAD?$AAe?$AAb?$AAu?$AAg?$AAP?$AAo?$AAr?$AAt?$AA?$AA@ 00000000000076e0     UefiDevicePathLib:DevicePathFromText.obj
 0002:00000a58       ??_C@_19LCPBKKGO@?$AAE?$AAm?$AAm?$AAc?$AA?$AA@ 00000000000076f8     UefiDevicePathLib:DevicePathFromText.obj
 0002:00000a64       ??_C@_15NAFBOLGP@?$AAS?$AAD?$AA?$AA@ 0000000000007704     UefiDevicePathLib:DevicePathFromText.obj
 0002:00000a70       ??_C@_17IHKCJEAJ@?$AAU?$AAF?$AAS?$AA?$AA@ 0000000000007710     UefiDevicePathLib:DevicePathFromText.obj
 0002:00000a78       ??_C@_19LAHBEEFI@?$AAN?$AAV?$AAM?$AAe?$AA?$AA@ 0000000000007718     UefiDevicePathLib:DevicePathFromText.obj
 0002:00000a88       ??_C@_1M@CCCLFLPN@?$AAS?$AAa?$AAs?$AAE?$AAx?$AA?$AA@ 0000000000007728     UefiDevicePathLib:DevicePathFromText.obj
 0002:00000a98       ??_C@_1BK@CEOAKICF@?$AAU?$AAa?$AAr?$AAt?$AAF?$AAl?$AAo?$AAw?$AAC?$AAt?$AAr?$AAl?$AA?$AA@ 0000000000007738     UefiDevicePathLib:DevicePathFromText.obj
 0002:00000ab8       ??_C@_1BA@NNIEKFBH@?$AAV?$AAe?$AAn?$AAU?$AAt?$AAf?$AA8?$AA?$AA@ 0000000000007758     UefiDevicePathLib:DevicePathFromText.obj
 0002:00000ac8       ??_C@_1BK@NHGIEBMC@?$AAV?$AAe?$AAn?$AAV?$AAt?$AA1?$AA0?$AA0?$AAP?$AAl?$AAu?$AAs?$AA?$AA@ 0000000000007768     UefiDevicePathLib:DevicePathFromText.obj
 0002:00000ae8       ??_C@_1BC@JHDKFMJG@?$AAV?$AAe?$AAn?$AAV?$AAt?$AA1?$AA0?$AA0?$AA?$AA@ 0000000000007788     UefiDevicePathLib:DevicePathFromText.obj
 0002:00000b00       ??_C@_1BE@LMIDEMJL@?$AAV?$AAe?$AAn?$AAP?$AAc?$AAA?$AAn?$AAs?$AAi?$AA?$AA@ 00000000000077a0     UefiDevicePathLib:DevicePathFromText.obj
 0002:00000b18       ??_C@_1O@BHINEOCB@?$AAV?$AAe?$AAn?$AAM?$AAs?$AAg?$AA?$AA@ 00000000000077b8     UefiDevicePathLib:DevicePathFromText.obj
 0002:00000b28       ??_C@_1BG@LFNGJFMI@?$AAI?$AAn?$AAf?$AAi?$AAn?$AAi?$AAb?$AAa?$AAn?$AAd?$AA?$AA@ 00000000000077c8     UefiDevicePathLib:DevicePathFromText.obj
 0002:00000b40       ??_C@_17CGMKBHJN@?$AAI?$AA2?$AAO?$AA?$AA@ 00000000000077e0     UefiDevicePathLib:DevicePathFromText.obj
 0002:00000b48       ??_C@_1M@PJKPDAPK@?$AAI?$AA1?$AA3?$AA9?$AA4?$AA?$AA@ 00000000000077e8     UefiDevicePathLib:DevicePathFromText.obj
 0002:00000b58       ??_C@_1BA@BDOAEBJM@?$AAF?$AAi?$AAb?$AAr?$AAe?$AAE?$AAx?$AA?$AA@ 00000000000077f8     UefiDevicePathLib:DevicePathFromText.obj
 0002:00000b68       ??_C@_1M@KOFKAIAH@?$AAF?$AAi?$AAb?$AAr?$AAe?$AA?$AA@ 0000000000007808     UefiDevicePathLib:DevicePathFromText.obj
 0002:00000b78       ??_C@_19NLKKMKHM@?$AAS?$AAc?$AAs?$AAi?$AA?$AA@ 0000000000007818     UefiDevicePathLib:DevicePathFromText.obj
 0002:00000b88       ??_C@_17GMMDDNFE@?$AAA?$AAt?$AAa?$AA?$AA@ 0000000000007828     UefiDevicePathLib:DevicePathFromText.obj
 0002:00000b90       ??_C@_17DACEHHP@?$AAM?$AAs?$AAg?$AA?$AA@ 0000000000007830     UefiDevicePathLib:DevicePathFromText.obj
 0002:00000b98       ??_C@_1BA@NNDCDAFF@?$AAA?$AAc?$AAp?$AAi?$AAA?$AAd?$AAr?$AA?$AA@ 0000000000007838     UefiDevicePathLib:DevicePathFromText.obj
 0002:00000ba8       ??_C@_1BA@IHGFDEME@?$AAA?$AAc?$AAp?$AAi?$AAE?$AAx?$AAp?$AA?$AA@ 0000000000007848     UefiDevicePathLib:DevicePathFromText.obj
 0002:00000bb8       ??_C@_1O@GFMNADOD@?$AAA?$AAc?$AAp?$AAi?$AAE?$AAx?$AA?$AA@ 0000000000007858     UefiDevicePathLib:DevicePathFromText.obj
 0002:00000bc8       ??_C@_1BK@LKLOGFGG@?$AAP?$AAa?$AAr?$AAa?$AAl?$AAl?$AAe?$AAl?$AAP?$AAo?$AAr?$AAt?$AA?$AA@ 0000000000007868     UefiDevicePathLib:DevicePathFromText.obj
 0002:00000be8       ??_C@_1O@EKJPAJBH@?$AAS?$AAe?$AAr?$AAi?$AAa?$AAl?$AA?$AA@ 0000000000007888     UefiDevicePathLib:DevicePathFromText.obj
 0002:00000bf8       ??_C@_1BC@NCPFOOPJ@?$AAK?$AAe?$AAy?$AAb?$AAo?$AAa?$AAr?$AAd?$AA?$AA@ 0000000000007898     UefiDevicePathLib:DevicePathFromText.obj
 0002:00000c10       ??_C@_1BC@CHOMCAOI@?$AAP?$AAc?$AAi?$AAe?$AAR?$AAo?$AAo?$AAt?$AA?$AA@ 00000000000078b0     UefiDevicePathLib:DevicePathFromText.obj
 0002:00000c28       ??_C@_1BA@DHIPOOID@?$AAP?$AAc?$AAi?$AAR?$AAo?$AAo?$AAt?$AA?$AA@ 00000000000078c8     UefiDevicePathLib:DevicePathFromText.obj
 0002:00000c38       ??_C@_19HOGFOJAH@?$AAA?$AAc?$AAp?$AAi?$AA?$AA@ 00000000000078d8     UefiDevicePathLib:DevicePathFromText.obj
 0002:00000c48       ??_C@_1BC@EJFCJMMM@?$AAA?$AAc?$AAp?$AAi?$AAP?$AAa?$AAt?$AAh?$AA?$AA@ 00000000000078e8     UefiDevicePathLib:DevicePathFromText.obj
 0002:00000c60       ??_C@_17MLACALGH@?$AAB?$AAM?$AAC?$AA?$AA@ 0000000000007900     UefiDevicePathLib:DevicePathFromText.obj
 0002:00000c68       ??_C@_19HGPIFADB@?$AAC?$AAt?$AAr?$AAl?$AA?$AA@ 0000000000007908     UefiDevicePathLib:DevicePathFromText.obj
 0002:00000c78       ??_C@_1M@LACAKLOF@?$AAV?$AAe?$AAn?$AAH?$AAw?$AA?$AA@ 0000000000007918     UefiDevicePathLib:DevicePathFromText.obj
 0002:00000c88       ??_C@_1BK@OCLBCLCA@?$AAM?$AAe?$AAm?$AAo?$AAr?$AAy?$AAM?$AAa?$AAp?$AAp?$AAe?$AAd?$AA?$AA@ 0000000000007928     UefiDevicePathLib:DevicePathFromText.obj
 0002:00000ca8       ??_C@_1O@MNOBCDEF@?$AAP?$AAc?$AAC?$AAa?$AAr?$AAd?$AA?$AA@ 0000000000007948     UefiDevicePathLib:DevicePathFromText.obj
 0002:00000cb8       ??_C@_17HLFBGCN@?$AAP?$AAc?$AAi?$AA?$AA@ 0000000000007958     UefiDevicePathLib:DevicePathFromText.obj
 0002:00000cc0       ??_C@_1BK@PDLLBLKH@?$AAH?$AAa?$AAr?$AAd?$AAw?$AAa?$AAr?$AAe?$AAP?$AAa?$AAt?$AAh?$AA?$AA@ 0000000000007960     UefiDevicePathLib:DevicePathFromText.obj
 0002:00000ce0       ??_C@_19NHABCBNP@?$AAP?$AAa?$AAt?$AAh?$AA?$AA@ 0000000000007980     UefiDevicePathLib:DevicePathFromText.obj
 0002:00000cf0       ??_C@_1BA@NGCDBIG@?$AAP?$AAr?$AAi?$AAm?$AAa?$AAr?$AAy?$AA?$AA@ 0000000000007990     UefiDevicePathLib:DevicePathFromText.obj
 0002:00000d00       ??_C@_1BE@BGLPHBHD@?$AAS?$AAe?$AAc?$AAo?$AAn?$AAd?$AAa?$AAr?$AAy?$AA?$AA@ 00000000000079a0     UefiDevicePathLib:DevicePathFromText.obj
 0002:00000d18       ??_C@_1O@MHJLHGPK@?$AAM?$AAa?$AAs?$AAt?$AAe?$AAr?$AA?$AA@ 00000000000079b8     UefiDevicePathLib:DevicePathFromText.obj
 0002:00000d28       ??_C@_1M@MJNGBMFK@?$AAS?$AAl?$AAa?$AAv?$AAe?$AA?$AA@ 00000000000079c8     UefiDevicePathLib:DevicePathFromText.obj
 0002:00000d38       ??_C@_1BA@NAMMFHHL@?$AAX?$AAo?$AAn?$AAX?$AAo?$AAf?$AAf?$AA?$AA@ 00000000000079d8     UefiDevicePathLib:DevicePathFromText.obj
 0002:00000d48       ??_C@_1BC@MAICEHGI@?$AAH?$AAa?$AAr?$AAd?$AAw?$AAa?$AAr?$AAe?$AA?$AA@ 00000000000079e8     UefiDevicePathLib:DevicePathFromText.obj
 0002:00000d60       ??_C@_1BG@FMODEGIG@?$AAN?$AAo?$AAT?$AAo?$AAp?$AAo?$AAl?$AAo?$AAg?$AAy?$AA?$AA@ 0000000000007a00     UefiDevicePathLib:DevicePathFromText.obj
 0002:00000d78       ??_C@_19BPNGBNAI@?$AAS?$AAA?$AAT?$AAA?$AA?$AA@ 0000000000007a18     UefiDevicePathLib:DevicePathFromText.obj
 0002:00000d88       ??_C@_17FMMIKNDG@?$AAS?$AAA?$AAS?$AA?$AA@ 0000000000007a28     UefiDevicePathLib:DevicePathFromText.obj
 0002:00000d90       ??_C@_1BC@KMFBFJEN@?$AAE?$AAx?$AAt?$AAe?$AAr?$AAn?$AAa?$AAl?$AA?$AA@ 0000000000007a30     UefiDevicePathLib:DevicePathFromText.obj
 0002:00000da8       ??_C@_1BC@FBOHHDN@?$AAI?$AAn?$AAt?$AAe?$AAr?$AAn?$AAa?$AAl?$AA?$AA@ 0000000000007a48     UefiDevicePathLib:DevicePathFromText.obj
 0002:00000dc0       ??_C@_1BC@EEIMPKHO@?$AAE?$AAx?$AAp?$AAa?$AAn?$AAd?$AAe?$AAd?$AA?$AA@ 0000000000007a60     UefiDevicePathLib:DevicePathFromText.obj
 0002:00000dd8       ??_C@_1O@MDCABJAO@?$AAD?$AAi?$AAr?$AAe?$AAc?$AAt?$AA?$AA@ 0000000000007a78     UefiDevicePathLib:DevicePathFromText.obj
 0002:00000de8       ??_C@_17NINPJKOM@?$AAU?$AAD?$AAP?$AA?$AA@ 0000000000007a88     UefiDevicePathLib:DevicePathFromText.obj
 0002:00000df0       ??_C@_17JHAKKMK@?$AAT?$AAC?$AAP?$AA?$AA@ 0000000000007a90     UefiDevicePathLib:DevicePathFromText.obj
 0002:00000df8       ??_C@_1O@ECDFCEKO@?$AAS?$AAt?$AAa?$AAt?$AAi?$AAc?$AA?$AA@ 0000000000007a98     UefiDevicePathLib:DevicePathFromText.obj
 0002:00000e08       ??_C@_1CO@IJAKNKHD@?$AAS?$AAt?$AAa?$AAt?$AAe?$AAl?$AAe?$AAs?$AAs?$AAA?$AAu?$AAt?$AAo?$AAC?$AAo?$AAn?$AAf?$AAi?$AAg?$AAu?$AAr?$AAe?$AA?$AA@ 0000000000007aa8     UefiDevicePathLib:DevicePathFromText.obj
 0002:00000e38       ??_C@_1BA@KDAEEGIF@?$AAD?$AAE?$AAF?$AAA?$AAU?$AAL?$AAT?$AA?$AA@ 0000000000007ad8     UefiDevicePathLib:DevicePathFromText.obj
 0002:00000e48       ??_C@_13MKMNOPIJ@?$AAD?$AA?$AA@ 0000000000007ae8     UefiDevicePathLib:DevicePathFromText.obj
 0002:00000e4c       ??_C@_13JGCMLPCH@?$AA1?$AA?$AA@ 0000000000007aec     UefiDevicePathLib:DevicePathFromText.obj
 0002:00000e50       ??_C@_17CJOJBPKA@?$AA1?$AA?4?$AA5?$AA?$AA@ 0000000000007af0     UefiDevicePathLib:DevicePathFromText.obj
 0002:00000e58       ??_C@_13IEJJBAMJ@?$AA2?$AA?$AA@ 0000000000007af8     UefiDevicePathLib:DevicePathFromText.obj
 0002:00000e60       ??_C@_1O@HNAACJMJ@?$AAC?$AAR?$AAC?$AA3?$AA2?$AAC?$AA?$AA@ 0000000000007b00     UefiDevicePathLib:DevicePathFromText.obj
 0002:00000e70       ??_C@_19KLMLHLJG@?$AAN?$AAo?$AAn?$AAe?$AA?$AA@ 0000000000007b10     UefiDevicePathLib:DevicePathFromText.obj
 0002:00000e80       ??_C@_1BC@PDNIOEEC@?$AAC?$AAH?$AAA?$AAP?$AA_?$AAU?$AAN?$AAI?$AA?$AA@ 0000000000007b20     UefiDevicePathLib:DevicePathFromText.obj
 0002:00000e94       ??_C@_15OEMMNBIC@?$AA0?$AAx?$AA?$AA@ 0000000000007b34     UefiDevicePathLib:DevicePathFromText.obj
 0002:00000ea0       ??_C@_17LNBJLOE@?$AAM?$AAB?$AAR?$AA?$AA@ 0000000000007b40     UefiDevicePathLib:DevicePathFromText.obj
 0002:00000ea8       ??_C@_17PBGEHLGA@?$AAG?$AAP?$AAT?$AA?$AA@ 0000000000007b48     UefiDevicePathLib:DevicePathFromText.obj
 0002:00000eb0       ??_C@_1O@CLMODHEM@?$AAF?$AAl?$AAo?$AAp?$AAp?$AAy?$AA?$AA@ 0000000000007b50     UefiDevicePathLib:DevicePathFromText.obj
 0002:00000ec0       ??_C@_15LJEABJDH@?$AAH?$AAD?$AA?$AA@ 0000000000007b60     UefiDevicePathLib:DevicePathFromText.obj
 0002:00000ec8       ??_C@_1M@NEPFDHKI@?$AAC?$AAD?$AAR?$AAO?$AAM?$AA?$AA@ 0000000000007b68     UefiDevicePathLib:DevicePathFromText.obj
 0002:00000ed8       ??_C@_1O@IJBLAFEH@?$AAP?$AAC?$AAM?$AAC?$AAI?$AAA?$AA?$AA@ 0000000000007b78     UefiDevicePathLib:DevicePathFromText.obj
 0002:00000ee8       ??_C@_17DMBMDHNL@?$AAU?$AAS?$AAB?$AA?$AA@ 0000000000007b88     UefiDevicePathLib:DevicePathFromText.obj
 0002:00000ef0       ??_C@_1BA@IFBJBPAK@?$AAN?$AAe?$AAt?$AAw?$AAo?$AAr?$AAk?$AA?$AA@ 0000000000007b90     UefiDevicePathLib:DevicePathFromText.obj
 0002:00000f00       ??_C@_1BO@OAGLMPIF@?$AAP?$AAc?$AAi?$AA?$CI?$AA0?$AAx?$AA?$CF?$AAx?$AA?0?$AA0?$AAx?$AA?$CF?$AAx?$AA?$CJ?$AA?$AA@ 0000000000007ba0     UefiDevicePathLib:DevicePathToText.obj
 0002:00000f20       ??_C@_1BK@KCEBDNMK@?$AAP?$AAc?$AAC?$AAa?$AAr?$AAd?$AA?$CI?$AA0?$AAx?$AA?$CF?$AAx?$AA?$CJ?$AA?$AA@ 0000000000007bc0     UefiDevicePathLib:DevicePathToText.obj
 0002:00000f40       ??_C@_1DO@IFCJNKPC@?$AAM?$AAe?$AAm?$AAo?$AAr?$AAy?$AAM?$AAa?$AAp?$AAp?$AAe?$AAd?$AA?$CI?$AA0?$AAx?$AA?$CF?$AAx?$AA?0?$AA0?$AAx?$AA?$CF?$AAl?$AAx?$AA?0?$AA0?$AAx?$AA?$CF?$AAl?$AAx?$AA?$CJ?$AA?$AA@ 0000000000007be0     UefiDevicePathLib:DevicePathToText.obj
 0002:00000f80       ??_C@_15FLNOEOHI@?$AAH?$AAw?$AA?$AA@ 0000000000007c20     UefiDevicePathLib:DevicePathToText.obj
 0002:00000f88       ??_C@_1BI@PHHNEBMB@?$AAV?$AAe?$AAn?$AAP?$AAc?$AAA?$AAn?$AAs?$AAi?$AA?$CI?$AA?$CJ?$AA?$AA@ 0000000000007c28     UefiDevicePathLib:DevicePathToText.obj
 0002:00000fa0       ??_C@_1BG@IAIKNGNN@?$AAV?$AAe?$AAn?$AAV?$AAt?$AA1?$AA0?$AA0?$AA?$CI?$AA?$CJ?$AA?$AA@ 0000000000007c40     UefiDevicePathLib:DevicePathToText.obj
 0002:00000fb8       ??_C@_1BO@COEKAAEN@?$AAV?$AAe?$AAn?$AAV?$AAt?$AA1?$AA0?$AA0?$AAP?$AAl?$AAu?$AAs?$AA?$CI?$AA?$CJ?$AA?$AA@ 0000000000007c58     UefiDevicePathLib:DevicePathToText.obj
 0002:00000fd8       ??_C@_1BE@EAENEGNC@?$AAV?$AAe?$AAn?$AAU?$AAf?$AAt?$AA8?$AA?$CI?$AA?$CJ?$AA?$AA@ 0000000000007c78     UefiDevicePathLib:DevicePathToText.obj
 0002:00000ff0       ??_C@_1CC@FKEHNDLA@?$AAU?$AAa?$AAr?$AAt?$AAF?$AAl?$AAo?$AAw?$AAC?$AAt?$AAr?$AAl?$AA?$CI?$AA?$CF?$AAs?$AA?$CJ?$AA?$AA@ 0000000000007c90     UefiDevicePathLib:DevicePathToText.obj
 0002:00001018       ??_C@_1CM@MBOKCKGI@?$AAS?$AAA?$AAS?$AA?$CI?$AA0?$AAx?$AA?$CF?$AAl?$AAx?$AA?0?$AA0?$AAx?$AA?$CF?$AAl?$AAx?$AA?0?$AA0?$AAx?$AA?$CF?$AAx?$AA?0?$AA?$AA@ 0000000000007cb8     UefiDevicePathLib:DevicePathToText.obj
 0002:00001048       ??_C@_1CE@FDCOMKL@?$AAN?$AAo?$AAT?$AAo?$AAp?$AAo?$AAl?$AAo?$AAg?$AAy?$AA?0?$AA0?$AA?0?$AA0?$AA?0?$AA0?$AA?0?$AA?$AA@ 0000000000007ce8     UefiDevicePathLib:DevicePathToText.obj
 0002:00001070       ??_C@_1BE@MLBJKAMN@?$AA?$CF?$AAs?$AA?0?$AA?$CF?$AAs?$AA?0?$AA?$CF?$AAs?$AA?0?$AA?$AA@ 0000000000007d10     UefiDevicePathLib:DevicePathToText.obj
 0002:00001084       ??_C@_15KAKDEJHH@?$AA0?$AA?0?$AA?$AA@ 0000000000007d24     UefiDevicePathLib:DevicePathToText.obj
 0002:00001090       ??_C@_1M@MJJODJOA@?$AA0?$AAx?$AA?$CF?$AAx?$AA?0?$AA?$AA@ 0000000000007d30     UefiDevicePathLib:DevicePathToText.obj
 0002:000010a0       ??_C@_1BI@EOONELPP@?$AA0?$AAx?$AA?$CF?$AAx?$AA?0?$AA0?$AA?0?$AA0?$AA?0?$AA0?$AA?0?$AA?$AA@ 0000000000007d40     UefiDevicePathLib:DevicePathToText.obj
 0002:000010b8       ??_C@_1M@POEAMJNC@?$AA0?$AAx?$AA?$CF?$AAx?$AA?$CJ?$AA?$AA@ 0000000000007d58     UefiDevicePathLib:DevicePathToText.obj
 0002:000010c8       ??_C@_1BI@IHPCIEPJ@?$AAD?$AAe?$AAb?$AAu?$AAg?$AAP?$AAo?$AAr?$AAt?$AA?$CI?$AA?$CJ?$AA?$AA@ 0000000000007d68     UefiDevicePathLib:DevicePathToText.obj
 0002:000010e0       ??_C@_13HGPDMIBE@?$AA?$DP?$AA?$AA@ 0000000000007d80     UefiDevicePathLib:DevicePathToText.obj
 0002:000010e8       ??_C@_1BC@EAAHJKNI@?$AAV?$AAe?$AAn?$AA?$CF?$AAs?$AA?$CI?$AA?$CF?$AAg?$AA?$AA@ 0000000000007d88     UefiDevicePathLib:DevicePathToText.obj
 0002:000010fc       ??_C@_13DEFPDAGF@?$AA?0?$AA?$AA@ 0000000000007d9c     UefiDevicePathLib:DevicePathToText.obj
 0002:00001100       ??_C@_19NHPFCCLF@?$AA?$CF?$AA0?$AA2?$AAx?$AA?$AA@ 0000000000007da0     UefiDevicePathLib:DevicePathToText.obj
 0002:0000110c       ??_C@_13DIBMAFH@?$AA?$CJ?$AA?$AA@ 0000000000007dac     UefiDevicePathLib:DevicePathToText.obj
 0002:00001110       ??_C@_1BG@PDEHEHNB@?$AAC?$AAt?$AAr?$AAl?$AA?$CI?$AA0?$AAx?$AA?$CF?$AAx?$AA?$CJ?$AA?$AA@ 0000000000007db0     UefiDevicePathLib:DevicePathToText.obj
 0002:00001128       ??_C@_1CA@OCDNKJMI@?$AAB?$AAM?$AAC?$AA?$CI?$AA0?$AAx?$AA?$CF?$AAx?$AA?0?$AA0?$AAx?$AA?$CF?$AAl?$AAx?$AA?$CJ?$AA?$AA@ 0000000000007dc8     UefiDevicePathLib:DevicePathToText.obj
 0002:00001148       ??_C@_1BM@LLBDFMIK@?$AAP?$AAc?$AAi?$AAR?$AAo?$AAo?$AAt?$AA?$CI?$AA0?$AAx?$AA?$CF?$AAx?$AA?$CJ?$AA?$AA@ 0000000000007de8     UefiDevicePathLib:DevicePathToText.obj
 0002:00001168       ??_C@_1BO@IHBMGOPI@?$AAP?$AAc?$AAi?$AAe?$AAR?$AAo?$AAo?$AAt?$AA?$CI?$AA0?$AAx?$AA?$CF?$AAx?$AA?$CJ?$AA?$AA@ 0000000000007e08     UefiDevicePathLib:DevicePathToText.obj
 0002:00001188       ??_C@_1BK@NGLNBACO@?$AAF?$AAl?$AAo?$AAp?$AAp?$AAy?$AA?$CI?$AA0?$AAx?$AA?$CF?$AAx?$AA?$CJ?$AA?$AA@ 0000000000007e28     UefiDevicePathLib:DevicePathToText.obj
 0002:000011a8       ??_C@_1BO@OEKEOEOK@?$AAK?$AAe?$AAy?$AAb?$AAo?$AAa?$AAr?$AAd?$AA?$CI?$AA0?$AAx?$AA?$CF?$AAx?$AA?$CJ?$AA?$AA@ 0000000000007e48     UefiDevicePathLib:DevicePathToText.obj
 0002:000011c8       ??_C@_1BK@PMIGPGKH@?$AAS?$AAe?$AAr?$AAi?$AAa?$AAl?$AA?$CI?$AA0?$AAx?$AA?$CF?$AAx?$AA?$CJ?$AA?$AA@ 0000000000007e68     UefiDevicePathLib:DevicePathToText.obj
 0002:000011e8       ??_C@_1CG@CPMOJELH@?$AAP?$AAa?$AAr?$AAa?$AAl?$AAl?$AAe?$AAl?$AAP?$AAo?$AAr?$AAt?$AA?$CI?$AA0?$AAx?$AA?$CF?$AAx?$AA?$CJ?$AA?$AA@ 0000000000007e88     UefiDevicePathLib:DevicePathToText.obj
 0002:00001210       ??_C@_1CG@JCMCADBM@?$AAA?$AAc?$AAp?$AAi?$AA?$CI?$AAP?$AAN?$AAP?$AA?$CF?$AA0?$AA4?$AAx?$AA?0?$AA0?$AAx?$AA?$CF?$AAx?$AA?$CJ?$AA?$AA@ 0000000000007eb0     UefiDevicePathLib:DevicePathToText.obj
 0002:00001238       ??_C@_1CE@CLIAMHCD@?$AAA?$AAc?$AAp?$AAi?$AA?$CI?$AA0?$AAx?$AA?$CF?$AA0?$AA8?$AAx?$AA?0?$AA0?$AAx?$AA?$CF?$AAx?$AA?$CJ?$AA?$AA@ 0000000000007ed8     UefiDevicePathLib:DevicePathToText.obj
 0002:00001260       ??_C@_1BG@BGLICHDL@?$AA?$CF?$AAc?$AA?$CF?$AAc?$AA?$CF?$AAc?$AA?$CF?$AA0?$AA4?$AAX?$AA?$AA@ 0000000000007f00     UefiDevicePathLib:DevicePathToText.obj
 0002:00001278       ??_C@_1CE@CGEKHGFF@?$AAA?$AAc?$AAp?$AAi?$AAE?$AAx?$AAp?$AA?$CI?$AA?$CF?$AAs?$AA?0?$AA?$CF?$AAs?$AA?0?$AA?$CF?$AAa?$AA?$CJ?$AA?$AA@ 0000000000007f18     UefiDevicePathLib:DevicePathToText.obj
 0002:000012a0       ??_C@_1BG@EEDCOCH@?$AAA?$AAc?$AAp?$AAi?$AAE?$AAx?$AA?$CI?$AA?$CF?$AAa?$AA?0?$AA?$AA@ 0000000000007f40     UefiDevicePathLib:DevicePathToText.obj
 0002:000012b8       ??_C@_1BG@EKFNINLH@?$AAA?$AAc?$AAp?$AAi?$AAE?$AAx?$AA?$CI?$AA?$CF?$AAs?$AA?0?$AA?$AA@ 0000000000007f58     UefiDevicePathLib:DevicePathToText.obj
 0002:000012d0       ??_C@_17CAHIANN@?$AA?$CF?$AAa?$AA?0?$AA?$AA@ 0000000000007f70     UefiDevicePathLib:DevicePathToText.obj
 0002:000012d8       ??_C@_17DFNJHAOP@?$AA?$CF?$AAa?$AA?$CJ?$AA?$AA@ 0000000000007f78     UefiDevicePathLib:DevicePathToText.obj
 0002:000012e0       ??_C@_17HLMHNDHP@?$AA?$CF?$AAs?$AA?$CJ?$AA?$AA@ 0000000000007f80     UefiDevicePathLib:DevicePathToText.obj
 0002:000012e8       ??_C@_1DI@HGKBPPFE@?$AAA?$AAc?$AAp?$AAi?$AAE?$AAx?$AA?$CI?$AA?$CF?$AAs?$AA?0?$AA?$CF?$AAs?$AA?0?$AA0?$AAx?$AA?$CF?$AAx?$AA?0?$AA?$CF?$AAa?$AA?0?$AA?$CF?$AAa?$AA?0?$AA?$CF?$AAa?$AA?$CJ?$AA?$AA@ 0000000000007f88     UefiDevicePathLib:DevicePathToText.obj
 0002:00001320       ??_C@_1BK@IMGBACLG@?$AAA?$AAc?$AAp?$AAi?$AAA?$AAd?$AAr?$AA?$CI?$AA0?$AAx?$AA?$CF?$AAx?$AA?$AA@ 0000000000007fc0     UefiDevicePathLib:DevicePathToText.obj
 0002:00001340       ??_C@_1M@HHLNLLAC@?$AA?0?$AA0?$AAx?$AA?$CF?$AAx?$AA?$AA@ 0000000000007fe0     UefiDevicePathLib:DevicePathToText.obj
 0002:00001350       ??_C@_1BE@HBALDGNG@?$AAA?$AAt?$AAa?$AA?$CI?$AA0?$AAx?$AA?$CF?$AAx?$AA?$CJ?$AA?$AA@ 0000000000007ff0     UefiDevicePathLib:DevicePathToText.obj
 0002:00001368       ??_C@_1CA@EFDNFHKP@?$AAA?$AAt?$AAa?$AA?$CI?$AA?$CF?$AAs?$AA?0?$AA?$CF?$AAs?$AA?0?$AA0?$AAx?$AA?$CF?$AAx?$AA?$CJ?$AA?$AA@ 0000000000008008     UefiDevicePathLib:DevicePathToText.obj
 0002:00001388       ??_C@_1CA@JGIMMJKB@?$AAS?$AAc?$AAs?$AAi?$AA?$CI?$AA0?$AAx?$AA?$CF?$AAx?$AA?0?$AA0?$AAx?$AA?$CF?$AAx?$AA?$CJ?$AA?$AA@ 0000000000008028     UefiDevicePathLib:DevicePathToText.obj
 0002:000013a8       ??_C@_1CG@OFFLOOAD@?$AAF?$AAi?$AAb?$AAr?$AAe?$AA?$CI?$AA0?$AAx?$AA?$CF?$AAl?$AAx?$AA?0?$AA0?$AAx?$AA?$CF?$AAl?$AAx?$AA?$CJ?$AA?$AA@ 0000000000008048     UefiDevicePathLib:DevicePathToText.obj
 0002:000013d0       ??_C@_1BG@EHEKANON@?$AAF?$AAi?$AAb?$AAr?$AAe?$AAE?$AAx?$AA?$CI?$AA0?$AAx?$AA?$AA@ 0000000000008070     UefiDevicePathLib:DevicePathToText.obj
 0002:000013e8       ??_C@_17JOPFNIFB@?$AA?0?$AA0?$AAx?$AA?$AA@ 0000000000008088     UefiDevicePathLib:DevicePathToText.obj
 0002:000013f0       ??_C@_1BC@CKFHLIJB@?$AAS?$AAa?$AAs?$AAE?$AAx?$AA?$CI?$AA0?$AAx?$AA?$AA@ 0000000000008090     UefiDevicePathLib:DevicePathToText.obj
 0002:00001408       ??_C@_1O@IEGBGPLN@?$AA?0?$AA0?$AAx?$AA?$CF?$AAx?$AA?0?$AA?$AA@ 00000000000080a8     UefiDevicePathLib:DevicePathToText.obj
 0002:00001418       ??_C@_1CC@FKOFEPIC@?$AAN?$AAo?$AAT?$AAo?$AAp?$AAo?$AAl?$AAo?$AAg?$AAy?$AA?0?$AA0?$AA?0?$AA0?$AA?0?$AA0?$AA?$AA@ 00000000000080b8     UefiDevicePathLib:DevicePathToText.obj
 0002:0000143c       ??_C@_13COJANIEC@?$AA0?$AA?$AA@ 00000000000080dc     UefiDevicePathLib:DevicePathToText.obj
 0002:00001440       ??_C@_19PCNJIDGC@?$AA0?$AAx?$AA?$CF?$AAx?$AA?$AA@ 00000000000080e0     UefiDevicePathLib:DevicePathToText.obj
 0002:00001450       ??_C@_1BG@JCDPLMKI@?$AA0?$AAx?$AA?$CF?$AAx?$AA?0?$AA0?$AA?0?$AA0?$AA?0?$AA0?$AA?$AA@ 00000000000080f0     UefiDevicePathLib:DevicePathToText.obj
 0002:00001470       ??_C@_1GG@KPIKGINP@?$AAN?$AAV?$AAM?$AAe?$AA?$CI?$AA0?$AAx?$AA?$CF?$AAx?$AA?0?$AA?$CF?$AA0?$AA2?$AAx?$AA?9?$AA?$CF?$AA0?$AA2?$AAx?$AA?9?$AA?$CF?$AA0?$AA2?$AAx?$AA?9?$AA?$CF?$AA0?$AA2?$AAx?$AA?9?$AA?$CF?$AA0@ 0000000000008110     UefiDevicePathLib:DevicePathToText.obj
 0002:000014d8       ??_C@_1BO@HJLBIHHO@?$AAU?$AAF?$AAS?$AA?$CI?$AA0?$AAx?$AA?$CF?$AAx?$AA?0?$AA0?$AAx?$AA?$CF?$AAx?$AA?$CJ?$AA?$AA@ 0000000000008178     UefiDevicePathLib:DevicePathToText.obj
 0002:000014f8       ??_C@_1BC@JIFEONHJ@?$AAS?$AAD?$AA?$CI?$AA0?$AAx?$AA?$CF?$AAx?$AA?$CJ?$AA?$AA@ 0000000000008198     UefiDevicePathLib:DevicePathToText.obj
 0002:00001510       ??_C@_1BG@MPPKMEMK@?$AAE?$AAm?$AAm?$AAc?$AA?$CI?$AA0?$AAx?$AA?$CF?$AAx?$AA?$CJ?$AA?$AA@ 00000000000081b0     UefiDevicePathLib:DevicePathToText.obj
 0002:00001528       ??_C@_1BM@OFMOJDLM@?$AAI?$AA1?$AA3?$AA9?$AA4?$AA?$CI?$AA?$CF?$AA0?$AA1?$AA6?$AAl?$AAx?$AA?$CJ?$AA?$AA@ 00000000000081c8     UefiDevicePathLib:DevicePathToText.obj
 0002:00001548       ??_C@_1BO@CIMDKCCI@?$AAU?$AAS?$AAB?$AA?$CI?$AA0?$AAx?$AA?$CF?$AAx?$AA?0?$AA0?$AAx?$AA?$CF?$AAx?$AA?$CJ?$AA?$AA@ 00000000000081e8     UefiDevicePathLib:DevicePathToText.obj
 0002:00001568       ??_C@_1DK@IPDOPIPA@?$AAU?$AAs?$AAb?$AAW?$AAw?$AAi?$AAd?$AA?$CI?$AA0?$AAx?$AA?$CF?$AAx?$AA?0?$AA0?$AAx?$AA?$CF?$AAx?$AA?0?$AA0?$AAx?$AA?$CF?$AAx?$AA?0?$AA?$CC?$AA?$CF?$AAs?$AA?$CC?$AA?$CJ?$AA?$AA@ 0000000000008208     UefiDevicePathLib:DevicePathToText.obj
 0002:000015a8       ??_C@_1BG@NJNCNCKM@?$AAU?$AAn?$AAi?$AAt?$AA?$CI?$AA0?$AAx?$AA?$CF?$AAx?$AA?$CJ?$AA?$AA@ 0000000000008248     UefiDevicePathLib:DevicePathToText.obj
 0002:000015c0       ??_C@_1CM@JDEAFCK@?$AA?$CI?$AA0?$AAx?$AA?$CF?$AAx?$AA?0?$AA0?$AAx?$AA?$CF?$AAx?$AA?0?$AA0?$AAx?$AA?$CF?$AAx?$AA?0?$AA0?$AAx?$AA?$CF?$AAx?$AA?$CJ?$AA?$AA@ 0000000000008260     UefiDevicePathLib:DevicePathToText.obj
 0002:000015f0       ??_C@_1FA@DIDNHLOK@?$AAU?$AAs?$AAb?$AAD?$AAe?$AAv?$AAi?$AAc?$AAe?$AAF?$AAi?$AAr?$AAm?$AAw?$AAa?$AAr?$AAe?$AAU?$AAp?$AAd?$AAa?$AAt?$AAe?$AA?$CI?$AA0?$AAx?$AA?$CF?$AAx?$AA?0?$AA0?$AAx?$AA?$CF@ 0000000000008290     UefiDevicePathLib:DevicePathToText.obj
 0002:00001640       ??_C@_1DM@JLMEALMP@?$AAU?$AAs?$AAb?$AAI?$AAr?$AAd?$AAa?$AAB?$AAr?$AAi?$AAd?$AAg?$AAe?$AA?$CI?$AA0?$AAx?$AA?$CF?$AAx?$AA?0?$AA0?$AAx?$AA?$CF?$AAx?$AA?0?$AA0?$AAx?$AA?$CF?$AAx?$AA?$CJ?$AA?$AA@ 00000000000082e0     UefiDevicePathLib:DevicePathToText.obj
 0002:00001680       ??_C@_1EM@PFIODAIB@?$AAU?$AAs?$AAb?$AAT?$AAe?$AAs?$AAt?$AAA?$AAn?$AAd?$AAM?$AAe?$AAa?$AAs?$AAu?$AAr?$AAe?$AAm?$AAe?$AAn?$AAt?$AA?$CI?$AA0?$AAx?$AA?$CF?$AAx?$AA?0?$AA0?$AAx?$AA?$CF?$AAx?$AA?0@ 0000000000008320     UefiDevicePathLib:DevicePathToText.obj
 0002:000016d0       ??_C@_1EG@NMOJJABI@?$AAU?$AAs?$AAb?$AAC?$AAl?$AAa?$AAs?$AAs?$AA?$CI?$AA0?$AAx?$AA?$CF?$AAx?$AA?0?$AA0?$AAx?$AA?$CF?$AAx?$AA?0?$AA0?$AAx?$AA?$CF?$AAx?$AA?0?$AA0?$AAx?$AA?$CF?$AAx?$AA?0?$AA0?$AAx?$AA?$CF@ 0000000000008370     UefiDevicePathLib:DevicePathToText.obj
 0002:00001718       ??_C@_1CK@MHLLPHIN@?$AAS?$AAa?$AAt?$AAa?$AA?$CI?$AA0?$AAx?$AA?$CF?$AAx?$AA?0?$AA0?$AAx?$AA?$CF?$AAx?$AA?0?$AA0?$AAx?$AA?$CF?$AAx?$AA?$CJ?$AA?$AA@ 00000000000083b8     UefiDevicePathLib:DevicePathToText.obj
 0002:00001748       ??_C@_1BE@GPJMKBFH@?$AAI?$AA2?$AAO?$AA?$CI?$AA0?$AAx?$AA?$CF?$AAx?$AA?$CJ?$AA?$AA@ 00000000000083e8     UefiDevicePathLib:DevicePathToText.obj
 0002:00001760       ??_C@_19HOEMCGPJ@?$AAM?$AAA?$AAC?$AA?$CI?$AA?$AA@ 0000000000008400     UefiDevicePathLib:DevicePathToText.obj
 0002:00001770       ??_C@_1O@LDLPJPIP@?$AA?0?$AA0?$AAx?$AA?$CF?$AAx?$AA?$CJ?$AA?$AA@ 0000000000008410     UefiDevicePathLib:DevicePathToText.obj
 0002:00001780       ??_C@_1BI@FCMLLAGN@?$AA?$CF?$AAd?$AA?4?$AA?$CF?$AAd?$AA?4?$AA?$CF?$AAd?$AA?4?$AA?$CF?$AAd?$AA?$AA@ 0000000000008420     UefiDevicePathLib:DevicePathToText.obj
 0002:000017a0       ??_C@_1JA@HKGNNMMG@?$AA?$CF?$AA0?$AA2?$AAx?$AA?$CF?$AA0?$AA2?$AAx?$AA?3?$AA?$CF?$AA0?$AA2?$AAx?$AA?$CF?$AA0?$AA2?$AAx?$AA?3?$AA?$CF?$AA0?$AA2?$AAx?$AA?$CF?$AA0?$AA2?$AAx?$AA?3?$AA?$CF?$AA0?$AA2?$AAx?$AA?$CF@ 0000000000008440     UefiDevicePathLib:DevicePathToText.obj
 0002:00001830       ??_C@_1M@KGGIME@?$AAI?$AAP?$AAv?$AA4?$AA?$CI?$AA?$AA@ 00000000000084d0     UefiDevicePathLib:DevicePathToText.obj
 0002:00001840       ??_C@_19DDJNJOGL@?$AAD?$AAH?$AAC?$AAP?$AA?$AA@ 00000000000084e0     UefiDevicePathLib:DevicePathToText.obj
 0002:00001850       ??_C@_19JPNAHHAM@?$AA?0?$AA?$CF?$AAs?$AA?0?$AA?$AA@ 00000000000084f0     UefiDevicePathLib:DevicePathToText.obj
 0002:00001860       ??_C@_1M@ENGOMJMP@?$AAI?$AAP?$AAv?$AA6?$AA?$CI?$AA?$AA@ 0000000000008500     UefiDevicePathLib:DevicePathToText.obj
 0002:00001870       ??_C@_1BC@CMHMGCCH@?$AA?0?$AAS?$AAt?$AAa?$AAt?$AAi?$AAc?$AA?0?$AA?$AA@ 0000000000008510     UefiDevicePathLib:DevicePathToText.obj
 0002:00001888       ??_C@_1DC@LOFPJEEL@?$AA?0?$AAS?$AAt?$AAa?$AAt?$AAe?$AAl?$AAe?$AAs?$AAs?$AAA?$AAu?$AAt?$AAo?$AAC?$AAo?$AAn?$AAf?$AAi?$AAg?$AAu?$AAr?$AAe?$AA?0?$AA?$AA@ 0000000000008528     UefiDevicePathLib:DevicePathToText.obj
 0002:000018c0       ??_C@_1DA@HMGEOIF@?$AA?0?$AAS?$AAt?$AAa?$AAt?$AAe?$AAf?$AAu?$AAl?$AAA?$AAu?$AAt?$AAo?$AAC?$AAo?$AAn?$AAf?$AAi?$AAg?$AAu?$AAr?$AAe?$AA?0?$AA?$AA@ 0000000000008560     UefiDevicePathLib:DevicePathToText.obj
 0002:000018f0       ??_C@_1EM@IPHLFBGI@?$AAI?$AAn?$AAf?$AAi?$AAn?$AAi?$AAb?$AAa?$AAn?$AAd?$AA?$CI?$AA0?$AAx?$AA?$CF?$AAx?$AA?0?$AA?$CF?$AAg?$AA?0?$AA0?$AAx?$AA?$CF?$AAl?$AAx?$AA?0?$AA0?$AAx?$AA?$CF?$AAl?$AAx?$AA?0?$AA0@ 0000000000008590     UefiDevicePathLib:DevicePathToText.obj
 0002:00001940       ??_C@_1BM@EHGODEHA@?$AAU?$AAa?$AAr?$AAt?$AA?$CI?$AAD?$AAE?$AAF?$AAA?$AAU?$AAL?$AAT?$AA?0?$AA?$AA@ 00000000000085e0     UefiDevicePathLib:DevicePathToText.obj
 0002:00001960       ??_C@_1BE@OEIOOGGH@?$AAU?$AAa?$AAr?$AAt?$AA?$CI?$AA?$CF?$AAl?$AAd?$AA?0?$AA?$AA@ 0000000000008600     UefiDevicePathLib:DevicePathToText.obj
 0002:00001978       ??_C@_1BC@DDKPDLCJ@?$AAD?$AAE?$AAF?$AAA?$AAU?$AAL?$AAT?$AA?0?$AA?$AA@ 0000000000008618     UefiDevicePathLib:DevicePathToText.obj
 0002:00001990       ??_C@_17FCMKBBGO@?$AA?$CF?$AAd?$AA?0?$AA?$AA@ 0000000000008630     UefiDevicePathLib:DevicePathToText.obj
 0002:00001998       ??_C@_17EPMPCBNG@?$AA?$CF?$AAc?$AA?0?$AA?$AA@ 0000000000008638     UefiDevicePathLib:DevicePathToText.obj
 0002:000019a0       ??_C@_15HMOPGJC@?$AAD?$AA?$CJ?$AA?$AA@ 0000000000008640     UefiDevicePathLib:DevicePathToText.obj
 0002:000019a8       ??_C@_15FMCBGKOA@?$AA1?$AA?$CJ?$AA?$AA@ 0000000000008648     UefiDevicePathLib:DevicePathToText.obj
 0002:000019b0       ??_C@_19PODFHIEB@?$AA1?$AA?4?$AA5?$AA?$CJ?$AA?$AA@ 0000000000008650     UefiDevicePathLib:DevicePathToText.obj
 0002:000019bc       ??_C@_15NKLFBIEO@?$AA2?$AA?$CJ?$AA?$AA@ 000000000000865c     UefiDevicePathLib:DevicePathToText.obj
 0002:000019c4       ??_C@_15HEHGDBEE@?$AAx?$AA?$CJ?$AA?$AA@ 0000000000008664     UefiDevicePathLib:DevicePathToText.obj
 0002:000019d0       ??_C@_1CK@BGFCLAKJ@?$AAi?$AAS?$AAC?$AAS?$AAI?$AA?$CI?$AA?$CF?$AAa?$AA?0?$AA0?$AAx?$AA?$CF?$AAx?$AA?0?$AA0?$AAx?$AA?$CF?$AAl?$AAx?$AA?0?$AA?$AA@ 0000000000008670     UefiDevicePathLib:DevicePathToText.obj
 0002:00001a00       ??_C@_17EMBJCDEN@?$AA?$CF?$AAs?$AA?0?$AA?$AA@ 00000000000086a0     UefiDevicePathLib:DevicePathToText.obj
 0002:00001a08       ??_C@_1BA@FMEKDPAI@?$AAC?$AAH?$AAA?$AAP?$AA_?$AAB?$AAI?$AA?$AA@ 00000000000086a8     UefiDevicePathLib:DevicePathToText.obj
 0002:00001a18       ??_C@_1BC@EFEBCBGB@?$AAr?$AAe?$AAs?$AAe?$AAr?$AAv?$AAe?$AAd?$AA?$AA@ 00000000000086b8     UefiDevicePathLib:DevicePathToText.obj
 0002:00001a30       ??_C@_1BC@OPCHKNKH@?$AAV?$AAl?$AAa?$AAn?$AA?$CI?$AA?$CF?$AAd?$AA?$CJ?$AA?$AA@ 00000000000086d0     UefiDevicePathLib:DevicePathToText.obj
 0002:00001a50       ??_C@_1EI@EPMFLBAJ@?$AAB?$AAl?$AAu?$AAe?$AAt?$AAo?$AAo?$AAt?$AAh?$AA?$CI?$AA?$CF?$AA0?$AA2?$AAx?$AA?$CF?$AA0?$AA2?$AAx?$AA?$CF?$AA0?$AA2?$AAx?$AA?$CF?$AA0?$AA2?$AAx?$AA?$CF?$AA0?$AA2?$AAx?$AA?$CF?$AA0@ 00000000000086f0     UefiDevicePathLib:DevicePathToText.obj
 0002:00001a98       ??_C@_1BE@DKODNJMI@?$AAW?$AAi?$AA?9?$AAF?$AAi?$AA?$CI?$AA?$CF?$AAa?$AA?$CJ?$AA?$AA@ 0000000000008738     UefiDevicePathLib:DevicePathToText.obj
 0002:00001ab0       ??_C@_1BA@OMDAJDPE@?$AAU?$AAr?$AAi?$AA?$CI?$AA?$CF?$AAa?$AA?$CJ?$AA?$AA@ 0000000000008750     UefiDevicePathLib:DevicePathToText.obj
 0002:00001ac0       ??_C@_1CC@GGNPKJFE@?$AAH?$AAD?$AA?$CI?$AA?$CF?$AAd?$AA?0?$AA?$CF?$AAs?$AA?0?$AA0?$AAx?$AA?$CF?$AA0?$AA8?$AAx?$AA?0?$AA?$AA@ 0000000000008760     UefiDevicePathLib:DevicePathToText.obj
 0002:00001ae8       ??_C@_1BK@NDBPAJDF@?$AAH?$AAD?$AA?$CI?$AA?$CF?$AAd?$AA?0?$AA?$CF?$AAs?$AA?0?$AA?$CF?$AAg?$AA?0?$AA?$AA@ 0000000000008788     UefiDevicePathLib:DevicePathToText.obj
 0002:00001b08       ??_C@_1BI@BCKDFMFI@?$AAH?$AAD?$AA?$CI?$AA?$CF?$AAd?$AA?0?$AA?$CF?$AAd?$AA?0?$AA0?$AA?0?$AA?$AA@ 00000000000087a8     UefiDevicePathLib:DevicePathToText.obj
 0002:00001b20       ??_C@_1BK@MMBDHGIK@?$AA0?$AAx?$AA?$CF?$AAl?$AAx?$AA?0?$AA0?$AAx?$AA?$CF?$AAl?$AAx?$AA?$CJ?$AA?$AA@ 00000000000087c0     UefiDevicePathLib:DevicePathToText.obj
 0002:00001b40       ??_C@_1BI@EEHCFNDN@?$AAC?$AAD?$AAR?$AAO?$AAM?$AA?$CI?$AA0?$AAx?$AA?$CF?$AAx?$AA?$CJ?$AA?$AA@ 00000000000087e0     UefiDevicePathLib:DevicePathToText.obj
 0002:00001b58       ??_C@_1DA@JMLBJEDN@?$AAC?$AAD?$AAR?$AAO?$AAM?$AA?$CI?$AA0?$AAx?$AA?$CF?$AAx?$AA?0?$AA0?$AAx?$AA?$CF?$AAl?$AAx?$AA?0?$AA0?$AAx?$AA?$CF?$AAl?$AAx?$AA?$CJ?$AA?$AA@ 00000000000087f8     UefiDevicePathLib:DevicePathToText.obj
 0002:00001b88       ??_C@_15GANGMFKL@?$AA?$CF?$AAs?$AA?$AA@ 0000000000008828     UefiDevicePathLib:DevicePathToText.obj
 0002:00001b90       ??_C@_1BE@CJGJAKDA@?$AAM?$AAe?$AAd?$AAi?$AAa?$AA?$CI?$AA?$CF?$AAg?$AA?$CJ?$AA?$AA@ 0000000000008830     UefiDevicePathLib:DevicePathToText.obj
 0002:00001ba8       ??_C@_1O@HJJPOOCL@?$AAF?$AAv?$AA?$CI?$AA?$CF?$AAg?$AA?$CJ?$AA?$AA@ 0000000000008848     UefiDevicePathLib:DevicePathToText.obj
 0002:00001bb8       ??_C@_1BG@MHENELFF@?$AAF?$AAv?$AAF?$AAi?$AAl?$AAe?$AA?$CI?$AA?$CF?$AAg?$AA?$CJ?$AA?$AA@ 0000000000008858     UefiDevicePathLib:DevicePathToText.obj
 0002:00001bd0       ??_C@_1CI@FAOKAOM@?$AAO?$AAf?$AAf?$AAs?$AAe?$AAt?$AA?$CI?$AA0?$AAx?$AA?$CF?$AAl?$AAx?$AA?0?$AA0?$AAx?$AA?$CF?$AAl?$AAx?$AA?$CJ?$AA?$AA@ 0000000000008870     UefiDevicePathLib:DevicePathToText.obj
 0002:00001bf8       ??_C@_1DI@GJAGNPCG@?$AAV?$AAi?$AAr?$AAt?$AAu?$AAa?$AAl?$AAD?$AAi?$AAs?$AAk?$AA?$CI?$AA0?$AAx?$AA?$CF?$AAl?$AAx?$AA?0?$AA0?$AAx?$AA?$CF?$AAl?$AAx?$AA?0?$AA?$CF?$AAd?$AA?$CJ?$AA?$AA@ 0000000000008898     UefiDevicePathLib:DevicePathToText.obj
 0002:00001c30       ??_C@_1DE@FBEBFJJD@?$AAV?$AAi?$AAr?$AAt?$AAu?$AAa?$AAl?$AAC?$AAD?$AA?$CI?$AA0?$AAx?$AA?$CF?$AAl?$AAx?$AA?0?$AA0?$AAx?$AA?$CF?$AAl?$AAx?$AA?0?$AA?$CF?$AAd?$AA?$CJ?$AA?$AA@ 00000000000088d0     UefiDevicePathLib:DevicePathToText.obj
 0002:00001c70       ??_C@_1EM@PFGFJDCD@?$AAP?$AAe?$AAr?$AAs?$AAi?$AAs?$AAt?$AAe?$AAn?$AAt?$AAV?$AAi?$AAr?$AAt?$AAu?$AAa?$AAl?$AAD?$AAi?$AAs?$AAk?$AA?$CI?$AA0?$AAx?$AA?$CF?$AAl?$AAx?$AA?0?$AA0?$AAx?$AA?$CF?$AAl@ 0000000000008910     UefiDevicePathLib:DevicePathToText.obj
 0002:00001cc0       ??_C@_1EI@IJLGIAIE@?$AAP?$AAe?$AAr?$AAs?$AAi?$AAs?$AAt?$AAe?$AAn?$AAt?$AAV?$AAi?$AAr?$AAt?$AAu?$AAa?$AAl?$AAC?$AAD?$AA?$CI?$AA0?$AAx?$AA?$CF?$AAl?$AAx?$AA?0?$AA0?$AAx?$AA?$CF?$AAl?$AAx?$AA?0@ 0000000000008960     UefiDevicePathLib:DevicePathToText.obj
 0002:00001d08       ??_C@_1DG@IFGHOPEL@?$AAR?$AAa?$AAm?$AAD?$AAi?$AAs?$AAk?$AA?$CI?$AA0?$AAx?$AA?$CF?$AAl?$AAx?$AA?0?$AA0?$AAx?$AA?$CF?$AAl?$AAx?$AA?0?$AA?$CF?$AAd?$AA?0?$AA?$CF?$AAg?$AA?$CJ?$AA?$AA@ 00000000000089a8     UefiDevicePathLib:DevicePathToText.obj
 0002:00001d40       ??_C@_1BE@EICHFCPK@?$AAB?$AAB?$AAS?$AA?$CI?$AA?$CF?$AAs?$AA?0?$AA?$CF?$AAa?$AA?$AA@ 00000000000089e0     UefiDevicePathLib:DevicePathToText.obj
 0002:00001d58       ??_C@_1BI@EAEHELAJ@?$AAB?$AAB?$AAS?$AA?$CI?$AA0?$AAx?$AA?$CF?$AAx?$AA?0?$AA?$CF?$AAa?$AA?$AA@ 00000000000089f8     UefiDevicePathLib:DevicePathToText.obj
 0002:00001d70       mUefiDevicePathLibToTextTableGeneric 0000000000008a10     UefiDevicePathLib:DevicePathToText.obj
 0002:00001dd0       ??_C@_1BG@BNMBFAIA@?$AAP?$AAa?$AAt?$AAh?$AA?$CI?$AA?$CF?$AAd?$AA?0?$AA?$CF?$AAd?$AA?$AA@ 0000000000008a70     UefiDevicePathLib:DevicePathToText.obj
 0002:00001de8       ??_C@_1M@NAHACGNB@?$AA?$CF?$AAs?$AA?$CI?$AA?$CF?$AAd?$AA?$AA@ 0000000000008a88     UefiDevicePathLib:DevicePathToText.obj
 0002:00001e00       mUefiDevicePathLibToTextTable 0000000000008aa0     UefiDevicePathLib:DevicePathToText.obj
 0002:00002100       ??_C@_13CGOKJPIL@?$AA?1?$AA?$AA@ 0000000000008da0     UefiDevicePathLib:DevicePathToText.obj
 0002:00002108       ??_C@_0BB@MFGDFIJM@Compromised?5Data?$AA@ 0000000000008da8     BasePrintLib:PrintLibInternal.obj
 0002:00002120       ??_C@_0BB@KFJAMCOC@Invalid?5Language?$AA@ 0000000000008dc0     BasePrintLib:PrintLibInternal.obj
 0002:00002138       ??_C@_0M@FKGOBENP@End?5of?5File?$AA@ 0000000000008dd8     BasePrintLib:PrintLibInternal.obj
 0002:00002148       ??_C@_0O@GLPDOMCP@Reserved?5?$CI30?$CJ?$AA@ 0000000000008de8     BasePrintLib:PrintLibInternal.obj
 0002:00002158       ??_C@_0O@NMJOLAMF@Reserved?5?$CI29?$CJ?$AA@ 0000000000008df8     BasePrintLib:PrintLibInternal.obj
 0002:00002168       ??_C@_0N@JEJDHPO@End?5of?5Media?$AA@ 0000000000008e08     BasePrintLib:PrintLibInternal.obj
 0002:00002178       ??_C@_09BOMAGJEG@CRC?5Error?$AA@ 0000000000008e18     BasePrintLib:PrintLibInternal.obj
 0002:00002188       ??_C@_0BD@KHMPCIOG@Security?5Violation?$AA@ 0000000000008e28     BasePrintLib:PrintLibInternal.obj
 0002:000021a0       ??_C@_0BF@EHOBGFMI@Incompatible?5Version?$AA@ 0000000000008e40     BasePrintLib:PrintLibInternal.obj
 0002:000021b8       ??_C@_0P@NCJHBCLM@Protocol?5Error?$AA@ 0000000000008e58     BasePrintLib:PrintLibInternal.obj
 0002:000021c8       ??_C@_0L@DJKNJKHM@TFTP?5Error?$AA@ 0000000000008e68     BasePrintLib:PrintLibInternal.obj
 0002:000021d8       ??_C@_0L@LKIFCMNO@ICMP?5Error?$AA@ 0000000000008e78     BasePrintLib:PrintLibInternal.obj
 0002:000021e8       ??_C@_07LCKDCBKK@Aborted?$AA@ 0000000000008e88     BasePrintLib:PrintLibInternal.obj
 0002:000021f0       ??_C@_0BA@IGIBFFPH@Already?5started?$AA@ 0000000000008e90     BasePrintLib:PrintLibInternal.obj
 0002:00002200       ??_C@_0M@DCJFAFHJ@Not?5started?$AA@ 0000000000008ea0     BasePrintLib:PrintLibInternal.obj
 0002:00002210       ??_C@_08PAFJCNGP@Time?5out?$AA@ 0000000000008eb0     BasePrintLib:PrintLibInternal.obj
 0002:00002220       ??_C@_0L@IFPBNFC@No?5mapping?$AA@ 0000000000008ec0     BasePrintLib:PrintLibInternal.obj
 0002:00002230       ??_C@_0M@ENKCBFEP@No?5Response?$AA@ 0000000000008ed0     BasePrintLib:PrintLibInternal.obj
 0002:00002240       ??_C@_0O@NFHOBIDO@Access?5Denied?$AA@ 0000000000008ee0     BasePrintLib:PrintLibInternal.obj
 0002:00002250       ??_C@_09CFCBFJND@Not?5Found?$AA@ 0000000000008ef0     BasePrintLib:PrintLibInternal.obj
 0002:00002260       ??_C@_0O@JNCJKCCD@Media?5changed?$AA@ 0000000000008f00     BasePrintLib:PrintLibInternal.obj
 0002:00002270       ??_C@_08KEGAJDNN@No?5Media?$AA@ 0000000000008f10     BasePrintLib:PrintLibInternal.obj
 0002:00002280       ??_C@_0M@HDLEPOFA@Volume?5Full?$AA@ 0000000000008f20     BasePrintLib:PrintLibInternal.obj
 0002:00002290       ??_C@_0P@EIOJGIF@Volume?5Corrupt?$AA@ 0000000000008f30     BasePrintLib:PrintLibInternal.obj
 0002:000022a0       ??_C@_0BB@GOILNEAA@Out?5of?5Resources?$AA@ 0000000000008f40     BasePrintLib:PrintLibInternal.obj
 0002:000022b8       ??_C@_0BA@LNEDDFNB@Write?5Protected?$AA@ 0000000000008f58     BasePrintLib:PrintLibInternal.obj
 0002:000022c8       ??_C@_0N@HHEABDHO@Device?5Error?$AA@ 0000000000008f68     BasePrintLib:PrintLibInternal.obj
 0002:000022d8       ??_C@_09NKFGCIPN@Not?5Ready?$AA@ 0000000000008f78     BasePrintLib:PrintLibInternal.obj
 0002:000022e8       ??_C@_0BB@EGELJFOB@Buffer?5Too?5Small?$AA@ 0000000000008f88     BasePrintLib:PrintLibInternal.obj
 0002:00002300       ??_C@_0BA@FLNMPMCF@Bad?5Buffer?5Size?$AA@ 0000000000008fa0     BasePrintLib:PrintLibInternal.obj
 0002:00002310       ??_C@_0M@BEECMOIL@Unsupported?$AA@ 0000000000008fb0     BasePrintLib:PrintLibInternal.obj
 0002:00002320       ??_C@_0BC@HOFHKGJN@Invalid?5Parameter?$AA@ 0000000000008fc0     BasePrintLib:PrintLibInternal.obj
 0002:00002338       ??_C@_0L@PLPBEPPC@Load?5Error?$AA@ 0000000000008fd8     BasePrintLib:PrintLibInternal.obj
 0002:00002348       ??_C@_0BD@IFJNJCCO@Warning?5Stale?5Data?$AA@ 0000000000008fe8     BasePrintLib:PrintLibInternal.obj
 0002:00002360       ??_C@_0BJ@ODIPDGHB@Warning?5Buffer?5Too?5Small?$AA@ 0000000000009000     BasePrintLib:PrintLibInternal.obj
 0002:00002380       ??_C@_0BG@ECIJMOED@Warning?5Write?5Failure?$AA@ 0000000000009020     BasePrintLib:PrintLibInternal.obj
 0002:00002398       ??_C@_0BH@GKKCJEPJ@Warning?5Delete?5Failure?$AA@ 0000000000009038     BasePrintLib:PrintLibInternal.obj
 0002:000023b0       ??_C@_0BG@CFJMNNJK@Warning?5Unknown?5Glyph?$AA@ 0000000000009050     BasePrintLib:PrintLibInternal.obj
 0002:000023c8       ??_C@_07PBILKAFL@Success?$AA@ 0000000000009068     BasePrintLib:PrintLibInternal.obj
 0002:000023d0       mHexStr                    0000000000009070     BasePrintLib:PrintLibInternal.obj
 0002:000023e0       mStatusString              0000000000009080     BasePrintLib:PrintLibInternal.obj
 0002:00002518       ??_C@_0O@MLOLIMFM@?$DMnull?5string?$DO?$AA@ 00000000000091b8     BasePrintLib:PrintLibInternal.obj
 0002:00002528       ??_C@_0M@BJJDNPHK@?$DMnull?5guid?$DO?$AA@ 00000000000091c8     BasePrintLib:PrintLibInternal.obj
 0002:00002538       ??_C@_0DB@PMLHLBMO@?$CF08x?9?$CF04x?9?$CF04x?9?$CF02x?$CF02x?9?$CF02x?$CF02x@ 00000000000091d8     BasePrintLib:PrintLibInternal.obj
 0002:00002570       ??_C@_0M@LHGBCIKM@?$DMnull?5time?$DO?$AA@ 0000000000009210     BasePrintLib:PrintLibInternal.obj
 0002:00002580       ??_C@_0BK@FCPKCIDD@?$CF02d?1?$CF02d?1?$CF04d?5?5?$CF02d?3?$CF02d?$AA@ 0000000000009220     BasePrintLib:PrintLibInternal.obj
 0002:0000259c       ??_C@_04JIMNDDED@?$CF08X?$AA@ 000000000000923c     BasePrintLib:PrintLibInternal.obj
 0002:000025a4       ??_C@_02PCIJFNDE@?$AN?6?$AA@ 0000000000009244     BasePrintLib:PrintLibInternal.obj
 0002:000025a8       ??_C@_01LIIJDEN@?$AN?$AA@  0000000000009248     BasePrintLib:PrintLibInternal.obj
 0002:000025b0       gImageHandle               0000000000009250     UefiBootServicesTableLib:UefiBootServicesTableLib.obj
 0002:000025b8       gST                        0000000000009258     UefiBootServicesTableLib:UefiBootServicesTableLib.obj
 0002:000025c0       gBS                        0000000000009260     UefiBootServicesTableLib:UefiBootServicesTableLib.obj

 entry point at        0001:00000000

 Static symbols

