 Dhcp4Dxe

 Timestamp is 6448e7f5 (Wed Apr 26 16:59:33 2023)

 Preferred load address is 0000000000000000

 Start         Length     Name                   Class
 0001:00000000 000064b2H .text                   CODE
 0002:00000000 00000e64H .data                   DATA
 0002:00000e70 0000030cH .rdata                  DATA
 0002:00001180 00000050H .bss                    DATA
 0003:00000000 00000444H .pdata                  DATA
 0004:00000000 00000390H .xdata                  DATA

  Address         Publics by Value              Rva+Base               Lib:Object

 0000:00000000       __ImageBase                0000000000000000     <linker-defined>
 0001:00000000       _DriverUnloadHandler       00000000000002a0 f   UefiDriverEntryPoint:DriverEntryPoint.obj
 0001:0000018c       _ModuleEntryPoint          000000000000042c f   UefiDriverEntryPoint:DriverEntryPoint.obj
 0001:0000021c       ProcessModuleEntryPointList 00000000000004bc f   Dhcp4Dxe:AutoGen.obj
 0001:000002d4       Dhcp4DriverBindingSupported 0000000000000574 f   Dhcp4Dxe:Dhcp4Driver.obj
 0001:0000030c       DhcpConfigUdpIo            00000000000005ac f   Dhcp4Dxe:Dhcp4Driver.obj
 0001:000003a4       Dhcp4CloseService          0000000000000644 f   Dhcp4Dxe:Dhcp4Driver.obj
 0001:00000408       Dhcp4CreateService         00000000000006a8 f   Dhcp4Dxe:Dhcp4Driver.obj
 0001:0000057c       Dhcp4DriverBindingStart    000000000000081c f   Dhcp4Dxe:Dhcp4Driver.obj
 0001:00000684       Dhcp4DestroyChildEntry     0000000000000924 f   Dhcp4Dxe:Dhcp4Driver.obj
 0001:000006b0       Dhcp4DriverBindingStop     0000000000000950 f   Dhcp4Dxe:Dhcp4Driver.obj
 0001:0000084c       DhcpInitProtocol           0000000000000aec f   Dhcp4Dxe:Dhcp4Driver.obj
 0001:00000900       Dhcp4ServiceBindingCreateChild 0000000000000ba0 f   Dhcp4Dxe:Dhcp4Driver.obj
 0001:00000a70       Dhcp4ServiceBindingDestroyChild 0000000000000d10 f   Dhcp4Dxe:Dhcp4Driver.obj
 0001:00000c60       DhcpInitRequest            0000000000000f00 f   Dhcp4Dxe:Dhcp4Io.obj
 0001:00000d44       DhcpCallUser               0000000000000fe4 f   Dhcp4Dxe:Dhcp4Io.obj
 0001:00000dcc       DhcpNotifyUser             000000000000106c f   Dhcp4Dxe:Dhcp4Io.obj
 0001:00000e40       DhcpSetState               00000000000010e0 f   Dhcp4Dxe:Dhcp4Io.obj
 0001:00000edc       DhcpComputeLease           000000000000117c f   Dhcp4Dxe:Dhcp4Io.obj
 0001:00000f4c       DhcpConfigLeaseIoPort      00000000000011ec f   Dhcp4Dxe:Dhcp4Io.obj
 0001:000010d4       DhcpLeaseAcquired          0000000000001374 f   Dhcp4Dxe:Dhcp4Io.obj
 0001:000011e8       DhcpCleanLease             0000000000001488 f   Dhcp4Dxe:Dhcp4Io.obj
 0001:000012d4       DhcpChooseOffer            0000000000001574 f   Dhcp4Dxe:Dhcp4Io.obj
 0001:000013f0       DhcpEndSession             0000000000001690 f   Dhcp4Dxe:Dhcp4Io.obj
 0001:00001450       DhcpHandleSelect           00000000000016f0 f   Dhcp4Dxe:Dhcp4Io.obj
 0001:00001514       DhcpHandleRequest          00000000000017b4 f   Dhcp4Dxe:Dhcp4Io.obj
 0001:00001648       DhcpHandleRenewRebind      00000000000018e8 f   Dhcp4Dxe:Dhcp4Io.obj
 0001:000017bc       DhcpHandleReboot           0000000000001a5c f   Dhcp4Dxe:Dhcp4Io.obj
 0001:00001900       DhcpInput                  0000000000001ba0 f   Dhcp4Dxe:Dhcp4Io.obj
 0001:00001b44       DhcpReleasePacket          0000000000001de4 f   Dhcp4Dxe:Dhcp4Io.obj
 0001:00001b50       DhcpOnPacketSent           0000000000001df0 f   Dhcp4Dxe:Dhcp4Io.obj
 0001:00001b58       DhcpSendMessage            0000000000001df8 f   Dhcp4Dxe:Dhcp4Io.obj
 0001:0000206c       DhcpRetransmit             000000000000230c f   Dhcp4Dxe:Dhcp4Io.obj
 0001:00002178       DhcpOnTimerTick            0000000000002418 f   Dhcp4Dxe:Dhcp4Io.obj
 0001:000024c0       EfiDhcp4GetModeData        0000000000002760 f   Dhcp4Dxe:Dhcp4Impl.obj
 0001:0000268c       DhcpCleanConfigure         000000000000292c f   Dhcp4Dxe:Dhcp4Impl.obj
 0001:00002724       DhcpCopyConfigure          00000000000029c4 f   Dhcp4Dxe:Dhcp4Impl.obj
 0001:000028b8       DhcpYieldControl           0000000000002b58 f   Dhcp4Dxe:Dhcp4Impl.obj
 0001:00002930       EfiDhcp4Configure          0000000000002bd0 f   Dhcp4Dxe:Dhcp4Impl.obj
 0001:00002b58       EfiDhcp4Start              0000000000002df8 f   Dhcp4Dxe:Dhcp4Impl.obj
 0001:00002cfc       EfiDhcp4RenewRebind        0000000000002f9c f   Dhcp4Dxe:Dhcp4Impl.obj
 0001:00002ed8       EfiDhcp4Release            0000000000003178 f   Dhcp4Dxe:Dhcp4Impl.obj
 0001:00002fa0       EfiDhcp4Stop               0000000000003240 f   Dhcp4Dxe:Dhcp4Impl.obj
 0001:0000300c       EfiDhcp4Build              00000000000032ac f   Dhcp4Dxe:Dhcp4Impl.obj
 0001:000030b4       Dhcp4InstanceConfigUdpIo   0000000000003354 f   Dhcp4Dxe:Dhcp4Impl.obj
 0001:00003208       Dhcp4InstanceCreateUdpIo   00000000000034a8 f   Dhcp4Dxe:Dhcp4Impl.obj
 0001:000032b0       DhcpDummyExtFree           0000000000003550 f   Dhcp4Dxe:Dhcp4Impl.obj
 0001:000032b4       PxeDhcpInput               0000000000003554 f   Dhcp4Dxe:Dhcp4Impl.obj
 0001:00003430       PxeDhcpDone                00000000000036d0 f   Dhcp4Dxe:Dhcp4Impl.obj
 0001:00003524       EfiDhcp4TransmitReceive    00000000000037c4 f   Dhcp4Dxe:Dhcp4Impl.obj
 0001:0000394c       Dhcp4ParseCheckOption      0000000000003bec f   Dhcp4Dxe:Dhcp4Impl.obj
 0001:0000396c       EfiDhcp4Parse              0000000000003c0c f   Dhcp4Dxe:Dhcp4Impl.obj
 0001:00003a50       DhcpComponentNameGetDriverName 0000000000003cf0 f   Dhcp4Dxe:ComponentName.obj
 0001:00003a84       UpdateName                 0000000000003d24 f   Dhcp4Dxe:ComponentName.obj
 0001:00003b48       DhcpComponentNameGetControllerName 0000000000003de8 f   Dhcp4Dxe:ComponentName.obj
 0001:00003c74       DhcpGetParameter           0000000000003f14 f   Dhcp4Dxe:Dhcp4Option.obj
 0001:00003d2c       DhcpIterateBufferOptions   0000000000003fcc f   Dhcp4Dxe:Dhcp4Option.obj
 0001:00003de4       DhcpIterateOptions         0000000000004084 f   Dhcp4Dxe:Dhcp4Option.obj
 0001:00003e98       DhcpGetOptionLen           0000000000004138 f   Dhcp4Dxe:Dhcp4Option.obj
 0001:00003ea8       DhcpFillOption             0000000000004148 f   Dhcp4Dxe:Dhcp4Option.obj
 0001:00003f40       DhcpParseOption            00000000000041e0 f   Dhcp4Dxe:Dhcp4Option.obj
 0001:00004080       DhcpValidateOptions        0000000000004320 f   Dhcp4Dxe:Dhcp4Option.obj
 0001:000042b4       DhcpAppendOption           0000000000004554 f   Dhcp4Dxe:Dhcp4Option.obj
 0001:0000436c       DhcpBuild                  000000000000460c f   Dhcp4Dxe:Dhcp4Option.obj
 0001:000045a4       InternalAllocatePool       0000000000004844 f   UefiMemoryAllocationLib:MemoryAllocationLib.obj
 0001:000045d4       AllocateZeroPool           0000000000004874 f   UefiMemoryAllocationLib:MemoryAllocationLib.obj
 0001:00004600       InternalAllocateCopyPool   00000000000048a0 f   UefiMemoryAllocationLib:MemoryAllocationLib.obj
 0001:00004644       UdpIoFreeRxToken           00000000000048e4 f   DxeUpdIoLib:DxeUdpIoLib.obj
 0001:00004680       UdpIoOnDgramSentDpc        0000000000004920 f   DxeUpdIoLib:DxeUdpIoLib.obj
 0001:000046e8       UdpIoOnDgramSent           0000000000004988 f   DxeUpdIoLib:DxeUdpIoLib.obj
 0001:00004704       UdpIoRecycleDgram          00000000000049a4 f   DxeUpdIoLib:DxeUdpIoLib.obj
 0001:00004740       UdpIoOnDgramRcvdDpc        00000000000049e0 f   DxeUpdIoLib:DxeUdpIoLib.obj
 0001:000049b4       UdpIoOnDgramRcvd           0000000000004c54 f   DxeUpdIoLib:DxeUdpIoLib.obj
 0001:000049d0       UdpIoCreateRxToken         0000000000004c70 f   DxeUpdIoLib:DxeUdpIoLib.obj
 0001:00004a88       UdpIoCreateTxToken         0000000000004d28 f   DxeUpdIoLib:DxeUdpIoLib.obj
 0001:00004d2c       UdpIoCreateIo              0000000000004fcc f   DxeUpdIoLib:DxeUdpIoLib.obj
 0001:00004ec0       UdpIoCancelDgrams          0000000000005160 f   DxeUpdIoLib:DxeUdpIoLib.obj
 0001:00004f18       UdpIoFreeIo                00000000000051b8 f   DxeUpdIoLib:DxeUdpIoLib.obj
 0001:00005004       UdpIoCleanIo               00000000000052a4 f   DxeUpdIoLib:DxeUdpIoLib.obj
 0001:00005074       UdpIoSendDatagram          0000000000005314 f   DxeUpdIoLib:DxeUdpIoLib.obj
 0001:0000515c       UdpIoRecvDatagram          00000000000053fc f   DxeUpdIoLib:DxeUdpIoLib.obj
 0001:000051f0       EfiGetSystemConfigurationTable 0000000000005490 f   UefiLib:UefiLib.obj
 0001:00005254       LookupUnicodeString2       00000000000054f4 f   UefiLib:UefiLib.obj
 0001:000053e0       AddUnicodeString2          0000000000005680 f   UefiLib:UefiLib.obj
 0001:000056b8       FreeUnicodeStringTable     0000000000005958 f   UefiLib:UefiLib.obj
 0001:00005730       NetGetIpClass              00000000000059d0 f   DxeNetLib:DxeNetLib.obj
 0001:00005778       Ip6Swap128                 0000000000005a18 f   DxeNetLib:DxeNetLib.obj
 0001:000058b4       NetRandomInitSeed          0000000000005b54 f   DxeNetLib:DxeNetLib.obj
 0001:000059fc       NetGetUint32               0000000000005c9c f   DxeNetLib:DxeNetLib.obj
 0001:00005a40       NetDestroyLinkList         0000000000005ce0 f   DxeNetLib:DxeNetLib.obj
 0001:00005af0       NetLibDestroyServiceChild  0000000000005d90 f   DxeNetLib:DxeNetLib.obj
 0001:00005b3c       NetbufAllocStruct          0000000000005ddc f   DxeNetLib:NetBuffer.obj
 0001:00005be0       NetbufAlloc                0000000000005e80 f   DxeNetLib:NetBuffer.obj
 0001:00005c78       NetbufFreeVector           0000000000005f18 f   DxeNetLib:NetBuffer.obj
 0001:00005cf8       NetbufFree                 0000000000005f98 f   DxeNetLib:NetBuffer.obj
 0001:00005d24       NetbufGetByte              0000000000005fc4 f   DxeNetLib:NetBuffer.obj
 0001:00005d84       NetbufFromExt              0000000000006024 f   DxeNetLib:NetBuffer.obj
 0001:00006018       NetbufBuildExt             00000000000062b8 f   DxeNetLib:NetBuffer.obj
 0001:00006070       NetbufAllocSpace           0000000000006310 f   DxeNetLib:NetBuffer.obj
 0001:00006128       NetbufCopy                 00000000000063c8 f   DxeNetLib:NetBuffer.obj
 0001:00006290       NetbufQueCopy              0000000000006530 f   DxeNetLib:NetBuffer.obj
 0001:0000637c       NetbufQueFlush             000000000000661c f   DxeNetLib:NetBuffer.obj
 0001:000063e0       InternalMemCopyMem         0000000000006680     BaseMemoryLibRepStr:CopyMem.obj
 0001:00006420       InternalMemZeroMem         00000000000066c0     BaseMemoryLibRepStr:ZeroMem.obj
 0001:00006440       InternalMemCompareMem      00000000000066e0     BaseMemoryLibRepStr:CompareMem.obj
 0001:00006460       InternalMemSetMem          0000000000006700     BaseMemoryLibRepStr:SetMem.obj
 0001:00006480       InternalMemSetMem32        0000000000006720     BaseMemoryLibRepStr:SetMem32.obj
 0001:000064a0       InternalMemSetMem64        0000000000006740     BaseMemoryLibRepStr:SetMem64.obj
 0002:00000000       gEfiNetworkStackSetupGuid  0000000000006760     Dhcp4Dxe:AutoGen.obj
 0002:00000010       gEfiSmbiosTableGuid        0000000000006770     Dhcp4Dxe:AutoGen.obj
 0002:00000020       gEfiSmbios3TableGuid       0000000000006780     Dhcp4Dxe:AutoGen.obj
 0002:00000030       gEfiDhcp4ServiceBindingProtocolGuid 0000000000006790     Dhcp4Dxe:AutoGen.obj
 0002:00000040       gEfiUdp4ServiceBindingProtocolGuid 00000000000067a0     Dhcp4Dxe:AutoGen.obj
 0002:00000050       gEfiDhcp4ProtocolGuid      00000000000067b0     Dhcp4Dxe:AutoGen.obj
 0002:00000060       gEfiUdp4ProtocolGuid       00000000000067c0     Dhcp4Dxe:AutoGen.obj
 0002:00000070       gEfiUdp6ServiceBindingProtocolGuid 00000000000067d0     Dhcp4Dxe:AutoGen.obj
 0002:00000080       gEfiUdp6ProtocolGuid       00000000000067e0     Dhcp4Dxe:AutoGen.obj
 0002:00000090       gEfiDpcProtocolGuid        00000000000067f0     Dhcp4Dxe:AutoGen.obj
 0002:000000a0       gEfiDriverBindingProtocolGuid 0000000000006800     Dhcp4Dxe:AutoGen.obj
 0002:000000b0       gEfiComponentNameProtocolGuid 0000000000006810     Dhcp4Dxe:AutoGen.obj
 0002:000000c0       gEfiComponentName2ProtocolGuid 0000000000006820     Dhcp4Dxe:AutoGen.obj
 0002:000000d0       gEfiLoadedImageProtocolGuid 0000000000006830     Dhcp4Dxe:AutoGen.obj
 0002:000000e0       DhcpOptionFormats          0000000000006840     Dhcp4Dxe:Dhcp4Option.obj
 0002:00000c98       gIsClientAddrPresentInToken 00000000000073f8     Dhcp4Dxe:Dhcp4Impl.obj
 0002:00000ca0       mDhcp4ControllerName       0000000000007400     Dhcp4Dxe:ComponentName.obj
 0002:00000cf0       mDhcp4ProtocolTemplate     0000000000007450     Dhcp4Dxe:Dhcp4Impl.obj
 0002:00000d38       mDhcp4DefaultTimeout       0000000000007498     Dhcp4Dxe:Dhcp4Io.obj
 0002:00000d48       gDhcp4DriverBinding        00000000000074a8     Dhcp4Dxe:Dhcp4Driver.obj
 0002:00000d78       mDhcp4ServiceBindingTemplate 00000000000074d8     Dhcp4Dxe:Dhcp4Driver.obj
 0002:00000d88       gDhcp4ComponentName        00000000000074e8     Dhcp4Dxe:ComponentName.obj
 0002:00000da0       gDhcp4ComponentName2       0000000000007500     Dhcp4Dxe:ComponentName.obj
 0002:00000db8       mDhcpDriverNameTable       0000000000007518     Dhcp4Dxe:ComponentName.obj
 0002:00000de0       gIp4AllMasks               0000000000007540     DxeNetLib:DxeNetLib.obj
 0002:00000e70       _gUefiDriverRevision       00000000000075d0     Dhcp4Dxe:AutoGen.obj
 0002:00000e78       ??_C@_1CA@BCMJNMNL@?$AAN?$AAe?$AAt?$AAw?$AAo?$AAr?$AAk?$AAS?$AAt?$AAa?$AAc?$AAk?$AAV?$AAa?$AAr?$AA?$AA@ 00000000000075d8     Dhcp4Dxe:Dhcp4Driver.obj
 0002:00000e98       ??_C@_0DE@DGHGICGF@Lease?5confirmed?5isn?8t?5the?5same?5a@ 00000000000075f8     Dhcp4Dxe:Dhcp4Io.obj
 0002:00000ed0       ??_C@_0CC@KHGCMCIC@Lease?5is?5denied?5upon?5received?5AC@ 0000000000007630     Dhcp4Dxe:Dhcp4Io.obj
 0002:00000ef8       ??_C@_0CE@KEHNIHFP@Lease?5is?5denied?5upon?5entering?5bo@ 0000000000007658     Dhcp4Dxe:Dhcp4Io.obj
 0002:00000f20       ??_C@_0CG@PECIAPJI@Extra?5renew?1rebind?5by?5the?5applic@ 0000000000007680     Dhcp4Dxe:Dhcp4Impl.obj
 0002:00000f48       ??_C@_1DI@NJNKOJF@?$AAD?$AAH?$AAC?$AAP?$AAv?$AA4?$AA?5?$AA?$CI?$AAS?$AAt?$AAa?$AAt?$AAe?$AA?$DN?$AA8?$AA?0?$AA?5?$AAR?$AAe?$AAb?$AAo?$AAo?$AAt?$AAi?$AAn?$AAg?$AA?$CJ?$AA?$AA@ 00000000000076a8     Dhcp4Dxe:ComponentName.obj
 0002:00000f80       ??_C@_1DK@HDJGKEJ@?$AAD?$AAH?$AAC?$AAP?$AAv?$AA4?$AA?5?$AA?$CI?$AAS?$AAt?$AAa?$AAt?$AAe?$AA?$DN?$AA7?$AA?0?$AA?5?$AAI?$AAn?$AAi?$AAt?$AAR?$AAe?$AAb?$AAo?$AAo?$AAt?$AA?$CJ?$AA?$AA@ 00000000000076e0     Dhcp4Dxe:ComponentName.obj
 0002:00000fc0       ??_C@_1DI@MHAICNFN@?$AAD?$AAH?$AAC?$AAP?$AAv?$AA4?$AA?5?$AA?$CI?$AAS?$AAt?$AAa?$AAt?$AAe?$AA?$DN?$AA6?$AA?0?$AA?5?$AAR?$AAe?$AAb?$AAi?$AAn?$AAd?$AAi?$AAn?$AAg?$AA?$CJ?$AA?$AA@ 0000000000007720     Dhcp4Dxe:ComponentName.obj
 0002:00000ff8       ??_C@_1DG@OMIOKDFI@?$AAD?$AAH?$AAC?$AAP?$AAv?$AA4?$AA?5?$AA?$CI?$AAS?$AAt?$AAa?$AAt?$AAe?$AA?$DN?$AA5?$AA?0?$AA?5?$AAR?$AAe?$AAn?$AAe?$AAw?$AAi?$AAn?$AAg?$AA?$CJ?$AA?$AA@ 0000000000007758     Dhcp4Dxe:ComponentName.obj
 0002:00001030       ??_C@_1DA@HBIBMAOH@?$AAD?$AAH?$AAC?$AAP?$AAv?$AA4?$AA?5?$AA?$CI?$AAS?$AAt?$AAa?$AAt?$AAe?$AA?$DN?$AA4?$AA?0?$AA?5?$AAB?$AAo?$AAu?$AAn?$AAd?$AA?$CJ?$AA?$AA@ 0000000000007790     Dhcp4Dxe:ComponentName.obj
 0002:00001060       ??_C@_1DK@CEPEMOEI@?$AAD?$AAH?$AAC?$AAP?$AAv?$AA4?$AA?5?$AA?$CI?$AAS?$AAt?$AAa?$AAt?$AAe?$AA?$DN?$AA3?$AA?0?$AA?5?$AAR?$AAe?$AAq?$AAu?$AAe?$AAs?$AAt?$AAi?$AAn?$AAg?$AA?$CJ?$AA?$AA@ 00000000000077c0     Dhcp4Dxe:ComponentName.obj
 0002:000010a0       ??_C@_1DI@NDBKOBAP@?$AAD?$AAH?$AAC?$AAP?$AAv?$AA4?$AA?5?$AA?$CI?$AAS?$AAt?$AAa?$AAt?$AAe?$AA?$DN?$AA2?$AA?0?$AA?5?$AAS?$AAe?$AAl?$AAe?$AAc?$AAt?$AAi?$AAn?$AAg?$AA?$CJ?$AA?$AA@ 0000000000007800     Dhcp4Dxe:ComponentName.obj
 0002:000010d8       ??_C@_1CO@COFKBJKK@?$AAD?$AAH?$AAC?$AAP?$AAv?$AA4?$AA?5?$AA?$CI?$AAS?$AAt?$AAa?$AAt?$AAe?$AA?$DN?$AA1?$AA?0?$AA?5?$AAI?$AAn?$AAi?$AAt?$AA?$CJ?$AA?$AA@ 0000000000007838     Dhcp4Dxe:ComponentName.obj
 0002:00001108       ??_C@_1DE@IEBCOFDJ@?$AAD?$AAH?$AAC?$AAP?$AAv?$AA4?$AA?5?$AA?$CI?$AAS?$AAt?$AAa?$AAt?$AAe?$AA?$DN?$AA0?$AA?0?$AA?5?$AAS?$AAt?$AAo?$AAp?$AAp?$AAe?$AAd?$AA?$CJ?$AA?$AA@ 0000000000007868     Dhcp4Dxe:ComponentName.obj
 0002:00001140       ??_C@_1CK@HPGKMBEM@?$AAD?$AAH?$AAC?$AAP?$AA?5?$AAP?$AAr?$AAo?$AAt?$AAo?$AAc?$AAo?$AAl?$AA?5?$AAD?$AAr?$AAi?$AAv?$AAe?$AAr?$AA?$AA@ 00000000000078a0     Dhcp4Dxe:ComponentName.obj
 0002:0000116c       ??_C@_06DALJLGPG@eng?$DLen?$AA@ 00000000000078cc     Dhcp4Dxe:ComponentName.obj
 0002:00001174       ??_C@_02LFNMGJAP@en?$AA@   00000000000078d4     Dhcp4Dxe:ComponentName.obj
 0002:00001178       ??_C@_03LKLGDMJI@eng?$AA@  00000000000078d8     Dhcp4Dxe:ComponentName.obj
 0002:00001180       gFailSafeClientAddr        00000000000078e0     Dhcp4Dxe:Dhcp4Impl.obj
 0002:00001188       gImageHandle               00000000000078e8     UefiBootServicesTableLib:UefiBootServicesTableLib.obj
 0002:00001190       gST                        00000000000078f0     UefiBootServicesTableLib:UefiBootServicesTableLib.obj
 0002:00001198       gBS                        00000000000078f8     UefiBootServicesTableLib:UefiBootServicesTableLib.obj
 0002:000011a0       gRT                        0000000000007900     UefiRuntimeServicesTableLib:UefiRuntimeServicesTableLib.obj
 0002:000011b0       gDhcpControllerNameTable   0000000000007910     Dhcp4Dxe:ComponentName.obj
 0002:000011b8       mZeroIp4Addr               0000000000007918     DxeNetLib:DxeNetLib.obj
 0002:000011c0       mDpc                       0000000000007920     <common>
 0002:000011c8       gFailSafeDhcpSb            0000000000007928     <common>

 entry point at        0001:0000018c

 Static symbols

