; Listing generated by Microsoft (R) Optimizing Compiler Version 15.00.30729.207 

	TITLE	d:\bios\z124-002\z124-002\DenvertonPkg\SystemAgent\Mrc\Mmrc\ProjectData\DNV\Internal\Source\MmrcProjectDataGenerated.c
	.686P
	.XMM
	include listing.inc
	.model	flat

INCLUDELIB LIBCMT
INCLUDELIB OLDNAMES

PUBLIC	??_C@_0M@LANNLFEH@WrLvlSmpReg?$AA@		; `string'
PUBLIC	??_C@_08FFCKLLFH@WrLvlSmp?$AA@			; `string'
PUBLIC	??_C@_0O@IDHNABIE@WrLvlDelayExt?$AA@		; `string'
PUBLIC	??_C@_0N@NLDIKHFG@WrCmdLatency?$AA@		; `string'
PUBLIC	??_C@_06FJKGPFBP@TxVref?$AA@			; `string'
PUBLIC	??_C@_0N@LCNEAHBM@TxSwingBoost?$AA@		; `string'
PUBLIC	??_C@_0N@DIMJLPDJ@TxImodeDqsEn?$AA@		; `string'
PUBLIC	??_C@_0M@ONOBNFLG@TxImodeDqEn?$AA@		; `string'
PUBLIC	??_C@_0P@FHCIAAOO@TxEqualization?$AA@		; `string'
PUBLIC	??_C@_0BA@EFLDJCFB@TxDqsClkPushout?$AA@		; `string'
PUBLIC	??_C@_0O@KMHIAIDK@TxDqDelayGExt?$AA@		; `string'
PUBLIC	??_C@_0P@NIMNNMEA@TxDqClkPushout?$AA@		; `string'
PUBLIC	??_C@_0P@MKMCAJNM@RxVrefRangeSel?$AA@		; `string'
PUBLIC	??_C@_0L@NMBJEDEJ@RxVrefCtrl?$AA@		; `string'
PUBLIC	??_C@_06DKHGMACF@RxVref?$AA@			; `string'
PUBLIC	??_C@_09GPDLCDPF@RxVocVal7?$AA@			; `string'
PUBLIC	??_C@_09HGCABCLE@RxVocVal6?$AA@			; `string'
PUBLIC	??_C@_09FNANEBHH@RxVocVal5?$AA@			; `string'
PUBLIC	??_C@_09EEBGHADG@RxVocVal4?$AA@			; `string'
PUBLIC	??_C@_09LFHOGPB@RxVocVal3?$AA@			; `string'
PUBLIC	??_C@_09BCEMNHLA@RxVocVal2?$AA@			; `string'
PUBLIC	??_C@_09DJGBIEHD@RxVocVal1?$AA@			; `string'
PUBLIC	??_C@_09CAHKLFDC@RxVocVal0?$AA@			; `string'
PUBLIC	??_C@_08OLFKOFNC@RxVocSmp?$AA@			; `string'
PUBLIC	??_C@_09IAGFCBCK@RxVocEnDq?$AA@			; `string'
PUBLIC	??_C@_0M@GMKLHAJL@RxDqsTether?$AA@		; `string'
PUBLIC	??_C@_0BA@LGBAFEIL@RxDqsClkPushOut?$AA@		; `string'
PUBLIC	??_C@_0P@FKAFKHIM@RxDqClkPushOut?$AA@		; `string'
PUBLIC	??_C@_08KIBIKJDM@RecEnSmp?$AA@			; `string'
PUBLIC	??_C@_0BA@PDKCAAHL@RecEnClkPushOut?$AA@		; `string'
PUBLIC	??_C@_0P@LFFIKBMF@RdEnClkPushOut?$AA@		; `string'
PUBLIC	??_C@_0N@CFDCFMFJ@RdCmdLatency?$AA@		; `string'
PUBLIC	??_C@_0P@JILAEHMM@rdcmd2rdvldsig?$AA@		; `string'
PUBLIC	??_C@_0M@IBKKBBGF@OdtSegEnOff?$AA@		; `string'
PUBLIC	??_C@_08JBEGBMNF@OdtEnOff?$AA@			; `string'
PUBLIC	??_C@_0BA@PAOGMKCD@IoDrvClkPushOut?$AA@		; `string'
PUBLIC	??_C@_0O@JEMHKADN@DqsdrvEnbIdle?$AA@		; `string'
PUBLIC	??_C@_0L@CNICHADH@DiffAmpLen?$AA@		; `string'
PUBLIC	??_C@_09EKIKHGEK@Ctle_Wrap?$AA@			; `string'
PUBLIC	??_C@_07CNAAHGKK@Ctle_en?$AA@			; `string'
PUBLIC	??_C@_09GKEOAKPJ@Ctle_caps?$AA@			; `string'
PUBLIC	??_C@_08DHCGCLJH@Ctle_cap?$AA@			; `string'
PUBLIC	??_C@_09IPHOMCOB@Ctle_bias?$AA@			; `string'
PUBLIC	??_C@_07EPBFBCGH@CmdVref?$AA@			; `string'
PUBLIC	??_C@_0L@IEIGLHDO@TxDqsDelay?$AA@		; `string'
PUBLIC	??_C@_0N@IFFECNPI@TxDqDrvDelay?$AA@		; `string'
PUBLIC	??_C@_09DDKFMKK@TxDqDelay?$AA@			; `string'
PUBLIC	??_C@_0O@FOJDHKHC@TxDqDrvDelay2?$AA@		; `string'
PUBLIC	??_C@_0L@NLHACENL@TxDqDelay2?$AA@		; `string'
PUBLIC	??_C@_0M@GCALNKGJ@RxDqsPDelay?$AA@		; `string'
PUBLIC	??_C@_0M@FFOKDNPK@RxDqsNDelay?$AA@		; `string'
PUBLIC	??_C@_07MILKAOOO@CtlGrp2?$AA@			; `string'
PUBLIC	??_C@_07ODJHFNCN@CtlGrp1?$AA@			; `string'
PUBLIC	??_C@_07PKIMGMGM@CtlGrp0?$AA@			; `string'
PUBLIC	??_C@_07KLNIKBNL@CmdGrp7?$AA@			; `string'
PUBLIC	??_C@_07LCMDJAJK@CmdGrp6?$AA@			; `string'
PUBLIC	??_C@_07JJOOMDFJ@CmdGrp5?$AA@			; `string'
PUBLIC	??_C@_07IAPFPCBI@CmdGrp4?$AA@			; `string'
PUBLIC	??_C@_07MPLEGENP@CmdGrp3?$AA@			; `string'
PUBLIC	??_C@_07NGKPFFJO@CmdGrp2?$AA@			; `string'
PUBLIC	??_C@_07PNICAGFN@CmdGrp1?$AA@			; `string'
PUBLIC	??_C@_07OEJJDHBM@CmdGrp0?$AA@			; `string'
PUBLIC	??_C@_0N@EAAAGICG@TxDqBitDelay?$AA@		; `string'
PUBLIC	??_C@_0N@OAOFLHPL@RxDqBitDelay?$AA@		; `string'
PUBLIC	??_C@_0L@FPHNDIMG@RecEnDelay?$AA@		; `string'
PUBLIC	??_C@_05ICDOEJHF@CkAll?$AA@			; `string'
PUBLIC	??_C@_0CC@OECEBEPJ@DummyFunctionToCreateDynVariable@ ; `string'
PUBLIC	??_C@_0O@EILGAILE@BREAKPOINTMRC?$AA@		; `string'
PUBLIC	??_C@_0BA@HDEMPNJ@TxSwingBoostSet?$AA@		; `string'
PUBLIC	??_C@_07NDOGAEDD@TxEqSet?$AA@			; `string'
PUBLIC	??_C@_0BD@LPDGBFBD@DUMMY_VOC_SUBTASKS?$AA@	; `string'
PUBLIC	??_C@_0BJ@MDHLFIOB@VOC_TRAINING_EXIT_COMMON?$AA@ ; `string'
PUBLIC	??_C@_0BC@JIHAPEKO@VOC_TRAINING_EXIT?$AA@	; `string'
PUBLIC	??_C@_0BD@EHNCKOML@VOC_DISABLE_WLMODE?$AA@	; `string'
PUBLIC	??_C@_0BC@HIKCNLBC@VOC_ENABLE_WLMODE?$AA@	; `string'
PUBLIC	??_C@_09IEEAHBMJ@VOC_RCOMP?$AA@			; `string'
PUBLIC	??_C@_0BE@KGJNECOK@VOC_PHY_INIT_COMMON?$AA@	; `string'
PUBLIC	??_C@_0N@FAKNGODK@VOC_PHY_INIT?$AA@		; `string'
PUBLIC	??_C@_0BK@ELMAEOIH@VOC_TRAINING_ENTRY_COMMON?$AA@ ; `string'
PUBLIC	??_C@_0BD@BDNBIJNE@VOC_TRAINING_ENTRY?$AA@	; `string'
PUBLIC	??_C@_0BD@HJOOIJGL@FIFO_RESET_ENABLE2?$AA@	; `string'
PUBLIC	??_C@_0L@EBGEALMO@INIT_SETUP?$AA@		; `string'
PUBLIC	??_C@_0M@GMAIKBCM@INIT_STATIC?$AA@		; `string'
PUBLIC	??_C@_09HLPEAJPM@INIT_DMAP?$AA@			; `string'
PUBLIC	??_C@_09ELCMBDFN@INIT_EXIT?$AA@			; `string'
PUBLIC	??_C@_0L@DHLGHGJF@INIT_ENTRY?$AA@		; `string'
PUBLIC	??_C@_0BE@KNIAAMLH@PPR_BASIC_WR_COMMON?$AA@	; `string'
PUBLIC	??_C@_0P@KHLJHAKB@PPR_BASIC_READ?$AA@		; `string'
PUBLIC	??_C@_0BA@HHOHMAPA@PPR_BASIC_WRITE?$AA@		; `string'
PUBLIC	??_C@_08OOJJFBJC@PPR_MODE?$AA@			; `string'
PUBLIC	??_C@_0O@BFEDAKEJ@PPR_DYN_SETUP?$AA@		; `string'
PUBLIC	??_C@_0BB@EBMOKHCA@PPR_STATIC_SETUP?$AA@	; `string'
PUBLIC	??_C@_08EICGMFDG@PPR_EXIT?$AA@			; `string'
PUBLIC	??_C@_09ONNFMEJD@PPR_ENTRY?$AA@			; `string'
PUBLIC	??_C@_0BD@MCKFKDJJ@SmbusAddressToCltt?$AA@	; `string'
PUBLIC	??_C@_0BC@OAPCIEMP@CPGC_CLEAR_ERRORS?$AA@	; `string'
PUBLIC	??_C@_0BE@BLMIELCF@PASS_GATE_STOP_TEST?$AA@	; `string'
PUBLIC	??_C@_0BF@FKFCFMHO@PASS_GATE_START_TEST?$AA@	; `string'
PUBLIC	??_C@_0BN@JAHGKGJE@PASS_GATE_READ_RAPL_COUNTERS?$AA@ ; `string'
PUBLIC	??_C@_0BP@MGHBGLDB@PASS_GATE_CPGC_AGGRESSOR_SETUP?$AA@ ; `string'
PUBLIC	??_C@_0BP@NCDKMOCC@PASS_GATE_CPGC_AGG_READS_SETUP?$AA@ ; `string'
PUBLIC	??_C@_0CA@OOGGEPEJ@PASS_GATE_CPGC_AGG_WRITES_SETUP?$AA@ ; `string'
PUBLIC	??_C@_0BN@KBEHKCGM@PASS_GATE_CPGC_VICTIMS_SETUP?$AA@ ; `string'
PUBLIC	??_C@_0BM@PEPGNBAC@PASS_GATE_CPGC_STATIC_SETUP?$AA@ ; `string'
PUBLIC	??_C@_0BE@KDDOMKNN@PASS_GATE_SET_ENTRY?$AA@	; `string'
PUBLIC	??_C@_0P@NONODMDK@PASS_GATE_EXIT?$AA@		; `string'
PUBLIC	??_C@_0BF@PDNJNPPM@PASS_GATE_SAVE_ENTRY?$AA@	; `string'
PUBLIC	??_C@_0BD@FOMHEFLL@PERFORM_FIFO_RESET?$AA@	; `string'
PUBLIC	??_C@_0BE@MFBCMIIK@FIFO_RESET_DISABLEx?$AA@	; `string'
PUBLIC	??_C@_0BD@PGCNMNLG@FIFO_RESET_DISABLE?$AA@	; `string'
PUBLIC	??_C@_0BD@HDHICOOE@FIFO_RESET_ENABLEx?$AA@	; `string'
PUBLIC	??_C@_0BC@PKOGJOIJ@FIFO_RESET_ENABLE?$AA@	; `string'
PUBLIC	??_C@_0BC@LNPALID@CPGC_ONETIME_INIT?$AA@	; `string'
PUBLIC	??_C@_0BG@HNPMJBFA@RMT_GET_CMD_AND_VALUE?$AA@	; `string'
PUBLIC	??_C@_0BE@FOJHFJNN@RMT_CLEAR_REGISTERS?$AA@	; `string'
PUBLIC	??_C@_0BK@NOAOANIM@CPGC_TURNAROUNDS_RECONFIG?$AA@ ; `string'
PUBLIC	??_C@_0BF@CPLNMPDD@CPGC_CWL_SIM_RESTORE?$AA@	; `string'
PUBLIC	??_C@_0BD@KBEHHOAO@CPGC_CWL_SIM_SETUP?$AA@	; `string'
PUBLIC	??_C@_0BC@GDAEFKBP@CPGC_MPR_TRAINING?$AA@	; `string'
PUBLIC	??_C@_0BA@OHPJMBNL@IsDunitEmuModel?$AA@		; `string'
PUBLIC	??_C@_0BH@BBICHCKL@DetermineBootModeEntry?$AA@	; `string'
PUBLIC	??_C@_0P@CAKGEBMK@SetSpdResetPmc?$AA@		; `string'
PUBLIC	??_C@_0BE@LLBBHLCP@SpdResetNeededEntry?$AA@	; `string'
PUBLIC	??_C@_0P@MHKNBIDG@RESETDRAMS_SIM?$AA@		; `string'
PUBLIC	??_C@_0BD@OPGFONPC@ENABLE_RELEASE_CKE?$AA@	; `string'
PUBLIC	??_C@_0BI@EBOLLILN@RESETDRAMS_COMMON_CLEAR?$AA@	; `string'
PUBLIC	??_C@_0BG@BKAHLPBH@RESETDRAMS_COMMON_SET?$AA@	; `string'
PUBLIC	??_C@_0M@PECFIPJA@DISABLE_CKE?$AA@		; `string'
PUBLIC	??_C@_0L@PFIOMAD@ENABLE_CKE?$AA@		; `string'
PUBLIC	??_C@_0M@IJEKDFOG@RELEASE_CKE?$AA@		; `string'
PUBLIC	??_C@_0BK@CAOJJDPN@COMMANDCLOCKTRAINING_EXIT?$AA@ ; `string'
PUBLIC	??_C@_0BL@OBALBAPN@COMMANDCLOCKTRAINING_ENTRY?$AA@ ; `string'
PUBLIC	??_C@_0BD@KFDIOKFJ@WRITETRAINING_EXIT?$AA@	; `string'
PUBLIC	??_C@_0BE@DADFKGHF@WRITETRAINING_ENTRY?$AA@	; `string'
PUBLIC	??_C@_0BC@LMMCOACD@READTRAINING_EXIT?$AA@	; `string'
PUBLIC	??_C@_0BD@IAPMMEFN@READTRAINING_ENTRY?$AA@	; `string'
PUBLIC	??_C@_0BC@HEOKFNOG@DISABLE_MPR_MODEx?$AA@	; `string'
PUBLIC	??_C@_0BB@FFBIFIN@DISABLE_MPR_MODE?$AA@		; `string'
PUBLIC	??_C@_0BA@BBAFEDNF@ENABLE_MPR_MODE?$AA@		; `string'
PUBLIC	??_C@_0BB@BBEONAOG@ENABLE_MPR_MODEx?$AA@	; `string'
PUBLIC	??_C@_0BJ@GMEOMPAN@EARLY_READ_TRAINING_EXIT?$AA@ ; `string'
PUBLIC	??_C@_0BK@FMPKEFLN@EARLY_READ_TRAINING_ENTRY?$AA@ ; `string'
PUBLIC	??_C@_0BL@FCGKMGIK@EARLY_READ_TRAINING_ENTRYx?$AA@ ; `string'
PUBLIC	??_C@_0BG@KJCHAIFP@COARSEWRITELEVEL_EXIT?$AA@	; `string'
PUBLIC	??_C@_0BH@BMJLJIJD@COARSEWRITELEVEL_EXITx?$AA@	; `string'
PUBLIC	??_C@_0BH@NJFKBMKC@COARSEWRITELEVEL_ENTRY?$AA@	; `string'
PUBLIC	??_C@_0BI@NPOHGLCG@COARSEWRITELEVEL_ENTRYx?$AA@	; `string'
PUBLIC	??_C@_0N@EIHCFKFP@FORCEODT_REL?$AA@		; `string'
PUBLIC	??_C@_0N@BCKIIDMO@FORCEODT_OFF?$AA@		; `string'
PUBLIC	??_C@_0M@EIAMPAPE@FORCEODT_ON?$AA@		; `string'
PUBLIC	??_C@_09MEDNOILP@WRLVLMODE?$AA@			; `string'
PUBLIC	??_C@_0BE@MAOAPLCM@FINEWRITELEVEL_EXIT?$AA@	; `string'
PUBLIC	??_C@_0BG@JDFIBKKJ@FINEWRITELEVEL_EXIT_x?$AA@	; `string'
PUBLIC	??_C@_0BG@PPEBILHC@FINEWRITELEVEL_ENTRYx?$AA@	; `string'
PUBLIC	??_C@_0BF@BADPPLNH@FINEWRITELEVEL_ENTRY?$AA@	; `string'
PUBLIC	??_C@_0BH@PBJENGKC@FINEWRITELEVEL_ENTRY_X?$AA@	; `string'
PUBLIC	??_C@_0BE@NGDALDDK@RECEIVE_ENABLE_EXIT?$AA@	; `string'
PUBLIC	??_C@_0BF@CBDMBKPP@RECEIVE_ENABLE_EXITx?$AA@	; `string'
PUBLIC	??_C@_07NLBIAJL@PDA_SEQ?$AA@			; `string'
PUBLIC	??_C@_0P@JEOIEKFC@SEND_DRAM_INIT?$AA@		; `string'
PUBLIC	??_C@_0BA@MNIGNDNC@SET_RDCMD2RCVEN?$AA@		; `string'
PUBLIC	??_C@_0BA@PPJAKBML@GET_RDCMD2RCVEN?$AA@		; `string'
PUBLIC	??_C@_0BG@JLNOOBNH@RECEIVE_ENABLE_ENTRYx?$AA@	; `string'
PUBLIC	??_C@_0BF@OEPNJOMO@RECEIVE_ENABLE_ENTRY?$AA@	; `string'
PUBLIC	??_C@_0N@ELEOHOHL@PRECHARGEALL?$AA@		; `string'
PUBLIC	??_C@_0N@CNLLHNJB@CPGC_MEMTEST?$AA@		; `string'
PUBLIC	??_C@_0BG@ICFMBBCM@CPGC_MEMINIT_AND_TEST?$AA@	; `string'
PUBLIC	??_C@_0N@HDHLIPAF@CPGC_MEMINIT?$AA@		; `string'
PUBLIC	??_C@_0N@LNPMIIDD@CPGC_DISABLE?$AA@		; `string'
PUBLIC	??_C@_0BM@BAHCGJAH@CPGC_RUNTEST_PARALLEL_CHECK?$AA@ ; `string'
PUBLIC	??_C@_0BG@JMBKEDLJ@CPGC_RUNTEST_PARALLEL?$AA@	; `string'
PUBLIC	??_C@_0BM@HNHGLCLB@CPGC_RUNTEST_PARALLEL_CLEAR?$AA@ ; `string'
PUBLIC	??_C@_0BM@CCNJHPLK@CPGC_RUNTEST_PARALLEL_DUMMY?$AA@ ; `string'
PUBLIC	??_C@_0N@GJGKLAHG@CPGC_RUNTEST?$AA@		; `string'
PUBLIC	??_C@_0BA@JIHOBBKD@CPGC_CADB1_BUFx?$AA@		; `string'
PUBLIC	??_C@_0L@OHNABNGG@CPGC_CADB1?$AA@		; `string'
PUBLIC	??_C@_0P@INLBFINM@CPGC_SETUP_LVL?$AA@		; `string'
PUBLIC	??_C@_0BB@MNIGOGMK@CPGC_CWL_PATTERN?$AA@	; `string'
PUBLIC	??_C@_0M@LMEKFEHH@CPGC_FIXVAR?$AA@		; `string'
PUBLIC	??_C@_0O@NCANIGJE@CPGC_SETUP_VA?$AA@		; `string'
PUBLIC	??_C@_0L@DGNOOIOI@CPGC_LOOPS?$AA@		; `string'
PUBLIC	??_C@_0M@CPHHFMKM@CPGC_ENABLE?$AA@		; `string'
PUBLIC	??_C@_0O@GPPHNNB@ReadSpareBits?$AA@		; `string'
PUBLIC	??_C@_0BH@HOKFPPNJ@PerfLatencyDefaultsCh1?$AA@	; `string'
PUBLIC	??_C@_0BH@GHLOMOJI@PerfLatencyDefaultsCh0?$AA@	; `string'
PUBLIC	??_C@_0BH@GGBJJCGD@modmem_comp_bypass_seq?$AA@	; `string'
PUBLIC	??_C@_0BH@JMHKMGLF@modmem_init_odt_wa_seq?$AA@	; `string'
PUBLIC	??_C@_0CB@KONJABBA@modmem_init_lrcomp_vref_ctrl_seq@ ; `string'
PUBLIC	??_C@_0BO@GLHOOBBK@modmem_init_comp_vref_ctl_seq?$AA@ ; `string'
PUBLIC	??_C@_0M@JHCKLKIC@EccLaneSwap?$AA@		; `string'
PUBLIC	??_C@_08LBKGDEFE@DramRapl?$AA@			; `string'
PUBLIC	??_C@_0P@GIBDPOCM@DramRaplLocked?$AA@		; `string'
PUBLIC	??_C@_0M@KMHNOINJ@EnableScrub?$AA@		; `string'
PUBLIC	??_C@_0O@GCNOBKJI@InitializeEcc?$AA@		; `string'
PUBLIC	??_C@_0N@JGFPCBCD@PeriodicComp?$AA@		; `string'
PUBLIC	??_C@_0P@NADNNLEO@CheckDunitFuse?$AA@		; `string'
PUBLIC	??_C@_0P@GEKOHPOE@DUnitAftTrainx?$AA@		; `string'
PUBLIC	??_C@_0BK@HABHEGFA@ConnectPmiToBunitPostBoot?$AA@ ; `string'
PUBLIC	??_C@_0BJ@OIAEMPNK@ConnectPmiToCpgcPostBoot?$AA@ ; `string'
PUBLIC	??_C@_0O@GEJLPOHE@DisBUnitCache?$AA@		; `string'
PUBLIC	??_C@_09CBJICKJ@JedecInit?$AA@			; `string'
PUBLIC	??_C@_0BC@OINELFDB@ClearSpdResetFlag?$AA@	; `string'
PUBLIC	??_C@_0BC@CNHPPMDO@DoRegisterInitCke?$AA@	; `string'
PUBLIC	??_C@_0P@MDMHLFFN@DoRegisterInit?$AA@		; `string'
PUBLIC	??_C@_0BB@BBOIOLDM@EnableChannels_x?$AA@	; `string'
PUBLIC	??_C@_0BH@HGBLPLOE@SignalPunitMemInitDone?$AA@	; `string'
PUBLIC	??_C@_0BA@PPGNGBKF@MemTripSettings?$AA@		; `string'
PUBLIC	??_C@_0P@IIICCAA@MemHotSettings?$AA@		; `string'
PUBLIC	??_C@_0CA@OIPFBDOA@MemoryThermalThrottlingSettings?$AA@ ; `string'
PUBLIC	??_C@_0BA@EKODLMOC@PrintDunitTable?$AA@		; `string'
PUBLIC	??_C@_08EDGEKMH@MciDunit?$AA@			; `string'
PUBLIC	??_C@_0BD@COFAEPEE@ProgramParityCheck?$AA@	; `string'
PUBLIC	??_C@_0BC@DCIIFNIO@RestoreArmNvDimms?$AA@	; `string'
PUBLIC	??_C@_0BC@EDLDHKJI@ProgramBunitAunit?$AA@	; `string'
PUBLIC	??_C@_0L@BJOGPNPG@ShadowMrs2?$AA@		; `string'
PUBLIC	??_C@_0M@HMENDDJD@LeakyBucket?$AA@		; `string'
PUBLIC	??_C@_0BN@DMDBAGL@modmem_init_periodiccomp_seq?$AA@ ; `string'
PUBLIC	??_C@_0BA@GMACHHMF@ShadowMrsToXbuf?$AA@		; `string'
PUBLIC	??_C@_0BC@PDPGJOBA@ConnectPmiToBunit?$AA@	; `string'
PUBLIC	??_C@_0BJ@LHBNOMLA@PostMemTestDunitFeatures?$AA@ ; `string'
PUBLIC	??_C@_0M@KDFJFNE@ScrubMemory?$AA@		; `string'
PUBLIC	??_C@_0P@GEPLCELO@Enable32bitBus?$AA@		; `string'
PUBLIC	??_C@_0L@JBNIJIOB@MemoryTest?$AA@		; `string'
PUBLIC	??_C@_0N@PLLDCHPA@SetUceFilter?$AA@		; `string'
PUBLIC	??_C@_0BB@JFMBCBJL@DunitToggleOffOn?$AA@	; `string'
PUBLIC	??_C@_0P@IFBOLAJI@CaParityEnable?$AA@		; `string'
PUBLIC	??_C@_0M@GBEEECON@RaplSupport?$AA@		; `string'
PUBLIC	??_C@_0BH@BNOMPLPF@PostPackageRepairEntry?$AA@	; `string'
PUBLIC	??_C@_0BD@JIBBIMKF@DisplayInformation?$AA@	; `string'
PUBLIC	??_C@_0N@KGLAEPJ@PassGateTest?$AA@		; `string'
PUBLIC	??_C@_0BC@JEPPIBJN@MitigationFeature?$AA@	; `string'
PUBLIC	??_C@_0O@EPLKBMLE@InitScrambler?$AA@		; `string'
PUBLIC	??_C@_0BL@EFNNNLFF@ProgDunitPerfPowerSettings?$AA@ ; `string'
PUBLIC	??_C@_0O@JLAJNNBH@DUnitAftTrain?$AA@		; `string'
PUBLIC	??_C@_0BF@OPLGDMN@ProgSliceChannelHash?$AA@	; `string'
PUBLIC	??_C@_0N@DHGBHMMA@MmapAftTrain?$AA@		; `string'
PUBLIC	??_C@_0BF@LOKDMCKL@DunitInitNotComplete?$AA@	; `string'
PUBLIC	??_C@_0N@KPHGMIG@VrefOverride?$AA@		; `string'
PUBLIC	??_C@_0BK@MLMAFMCN@DisableRank2RankSwitching?$AA@ ; `string'
PUBLIC	??_C@_0N@FMBLPPDE@PhyViewTable?$AA@		; `string'
PUBLIC	??_C@_0BD@JGMKEPEK@PerformanceLatency?$AA@	; `string'
PUBLIC	??_C@_0BB@IOOGHAGJ@SearchRmtWrapper?$AA@	; `string'
PUBLIC	??_C@_0BA@MNCIIFMD@FastBootChecker?$AA@		; `string'
PUBLIC	??_C@_0M@LJMNFELC@RxTxSkewCtl?$AA@		; `string'
PUBLIC	??_C@_0BF@NHNEAHPA@CommandClockTraining?$AA@	; `string'
PUBLIC	??_C@_0O@LBMMGDMN@WriteTraining?$AA@		; `string'
PUBLIC	??_C@_0N@KLNCDIBG@ReadTraining?$AA@		; `string'
PUBLIC	??_C@_0BK@GIALGFBJ@DnvNibbleTrainingExitHook?$AA@ ; `string'
PUBLIC	??_C@_0BE@CMPLFFCP@CoarseWriteLeveling?$AA@	; `string'
PUBLIC	??_C@_0BC@HKJKDDF@FineWriteLeveling?$AA@	; `string'
PUBLIC	??_C@_0BG@MNNBDFP@DnvNibbleTrainingHook?$AA@	; `string'
PUBLIC	??_C@_0N@MMPOPOBD@EarlyMprRead?$AA@		; `string'
PUBLIC	??_C@_0O@PLAFKHNK@ReceiveEnable?$AA@		; `string'
PUBLIC	??_C@_0M@GFLIOOEK@VocTraining?$AA@		; `string'
PUBLIC	??_C@_0BB@FIDMHKHC@CpgcBaseLineTest?$AA@	; `string'
PUBLIC	??_C@_0BC@GCFHNKGD@EarlySetWriteVref?$AA@	; `string'
PUBLIC	??_C@_0BD@BAEOKKFH@HandleR2RSwitching?$AA@	; `string'
PUBLIC	??_C@_09FHNKLNDD@PostJedec?$AA@			; `string'
PUBLIC	??_C@_0BF@FECKJEFM@ReInitializeFunction?$AA@	; `string'
PUBLIC	??_C@_08BHMGNPEE@PreJedec?$AA@			; `string'
PUBLIC	??_C@_08LIPHEMPM@DramWake?$AA@			; `string'
PUBLIC	??_C@_0BC@FMAIGGPN@DunitInitComplete?$AA@	; `string'
PUBLIC	??_C@_0BB@OHAHOHLA@ConnectPmiToCpgc?$AA@	; `string'
PUBLIC	??_C@_0BE@DCLDMAOP@ChangeRefreshPeriod?$AA@	; `string'
PUBLIC	??_C@_09CPENHKDP@DunitWake?$AA@			; `string'
PUBLIC	??_C@_0N@CPJPDPBI@MmapForTrain?$AA@		; `string'
PUBLIC	??_C@_0O@IDPHJOMP@DUnitForTrain?$AA@		; `string'
PUBLIC	??_C@_09OKIDMCKG@DDR3Reset?$AA@			; `string'
PUBLIC	??_C@_0BB@IFEDDMHF@GroupSaveRestore?$AA@	; `string'
PUBLIC	??_C@_0P@OKOJMGIG@CommandRestore?$AA@		; `string'
PUBLIC	??_C@_0BC@NJBMJPAH@CommandClockEntry?$AA@	; `string'
PUBLIC	??_C@_0O@FMDMIIJD@DdrTimingCtrl?$AA@		; `string'
PUBLIC	??_C@_0P@GFLHGMAH@ClrSelfRefresh?$AA@		; `string'
PUBLIC	??_C@_0BG@ILPDCMFO@ClearSelfRefreshClamp?$AA@	; `string'
PUBLIC	??_C@_0M@MJOEEHE@EnClkGating?$AA@		; `string'
PUBLIC	??_C@_0P@INDCNCKB@DisableChannel?$AA@		; `string'
PUBLIC	??_C@_0P@HIBBKCBL@EnableChannels?$AA@		; `string'
PUBLIC	??_C@_0O@ODEBJHEF@DunitDefaults?$AA@		; `string'
PUBLIC	??_C@_0BB@BJOHFGHH@DisableScrambler?$AA@	; `string'
PUBLIC	??_C@_0L@JADCNLDD@DisableEcc?$AA@		; `string'
PUBLIC	??_C@_0N@NNLBIMLM@DisableScrub?$AA@		; `string'
PUBLIC	??_C@_0BE@FCLFCDGA@CmdOverrideSettings?$AA@	; `string'
PUBLIC	??_C@_0BH@JMHKBN@modmem_init_ctle_po_en?$AA@	; `string'
PUBLIC	??_C@_0BL@IPBFMLKP@modmem_init_criclkgate_dis?$AA@ ; `string'
PUBLIC	??_C@_0BL@HJPHDPGP@modmem_init_criclkgate_seq?$AA@ ; `string'
PUBLIC	??_C@_0BM@LNEJMBCP@modmem_init_compclkgate_dis?$AA@ ; `string'
PUBLIC	??_C@_0BM@ELKLDFOP@modmem_init_compclkgate_seq?$AA@ ; `string'
PUBLIC	??_C@_0CF@FEMNMAOJ@modmem_init_spidinitcomplete_ch1@ ; `string'
PUBLIC	??_C@_0BM@DFNBKKOL@modmem_init_disable_ch1_seq?$AA@ ; `string'
PUBLIC	??_C@_0CF@JPJBBDEM@modmem_init_spidinitcomplete_ch0@ ; `string'
PUBLIC	??_C@_0BM@POINHJEO@modmem_init_disable_ch0_seq?$AA@ ; `string'
PUBLIC	??_C@_0BN@IBPBIKGG@modmem_init_dqdynclkgate_dis?$AA@ ; `string'
PUBLIC	??_C@_0BN@HHBDHOKG@modmem_init_dqdynclkgate_seq?$AA@ ; `string'
PUBLIC	??_C@_0CA@CGCNHBBM@modmem_init_compovr_disable_seq?$AA@ ; `string'
PUBLIC	??_C@_0BN@LIMPOKOD@modmem_init_iobufact_ch1_seq?$AA@ ; `string'
PUBLIC	??_C@_0BN@HDJDDJEG@modmem_init_iobufact_ch0_seq?$AA@ ; `string'
PUBLIC	??_C@_0BK@PHFJLEKG@modmem_init_dramreset_seq?$AA@ ; `string'
PUBLIC	??_C@_0BO@BDFKPKLH@modmem_init_pointerenable_seq?$AA@ ; `string'
PUBLIC	??_C@_0BJ@DJEEBMKL@modmem_init_compinit_seq?$AA@ ; `string'
PUBLIC	??_C@_0BO@DNPGCLNL@modmem_init_phyrst_common_seq?$AA@ ; `string'
PUBLIC	??_C@_0BO@LGODOIEA@modmem_init_rxfiforst_ch1_seq?$AA@ ; `string'
PUBLIC	??_C@_0BO@HNLPDLOF@modmem_init_rxfiforst_ch0_seq?$AA@ ; `string'
PUBLIC	??_C@_0BL@LANBBIGD@modmem_init_phyrst_ch1_seq?$AA@ ; `string'
PUBLIC	??_C@_0BL@HLINMLMG@modmem_init_phyrst_ch0_seq?$AA@ ; `string'
PUBLIC	??_C@_0BP@IHAFJLO@modmem_init_clkdividersync_seq?$AA@ ; `string'
PUBLIC	??_C@_06IAKICGNN@dll_wa?$AA@			; `string'
PUBLIC	??_C@_0BH@HOAGNDDJ@modmem_init_dllcfg_seq?$AA@	; `string'
PUBLIC	??_C@_0BL@FNBPILMI@modmem_adpll_locktimer_seq?$AA@ ; `string'
PUBLIC	??_C@_0BL@NKBCNBHG@modmem_wait_adpll_lock_seq?$AA@ ; `string'
PUBLIC	??_C@_0BJ@ELKANDOP@modmem_init_ch0pmrst_seq?$AA@ ; `string'
PUBLIC	??_C@_0BL@HEJMIFEM@modmem_init_ch1x4ch0x4_seq?$AA@ ; `string'
PUBLIC	??_C@_0BL@DFOEFDH@modmem_init_ch1x4ch0x8_seq?$AA@ ; `string'
PUBLIC	??_C@_0BL@HOIGBHIL@modmem_init_ch1x8ch0x4_seq?$AA@ ; `string'
PUBLIC	??_C@_0BL@JEENHPA@modmem_init_ch1x8ch0x8_seq?$AA@ ; `string'
PUBLIC	??_C@_0BK@OFDNFPIP@modmem_init_staticcfg_seq?$AA@ ; `string'
PUBLIC	??_C@_0BG@PHIHHAKC@modmem_adpll_prog_seq?$AA@	; `string'
PUBLIC	??_C@_0BE@EGJEFEEF@modmem_init_sfr_seq?$AA@	; `string'
PUBLIC	??_C@_0N@LBFJNLEL@modmem_start?$AA@		; `string'
PUBLIC	??_C@_0BE@MPKKOCCC@PreventDdrioClearS0?$AA@	; `string'
PUBLIC	_InitTasks
PUBLIC	_CapsuleStrings
PUBLIC	_SubtaskOffsetIndex
PUBLIC	_InitData
PUBLIC	_MrsCommandIndex
PUBLIC	_PfctAndIoLevelToBlueprint
PUBLIC	_InstancePortMapGenerated
PUBLIC	_InstancePortOffsetGenerated
PUBLIC	_ChannelToInstanceMapGenerated
PUBLIC	_UnitStringsGenerated
PUBLIC	_FloorPlanGenerated
PUBLIC	_StrobeToRegisterGenerated
PUBLIC	_RankToRegisterGenerated
PUBLIC	_GsmGtToMmrcDefine
PUBLIC	_GsmCsnToMmrcDefine
PUBLIC	_ExternalFunctions
PUBLIC	_ADdllGenerated
PUBLIC	_HalfClkGenerated
PUBLIC	_GranularityGenerated
PUBLIC	_ClockCrossingsGenerated
PUBLIC	_DigitalDllRangesGenerated
PUBLIC	_SignalInfoGenerated
PUBLIC	_NumberAlgosGenerated
PUBLIC	_NumberOfDependantElementsGenerated
PUBLIC	_NumberOfDelayElementsPerAlgoGenerated
PUBLIC	_NumberOfCCElementsGenerated
PUBLIC	_NumberOfCCRangesGenerated
PUBLIC	_NumberOfElementsPerAlgoGenerated
PUBLIC	_NumberOfFrequenciesGenerated
PUBLIC	_DelayIndexToOffsetLayerGenerated
PUBLIC	_GroupIndexToOffsetLayerGenerated
PUBLIC	_UniqueIndexToOffsetLayerGenerated
PUBLIC	_ElementsGenerated
PUBLIC	_DEF_0_GENERATED
PUBLIC	_DEF_1_GENERATED
PUBLIC	_DEF_4_GENERATED
PUBLIC	_DEF_5_GENERATED
EXTRN	_GetSetWrLvlSmp:PROC
EXTRN	_GetSetWrLvlDelay:PROC
EXTRN	_GetSetDimmVref:PROC
EXTRN	_GetSetTxSwingB:PROC
EXTRN	_GetSetTxEq:PROC
EXTRN	_GetSetTxDqDelayGExt:PROC
EXTRN	_GetSetRxVref:PROC
EXTRN	_GetSetRxDqsTether:PROC
EXTRN	_GetSetCtle:PROC
EXTRN	_GetSetCmdVref:PROC
EXTRN	_SignalPunitMemInitDone:PROC
EXTRN	_MciDunit:PROC
EXTRN	_ProgramParityCheck:PROC
EXTRN	_RestoreArmNvDimms:PROC
EXTRN	_ScrubMemory:PROC
EXTRN	_MemoryTest:PROC
EXTRN	_CaParityEnable:PROC
EXTRN	_RaplSupport:PROC
EXTRN	_PostPackageRepairEntry:PROC
EXTRN	_DisplayInformation:PROC
EXTRN	_PassGateTest:PROC
EXTRN	_ProgSliceChannelHash:PROC
EXTRN	_VrefOverride:PROC
EXTRN	_PhyViewTable:PROC
EXTRN	_PerformanceLatency:PROC
EXTRN	_SearchRmtWrapper:PROC
EXTRN	_FastBootChecker:PROC
EXTRN	_RxTxSkewCtl:PROC
EXTRN	_CommandClockTraining:PROC
EXTRN	_WriteTraining:PROC
EXTRN	_ReadTraining:PROC
EXTRN	_DnvNibbleTrainingExitHook:PROC
EXTRN	_CoarseWriteLeveling:PROC
EXTRN	_FineWriteLeveling:PROC
EXTRN	_DnvNibbleTrainingHook:PROC
EXTRN	_EarlyMprRead:PROC
EXTRN	_ReceiveEnable:PROC
EXTRN	_VocTraining:PROC
EXTRN	_CpgcBaseLineTest:PROC
EXTRN	_EarlySetWriteVref:PROC
EXTRN	_ReInitializeFunction:PROC
EXTRN	_GroupSaveRestore:PROC
EXTRN	_CommandRestore:PROC
EXTRN	_CommandClockEntry:PROC
EXTRN	_ClearSelfRefreshClamp:PROC
EXTRN	_DisableChannel:PROC
EXTRN	_CmdOverrideSettings:PROC
EXTRN	_MmrcExecuteTask:PROC
_DATA	SEGMENT
COMM	_CPGC_CONFIG_TYPES:DWORD
_DATA	ENDS
_BSS	SEGMENT
_DEF_0_GENERATED DD 01H DUP (?)
_BSS	ENDS
;	COMDAT ??_C@_0M@LANNLFEH@WrLvlSmpReg?$AA@
CONST	SEGMENT
??_C@_0M@LANNLFEH@WrLvlSmpReg?$AA@ DB 'WrLvlSmpReg', 00H ; `string'
CONST	ENDS
;	COMDAT ??_C@_08FFCKLLFH@WrLvlSmp?$AA@
CONST	SEGMENT
??_C@_08FFCKLLFH@WrLvlSmp?$AA@ DB 'WrLvlSmp', 00H	; `string'
CONST	ENDS
;	COMDAT ??_C@_0O@IDHNABIE@WrLvlDelayExt?$AA@
CONST	SEGMENT
??_C@_0O@IDHNABIE@WrLvlDelayExt?$AA@ DB 'WrLvlDelayExt', 00H ; `string'
CONST	ENDS
;	COMDAT ??_C@_0N@NLDIKHFG@WrCmdLatency?$AA@
CONST	SEGMENT
??_C@_0N@NLDIKHFG@WrCmdLatency?$AA@ DB 'WrCmdLatency', 00H ; `string'
CONST	ENDS
;	COMDAT ??_C@_06FJKGPFBP@TxVref?$AA@
CONST	SEGMENT
??_C@_06FJKGPFBP@TxVref?$AA@ DB 'TxVref', 00H		; `string'
CONST	ENDS
;	COMDAT ??_C@_0N@LCNEAHBM@TxSwingBoost?$AA@
CONST	SEGMENT
??_C@_0N@LCNEAHBM@TxSwingBoost?$AA@ DB 'TxSwingBoost', 00H ; `string'
CONST	ENDS
;	COMDAT ??_C@_0N@DIMJLPDJ@TxImodeDqsEn?$AA@
CONST	SEGMENT
??_C@_0N@DIMJLPDJ@TxImodeDqsEn?$AA@ DB 'TxImodeDqsEn', 00H ; `string'
CONST	ENDS
;	COMDAT ??_C@_0M@ONOBNFLG@TxImodeDqEn?$AA@
CONST	SEGMENT
??_C@_0M@ONOBNFLG@TxImodeDqEn?$AA@ DB 'TxImodeDqEn', 00H ; `string'
CONST	ENDS
;	COMDAT ??_C@_0P@FHCIAAOO@TxEqualization?$AA@
CONST	SEGMENT
??_C@_0P@FHCIAAOO@TxEqualization?$AA@ DB 'TxEqualization', 00H ; `string'
CONST	ENDS
;	COMDAT ??_C@_0BA@EFLDJCFB@TxDqsClkPushout?$AA@
CONST	SEGMENT
??_C@_0BA@EFLDJCFB@TxDqsClkPushout?$AA@ DB 'TxDqsClkPushout', 00H ; `string'
CONST	ENDS
;	COMDAT ??_C@_0O@KMHIAIDK@TxDqDelayGExt?$AA@
CONST	SEGMENT
??_C@_0O@KMHIAIDK@TxDqDelayGExt?$AA@ DB 'TxDqDelayGExt', 00H ; `string'
CONST	ENDS
;	COMDAT ??_C@_0P@NIMNNMEA@TxDqClkPushout?$AA@
CONST	SEGMENT
??_C@_0P@NIMNNMEA@TxDqClkPushout?$AA@ DB 'TxDqClkPushout', 00H ; `string'
CONST	ENDS
;	COMDAT ??_C@_0P@MKMCAJNM@RxVrefRangeSel?$AA@
CONST	SEGMENT
??_C@_0P@MKMCAJNM@RxVrefRangeSel?$AA@ DB 'RxVrefRangeSel', 00H ; `string'
CONST	ENDS
;	COMDAT ??_C@_0L@NMBJEDEJ@RxVrefCtrl?$AA@
CONST	SEGMENT
??_C@_0L@NMBJEDEJ@RxVrefCtrl?$AA@ DB 'RxVrefCtrl', 00H	; `string'
CONST	ENDS
;	COMDAT ??_C@_06DKHGMACF@RxVref?$AA@
CONST	SEGMENT
??_C@_06DKHGMACF@RxVref?$AA@ DB 'RxVref', 00H		; `string'
CONST	ENDS
;	COMDAT ??_C@_09GPDLCDPF@RxVocVal7?$AA@
CONST	SEGMENT
??_C@_09GPDLCDPF@RxVocVal7?$AA@ DB 'RxVocVal7', 00H	; `string'
CONST	ENDS
;	COMDAT ??_C@_09HGCABCLE@RxVocVal6?$AA@
CONST	SEGMENT
??_C@_09HGCABCLE@RxVocVal6?$AA@ DB 'RxVocVal6', 00H	; `string'
CONST	ENDS
;	COMDAT ??_C@_09FNANEBHH@RxVocVal5?$AA@
CONST	SEGMENT
??_C@_09FNANEBHH@RxVocVal5?$AA@ DB 'RxVocVal5', 00H	; `string'
CONST	ENDS
;	COMDAT ??_C@_09EEBGHADG@RxVocVal4?$AA@
CONST	SEGMENT
??_C@_09EEBGHADG@RxVocVal4?$AA@ DB 'RxVocVal4', 00H	; `string'
CONST	ENDS
;	COMDAT ??_C@_09LFHOGPB@RxVocVal3?$AA@
CONST	SEGMENT
??_C@_09LFHOGPB@RxVocVal3?$AA@ DB 'RxVocVal3', 00H	; `string'
CONST	ENDS
;	COMDAT ??_C@_09BCEMNHLA@RxVocVal2?$AA@
CONST	SEGMENT
??_C@_09BCEMNHLA@RxVocVal2?$AA@ DB 'RxVocVal2', 00H	; `string'
CONST	ENDS
;	COMDAT ??_C@_09DJGBIEHD@RxVocVal1?$AA@
CONST	SEGMENT
??_C@_09DJGBIEHD@RxVocVal1?$AA@ DB 'RxVocVal1', 00H	; `string'
CONST	ENDS
;	COMDAT ??_C@_09CAHKLFDC@RxVocVal0?$AA@
CONST	SEGMENT
??_C@_09CAHKLFDC@RxVocVal0?$AA@ DB 'RxVocVal0', 00H	; `string'
CONST	ENDS
;	COMDAT ??_C@_08OLFKOFNC@RxVocSmp?$AA@
CONST	SEGMENT
??_C@_08OLFKOFNC@RxVocSmp?$AA@ DB 'RxVocSmp', 00H	; `string'
CONST	ENDS
;	COMDAT ??_C@_09IAGFCBCK@RxVocEnDq?$AA@
CONST	SEGMENT
??_C@_09IAGFCBCK@RxVocEnDq?$AA@ DB 'RxVocEnDq', 00H	; `string'
CONST	ENDS
;	COMDAT ??_C@_0M@GMKLHAJL@RxDqsTether?$AA@
CONST	SEGMENT
??_C@_0M@GMKLHAJL@RxDqsTether?$AA@ DB 'RxDqsTether', 00H ; `string'
CONST	ENDS
;	COMDAT ??_C@_0BA@LGBAFEIL@RxDqsClkPushOut?$AA@
CONST	SEGMENT
??_C@_0BA@LGBAFEIL@RxDqsClkPushOut?$AA@ DB 'RxDqsClkPushOut', 00H ; `string'
CONST	ENDS
;	COMDAT ??_C@_0P@FKAFKHIM@RxDqClkPushOut?$AA@
CONST	SEGMENT
??_C@_0P@FKAFKHIM@RxDqClkPushOut?$AA@ DB 'RxDqClkPushOut', 00H ; `string'
CONST	ENDS
;	COMDAT ??_C@_08KIBIKJDM@RecEnSmp?$AA@
CONST	SEGMENT
??_C@_08KIBIKJDM@RecEnSmp?$AA@ DB 'RecEnSmp', 00H	; `string'
CONST	ENDS
;	COMDAT ??_C@_0BA@PDKCAAHL@RecEnClkPushOut?$AA@
CONST	SEGMENT
??_C@_0BA@PDKCAAHL@RecEnClkPushOut?$AA@ DB 'RecEnClkPushOut', 00H ; `string'
CONST	ENDS
;	COMDAT ??_C@_0P@LFFIKBMF@RdEnClkPushOut?$AA@
CONST	SEGMENT
??_C@_0P@LFFIKBMF@RdEnClkPushOut?$AA@ DB 'RdEnClkPushOut', 00H ; `string'
CONST	ENDS
;	COMDAT ??_C@_0N@CFDCFMFJ@RdCmdLatency?$AA@
CONST	SEGMENT
??_C@_0N@CFDCFMFJ@RdCmdLatency?$AA@ DB 'RdCmdLatency', 00H ; `string'
CONST	ENDS
;	COMDAT ??_C@_0P@JILAEHMM@rdcmd2rdvldsig?$AA@
CONST	SEGMENT
??_C@_0P@JILAEHMM@rdcmd2rdvldsig?$AA@ DB 'rdcmd2rdvldsig', 00H ; `string'
CONST	ENDS
;	COMDAT ??_C@_0M@IBKKBBGF@OdtSegEnOff?$AA@
CONST	SEGMENT
??_C@_0M@IBKKBBGF@OdtSegEnOff?$AA@ DB 'OdtSegEnOff', 00H ; `string'
CONST	ENDS
;	COMDAT ??_C@_08JBEGBMNF@OdtEnOff?$AA@
CONST	SEGMENT
??_C@_08JBEGBMNF@OdtEnOff?$AA@ DB 'OdtEnOff', 00H	; `string'
CONST	ENDS
;	COMDAT ??_C@_0BA@PAOGMKCD@IoDrvClkPushOut?$AA@
CONST	SEGMENT
??_C@_0BA@PAOGMKCD@IoDrvClkPushOut?$AA@ DB 'IoDrvClkPushOut', 00H ; `string'
CONST	ENDS
;	COMDAT ??_C@_0O@JEMHKADN@DqsdrvEnbIdle?$AA@
CONST	SEGMENT
??_C@_0O@JEMHKADN@DqsdrvEnbIdle?$AA@ DB 'DqsdrvEnbIdle', 00H ; `string'
CONST	ENDS
;	COMDAT ??_C@_0L@CNICHADH@DiffAmpLen?$AA@
CONST	SEGMENT
??_C@_0L@CNICHADH@DiffAmpLen?$AA@ DB 'DiffAmpLen', 00H	; `string'
CONST	ENDS
;	COMDAT ??_C@_09EKIKHGEK@Ctle_Wrap?$AA@
CONST	SEGMENT
??_C@_09EKIKHGEK@Ctle_Wrap?$AA@ DB 'Ctle_Wrap', 00H	; `string'
CONST	ENDS
;	COMDAT ??_C@_07CNAAHGKK@Ctle_en?$AA@
CONST	SEGMENT
??_C@_07CNAAHGKK@Ctle_en?$AA@ DB 'Ctle_en', 00H		; `string'
CONST	ENDS
;	COMDAT ??_C@_09GKEOAKPJ@Ctle_caps?$AA@
CONST	SEGMENT
??_C@_09GKEOAKPJ@Ctle_caps?$AA@ DB 'Ctle_caps', 00H	; `string'
CONST	ENDS
;	COMDAT ??_C@_08DHCGCLJH@Ctle_cap?$AA@
CONST	SEGMENT
??_C@_08DHCGCLJH@Ctle_cap?$AA@ DB 'Ctle_cap', 00H	; `string'
CONST	ENDS
;	COMDAT ??_C@_09IPHOMCOB@Ctle_bias?$AA@
CONST	SEGMENT
??_C@_09IPHOMCOB@Ctle_bias?$AA@ DB 'Ctle_bias', 00H	; `string'
CONST	ENDS
;	COMDAT ??_C@_07EPBFBCGH@CmdVref?$AA@
CONST	SEGMENT
??_C@_07EPBFBCGH@CmdVref?$AA@ DB 'CmdVref', 00H		; `string'
CONST	ENDS
;	COMDAT ??_C@_0L@IEIGLHDO@TxDqsDelay?$AA@
CONST	SEGMENT
??_C@_0L@IEIGLHDO@TxDqsDelay?$AA@ DB 'TxDqsDelay', 00H	; `string'
CONST	ENDS
;	COMDAT ??_C@_0N@IFFECNPI@TxDqDrvDelay?$AA@
CONST	SEGMENT
??_C@_0N@IFFECNPI@TxDqDrvDelay?$AA@ DB 'TxDqDrvDelay', 00H ; `string'
CONST	ENDS
;	COMDAT ??_C@_09DDKFMKK@TxDqDelay?$AA@
CONST	SEGMENT
??_C@_09DDKFMKK@TxDqDelay?$AA@ DB 'TxDqDelay', 00H	; `string'
CONST	ENDS
;	COMDAT ??_C@_0O@FOJDHKHC@TxDqDrvDelay2?$AA@
CONST	SEGMENT
??_C@_0O@FOJDHKHC@TxDqDrvDelay2?$AA@ DB 'TxDqDrvDelay2', 00H ; `string'
CONST	ENDS
;	COMDAT ??_C@_0L@NLHACENL@TxDqDelay2?$AA@
CONST	SEGMENT
??_C@_0L@NLHACENL@TxDqDelay2?$AA@ DB 'TxDqDelay2', 00H	; `string'
CONST	ENDS
;	COMDAT ??_C@_0M@GCALNKGJ@RxDqsPDelay?$AA@
CONST	SEGMENT
??_C@_0M@GCALNKGJ@RxDqsPDelay?$AA@ DB 'RxDqsPDelay', 00H ; `string'
CONST	ENDS
;	COMDAT ??_C@_0M@FFOKDNPK@RxDqsNDelay?$AA@
CONST	SEGMENT
??_C@_0M@FFOKDNPK@RxDqsNDelay?$AA@ DB 'RxDqsNDelay', 00H ; `string'
CONST	ENDS
;	COMDAT ??_C@_07MILKAOOO@CtlGrp2?$AA@
CONST	SEGMENT
??_C@_07MILKAOOO@CtlGrp2?$AA@ DB 'CtlGrp2', 00H		; `string'
CONST	ENDS
;	COMDAT ??_C@_07ODJHFNCN@CtlGrp1?$AA@
CONST	SEGMENT
??_C@_07ODJHFNCN@CtlGrp1?$AA@ DB 'CtlGrp1', 00H		; `string'
CONST	ENDS
;	COMDAT ??_C@_07PKIMGMGM@CtlGrp0?$AA@
CONST	SEGMENT
??_C@_07PKIMGMGM@CtlGrp0?$AA@ DB 'CtlGrp0', 00H		; `string'
CONST	ENDS
;	COMDAT ??_C@_07KLNIKBNL@CmdGrp7?$AA@
CONST	SEGMENT
??_C@_07KLNIKBNL@CmdGrp7?$AA@ DB 'CmdGrp7', 00H		; `string'
CONST	ENDS
;	COMDAT ??_C@_07LCMDJAJK@CmdGrp6?$AA@
CONST	SEGMENT
??_C@_07LCMDJAJK@CmdGrp6?$AA@ DB 'CmdGrp6', 00H		; `string'
CONST	ENDS
;	COMDAT ??_C@_07JJOOMDFJ@CmdGrp5?$AA@
CONST	SEGMENT
??_C@_07JJOOMDFJ@CmdGrp5?$AA@ DB 'CmdGrp5', 00H		; `string'
CONST	ENDS
;	COMDAT ??_C@_07IAPFPCBI@CmdGrp4?$AA@
CONST	SEGMENT
??_C@_07IAPFPCBI@CmdGrp4?$AA@ DB 'CmdGrp4', 00H		; `string'
CONST	ENDS
;	COMDAT ??_C@_07MPLEGENP@CmdGrp3?$AA@
CONST	SEGMENT
??_C@_07MPLEGENP@CmdGrp3?$AA@ DB 'CmdGrp3', 00H		; `string'
CONST	ENDS
;	COMDAT ??_C@_07NGKPFFJO@CmdGrp2?$AA@
CONST	SEGMENT
??_C@_07NGKPFFJO@CmdGrp2?$AA@ DB 'CmdGrp2', 00H		; `string'
CONST	ENDS
;	COMDAT ??_C@_07PNICAGFN@CmdGrp1?$AA@
CONST	SEGMENT
??_C@_07PNICAGFN@CmdGrp1?$AA@ DB 'CmdGrp1', 00H		; `string'
CONST	ENDS
;	COMDAT ??_C@_07OEJJDHBM@CmdGrp0?$AA@
CONST	SEGMENT
??_C@_07OEJJDHBM@CmdGrp0?$AA@ DB 'CmdGrp0', 00H		; `string'
CONST	ENDS
;	COMDAT ??_C@_0N@EAAAGICG@TxDqBitDelay?$AA@
CONST	SEGMENT
??_C@_0N@EAAAGICG@TxDqBitDelay?$AA@ DB 'TxDqBitDelay', 00H ; `string'
CONST	ENDS
;	COMDAT ??_C@_0N@OAOFLHPL@RxDqBitDelay?$AA@
CONST	SEGMENT
??_C@_0N@OAOFLHPL@RxDqBitDelay?$AA@ DB 'RxDqBitDelay', 00H ; `string'
CONST	ENDS
;	COMDAT ??_C@_0L@FPHNDIMG@RecEnDelay?$AA@
CONST	SEGMENT
??_C@_0L@FPHNDIMG@RecEnDelay?$AA@ DB 'RecEnDelay', 00H	; `string'
CONST	ENDS
;	COMDAT ??_C@_05ICDOEJHF@CkAll?$AA@
CONST	SEGMENT
??_C@_05ICDOEJHF@CkAll?$AA@ DB 'CkAll', 00H		; `string'
CONST	ENDS
CONST	SEGMENT
_SubtaskOffsetIndex DW 03aH
	ORG $+2
	DD	01bacH
	DW	06eH
	ORG $+2
	DD	01f60H
	DW	08bH
	ORG $+2
	DD	02e1aH
	DW	08cH
	ORG $+2
	DD	02e35H
	DW	08dH
	ORG $+2
	DD	02e44H
	DW	038H
	ORG $+2
	DD	01b96H
	DW	06cH
	ORG $+2
	DD	01eb7H
	DW	057H
	ORG $+2
	DD	01bd1H
	DW	039H
	ORG $+2
	DD	01ba5H
	DW	0cdH
	ORG $+2
	DD	039d9H
	DW	0d8H
	ORG $+2
	DD	03ca5H
	DW	0daH
	ORG $+2
	DD	03cc4H
	DW	0edH
	ORG $+2
	DD	0431aH
	DW	0f1H
	ORG $+2
	DD	0436bH
	DW	0dcH
	ORG $+2
	DD	03ce3H
	DW	0fcH
	ORG $+2
	DD	04605H
	DW	0f8H
	ORG $+2
	DD	0454aH
	DW	0faH
	ORG $+2
	DD	045acH
	DW	0f9H
	ORG $+2
	DD	0456bH
	DW	0fbH
	ORG $+2
	DD	045bbH
	DW	0fdH
	ORG $+2
	DD	04618H
	DW	0feH
	ORG $+2
	DD	0462eH
	DW	0ffH
	ORG $+2
	DD	04644H
	DW	0100H
	ORG $+2
	DD	04653H
	DW	0c8H
	ORG $+2
	DD	03933H
	DW	0c9H
	ORG $+2
	DD	0394aH
	DW	0caH
	ORG $+2
	DD	0395fH
	DW	0cbH
	ORG $+2
	DD	0397cH
	DW	0b3H
	ORG $+2
	DD	0387dH
	DW	07fH
	ORG $+2
	DD	02742H
	DW	0b4H
	ORG $+2
	DD	03890H
	DW	07cH
	ORG $+2
	DD	024b2H
	DW	07dH
	ORG $+2
	DD	026f5H
	DW	0c7H
	ORG $+2
	DD	0391cH
	DW	0c6H
	ORG $+2
	DD	03905H
	DW	0b2H
	ORG $+2
	DD	0386aH
	DW	0a3H
	ORG $+2
	DD	03705H
	ORG $+16
_InitData DB	030H
	DB	01H
	DB	034H
	DB	01H
	DB	01H
	DB	00H
	DB	01H
	DB	01H
	DB	00H
	DB	0ffH
	DB	01cH
	DB	00H
	DB	00H
	DB	0f4H
	DB	02H
	DB	056H
	DB	0f0H
	DB	01H
	DB	00H
	DB	010H
	DB	00H
	DB	01cH
	DB	00H
	DB	00H
	DB	024H
	DB	05H
	DB	056H
	DB	0f0H
	DB	01H
	DB	00H
	DB	010H
	DB	00H
	DB	0ffH
	DB	010H
	DB	078H
	DB	051H
	DB	030H
	DB	041H
	DB	01H
	DB	00H
	DB	00H
	DB	00H
	DB	02H
	DB	01H
	DB	030H
	DB	02H
	DB	010H
	DB	0ffH
	DB	00H
	DB	00H
	DB	068H
	DB	04H
	DB	05H
	DB	01H
	DB	0cH
	DB	02H
	DB	0eH
	DB	04H
	DB	010H
	DB	08H
	DB	012H
	DB	010H
	DB	014H
	DB	010H
	DB	00H
	DB	066H
	DB	0f0H
	DB	0ffH
	DB	00H
	DB	010H
	DB	03H
	DB	010H
	DB	020H
	DB	05fH
	DB	09cH
	DB	037H
	DB	0c0H
	DB	01fH
	DB	00H
	DB	00H
	DB	06H
	DB	0c0H
	DB	01H
	DB	010H
	DB	024H
	DB	051H
	DB	01H
	DB	00H
	DB	01H
	DB	00H
	DB	0ffH
	DB	0ffH
	DB	020H
	DB	0aH
	DB	00H
	DB	00H
	DB	00H
	DB	0ffH
	DB	010H
	DB	0cH
	DB	042H
	DB	030H
	DB	00H
	DB	030H
	DB	010H
	DB	018H
	DB	041H
	DB	080H
	DB	01H
	DB	02H
	DB	01H
	DB	00H
	DB	02H
	DB	080H
	DB	010H
	DB	018H
	DB	041H
	DB	07fH
	DB	00H
	DB	060H
	DB	010H
	DB	024H
	DB	044H
	DB	04H
	DB	01H
	DB	02H
	DB	01H
	DB	00H
	DB	02H
	DB	04H
	DB	014H
	DB	080H
	DB	01H
	DB	041H
	DB	04H
	DB	00H
	DB	04H
	DB	014H
	DB	084H
	DB	01H
	DB	041H
	DB	01fH
	DB	00H
	DB	02H
	DB	014H
	DB	088H
	DB	01H
	DB	043H
	DB	0ffH
	DB	03fH
	DB	00H
	DB	08bH
	DB	05H
	DB	014H
	DB	08cH
	DB	01H
	DB	041H
	DB	03fH
	DB	00H
	DB	03fH
	DB	014H
	DB	090H
	DB	01H
	DB	043H
	DB	0ffH
	DB	03fH
	DB	00H
	DB	08bH
	DB	05H
	DB	014H
	DB	094H
	DB	01H
	DB	047H
	DB	0ffH
	DB	0ffH
	DB	03H
	DB	00H
	DB	00H
	DB	00H
	DB	00H
	DB	014H
	DB	098H
	DB	01H
	DB	047H
	DB	0ffH
	DB	0ffH
	DB	03H
	DB	00H
	DB	00H
	DB	00H
	DB	00H
	DB	014H
	DB	09cH
	DB	01H
	DB	041H
	DB	0fH
	DB	00H
	DB	0fH
	DB	014H
	DB	0a0H
	DB	01H
	DB	043H
	DB	0ffH
	DB	03fH
	DB	00H
	DB	08bH
	DB	05H
	DB	034H
	DB	02H
	DB	00H
	DB	0a4H
	DB	01H
	DB	041H
	DB	0fH
	DB	00H
	DB	0bH
	DB	02cH
	DB	02H
	DB	01H
	DB	00H
	DB	00H
	DB	0b0H
	DB	01H
	DB	041H
	DB	010H
	DB	00H
	DB	00H
	DB	034H
	DB	02H
	DB	01H
	DB	0a4H
	DB	01H
	DB	041H
	DB	0fH
	DB	00H
	DB	0fH
	DB	02cH
	DB	02H
	DB	01H
	DB	00H
	DB	01H
	DB	0b0H
	DB	01H
	DB	041H
	DB	010H
	DB	01H
	DB	00H
	DB	014H
	DB	0b0H
	DB	03H
	DB	041H
	DB	04H
	DB	00H
	DB	04H
	DB	014H
	DB	0b4H
	DB	03H
	DB	041H
	DB	01fH
	DB	00H
	DB	02H
	DB	014H
	DB	0b8H
	DB	03H
	DB	043H
	DB	0ffH
	DB	03fH
	DB	00H
	DB	08bH
	DB	05H
	DB	014H
	DB	0bcH
	DB	03H
	DB	041H
	DB	03fH
	DB	00H
	DB	03fH
	DB	014H
	DB	0c0H
	DB	03H
	DB	043H
	DB	0ffH
	DB	03fH
	DB	00H
	DB	08bH
	DB	05H
	DB	014H
	DB	0c4H
	DB	03H
	DB	047H
	DB	0ffH
	DB	0ffH
	DB	03H
	DB	00H
	DB	00H
	DB	00H
	DB	00H
	DB	014H
	DB	0c8H
	DB	03H
	DB	047H
	DB	0ffH
	DB	0ffH
	DB	03H
	DB	00H
	DB	00H
	DB	00H
	DB	00H
	DB	014H
	DB	0ccH
	DB	03H
	DB	041H
	DB	0fH
	DB	00H
	DB	0fH
	DB	014H
	DB	0d0H
	DB	03H
	DB	043H
	DB	0ffH
	DB	03fH
	DB	00H
	DB	08bH
	DB	05H
	DB	034H
	DB	02H
	DB	00H
	DB	0d4H
	DB	03H
	DB	041H
	DB	0fH
	DB	00H
	DB	0bH
	DB	02cH
	DB	02H
	DB	03H
	DB	00H
	DB	00H
	DB	0e0H
	DB	03H
	DB	041H
	DB	010H
	DB	02H
	DB	00H
	DB	034H
	DB	02H
	DB	01H
	DB	0d4H
	DB	03H
	DB	041H
	DB	0fH
	DB	00H
	DB	0fH
	DB	02cH
	DB	02H
	DB	03H
	DB	00H
	DB	01H
	DB	0e0H
	DB	03H
	DB	041H
	DB	010H
	DB	03H
	DB	00H
	DB	014H
	DB	0e0H
	DB	05H
	DB	04eH
	DB	0ffH
	DB	0ffH
	DB	07fH
	DB	00H
	DB	0aH
	DB	02H
	DB	04H
	DB	04H
	DB	0e0H
	DB	05H
	DB	041H
	DB	04H
	DB	05H
	DB	01H
	DB	050H
	DB	02H
	DB	05dH
	DB	04H
	DB	06aH
	DB	08H
	DB	078H
	DB	010H
	DB	085H
	DB	014H
	DB	0e4H
	DB	05H
	DB	04fH
	DB	0ffH
	DB	0ffH
	DB	0ffH
	DB	07H
	DB	00H
	DB	025H
	DB	020H
	DB	020H
	DB	00H
	DB	014H
	DB	0e8H
	DB	05H
	DB	046H
	DB	0e0H
	DB	0fH
	DB	00H
	DB	020H
	DB	00H
	DB	014H
	DB	0ecH
	DB	05H
	DB	042H
	DB	03cH
	DB	00H
	DB	01cH
	DB	014H
	DB	0f0H
	DB	05H
	DB	043H
	DB	0ffH
	DB	03H
	DB	00H
	DB	080H
	DB	01H
	DB	014H
	DB	08H
	DB	06H
	DB	04cH
	DB	0e0H
	DB	03H
	DB	04H
	DB	05H
	DB	01H
	DB	0c0H
	DB	00H
	DB	02H
	DB	040H
	DB	01H
	DB	04H
	DB	060H
	DB	00H
	DB	08H
	DB	040H
	DB	01H
	DB	010H
	DB	0e0H
	DB	00H
	DB	014H
	DB	08H
	DB	06H
	DB	041H
	DB	02H
	DB	00H
	DB	02H
	DB	014H
	DB	0cH
	DB	06H
	DB	044H
	DB	07cH
	DB	04H
	DB	05H
	DB	01H
	DB	018H
	DB	02H
	DB	028H
	DB	04H
	DB	0cH
	DB	08H
	DB	028H
	DB	010H
	DB	01cH
	DB	04H
	DB	010H
	DB	06H
	DB	041H
	DB	00H
	DB	074H
	DB	014H
	DB	01cH
	DB	06H
	DB	047H
	DB	0ffH
	DB	0ffH
	DB	07H
	DB	00H
	DB	044H
	DB	0f4H
	DB	03H
	DB	014H
	DB	020H
	DB	06H
	DB	042H
	DB	010H
	DB	00H
	DB	010H
	DB	014H
	DB	020H
	DB	06H
	DB	043H
	DB	0ffH
	DB	0fH
	DB	01H
	DB	02H
	DB	01H
	DB	05dH
	DB	07H
	DB	02H
	DB	045H
	DB	01H
	DB	04H
	DB	024H
	DB	06H
	DB	041H
	DB	00H
	DB	088H
	DB	014H
	DB	028H
	DB	06H
	DB	043H
	DB	0ffH
	DB	01H
	DB	00H
	DB	0bfH
	DB	01H
	DB	014H
	DB	02cH
	DB	06H
	DB	043H
	DB	0ffH
	DB	01fH
	DB	040H
	DB	01H
	DB	00H
	DB	00H
	DB	00H
	DB	04H
	DB	04H
	DB	010H
	DB	0cH
	DB	052H
	DB	030H
	DB	00H
	DB	030H
	DB	010H
	DB	018H
	DB	051H
	DB	080H
	DB	01H
	DB	02H
	DB	01H
	DB	00H
	DB	02H
	DB	080H
	DB	010H
	DB	018H
	DB	051H
	DB	07fH
	DB	00H
	DB	060H
	DB	010H
	DB	030H
	DB	058H
	DB	010H
	DB	01H
	DB	02H
	DB	01H
	DB	00H
	DB	02H
	DB	010H
	DB	010H
	DB	03cH
	DB	054H
	DB	04H
	DB	01H
	DB	02H
	DB	01H
	DB	00H
	DB	02H
	DB	04H
	DB	010H
	DB	03cH
	DB	052H
	DB	0e0H
	DB	00H
	DB	0e0H
	DB	014H
	DB	080H
	DB	01H
	DB	053H
	DB	010H
	DB	0cH
	DB	00H
	DB	010H
	DB	0cH
	DB	014H
	DB	084H
	DB	01H
	DB	051H
	DB	01fH
	DB	00H
	DB	02H
	DB	014H
	DB	088H
	DB	01H
	DB	053H
	DB	0ffH
	DB	03fH
	DB	00H
	DB	08bH
	DB	05H
	DB	014H
	DB	08cH
	DB	01H
	DB	056H
	DB	0feH
	DB	07H
	DB	00H
	DB	0feH
	DB	07H
	DB	014H
	DB	090H
	DB	01H
	DB	05fH
	DB	0ffH
	DB	0ffH
	DB	0ffH
	DB	0fH
	DB	00H
	DB	0ffH
	DB	042H
	DB	08H
	DB	01H
	DB	014H
	DB	094H
	DB	01H
	DB	057H
	DB	0ffH
	DB	0ffH
	DB	03H
	DB	00H
	DB	00H
	DB	00H
	DB	00H
	DB	014H
	DB	098H
	DB	01H
	DB	057H
	DB	0ffH
	DB	0ffH
	DB	03H
	DB	00H
	DB	00H
	DB	00H
	DB	00H
	DB	014H
	DB	09cH
	DB	01H
	DB	051H
	DB	01fH
	DB	00H
	DB	01eH
	DB	04H
	DB	0a8H
	DB	01H
	DB	05fH
	DB	010H
	DB	04H
	DB	00H
	DB	014H
	DB	0b0H
	DB	02H
	DB	051H
	DB	08H
	DB	00H
	DB	08H
	DB	014H
	DB	0b4H
	DB	02H
	DB	051H
	DB	02H
	DB	00H
	DB	02H
	DB	014H
	DB	0bcH
	DB	02H
	DB	054H
	DB	04H
	DB	00H
	DB	00H
	DB	04H
	DB	0c4H
	DB	02H
	DB	05cH
	DB	00H
	DB	00H
	DB	00H
	DB	04H
	DB	0c4H
	DB	02H
	DB	052H
	DB	05H
	DB	03H
	DB	0dH
	DB	01H
	DB	01eH
	DB	01H
	DB	062H
	DB	02H
	DB	04H
	DB	0c4H
	DB	02H
	DB	051H
	DB	00H
	DB	00H
	DB	04H
	DB	0c8H
	DB	02H
	DB	05fH
	DB	00H
	DB	00H
	DB	00H
	DB	00H
	DB	06H
	DB	014H
	DB	0ccH
	DB	02H
	DB	058H
	DB	0fH
	DB	00H
	DB	00H
	DB	04H
	DB	0ccH
	DB	02H
	DB	054H
	DB	05H
	DB	04H
	DB	0dH
	DB	02H
	DB	0eH
	DB	02H
	DB	032H
	DB	03H
	DB	042H
	DB	04H
	DB	04H
	DB	0ccH
	DB	02H
	DB	053H
	DB	00H
	DB	00H
	DB	00H
	DB	04H
	DB	0d0H
	DB	02H
	DB	05fH
	DB	00H
	DB	00H
	DB	00H
	DB	00H
	DB	01eH
	DB	04H
	DB	0d4H
	DB	02H
	DB	05eH
	DB	05H
	DB	03H
	DB	0dH
	DB	01H
	DB	01H
	DB	00H
	DB	01eH
	DB	01H
	DB	01H
	DB	00H
	DB	062H
	DB	02H
	DB	02H
	DB	00H
	DB	04H
	DB	0d4H
	DB	02H
	DB	051H
	DB	00H
	DB	00H
	DB	04H
	DB	0d8H
	DB	02H
	DB	05fH
	DB	05H
	DB	03H
	DB	0dH
	DB	01H
	DB	00H
	DB	01H
	DB	00H
	DB	01eH
	DB	01H
	DB	00H
	DB	01H
	DB	00H
	DB	062H
	DB	02H
	DB	00H
	DB	02H
	DB	00H
	DB	04H
	DB	0dcH
	DB	02H
	DB	058H
	DB	04H
	DB	05H
	DB	01H
	DB	045H
	DB	02H
	DB	051H
	DB	04H
	DB	05dH
	DB	08H
	DB	068H
	DB	010H
	DB	074H
	DB	04H
	DB	0dcH
	DB	02H
	DB	057H
	DB	00H
	DB	00H
	DB	00H
	DB	00H
	DB	04H
	DB	0e0H
	DB	02H
	DB	058H
	DB	00H
	DB	00H
	DB	04H
	DB	0e0H
	DB	02H
	DB	057H
	DB	05H
	DB	03H
	DB	0dH
	DB	01H
	DB	01H
	DB	01H
	DB	01eH
	DB	01H
	DB	01H
	DB	01H
	DB	062H
	DB	02H
	DB	02H
	DB	02H
	DB	04H
	DB	0e4H
	DB	02H
	DB	057H
	DB	00H
	DB	00H
	DB	00H
	DB	00H
	DB	04H
	DB	0e8H
	DB	02H
	DB	057H
	DB	00H
	DB	00H
	DB	00H
	DB	00H
	DB	014H
	DB	0ecH
	DB	02H
	DB	05fH
	DB	0f0H
	DB	0ffH
	DB	0ffH
	DB	01H
	DB	00H
	DB	00H
	DB	00H
	DB	00H
	DB	00H
	DB	014H
	DB	0ecH
	DB	02H
	DB	051H
	DB	0fH
	DB	05H
	DB	03H
	DB	0dH
	DB	01H
	DB	01eH
	DB	01H
	DB	062H
	DB	02H
	DB	014H
	DB	0f0H
	DB	02H
	DB	058H
	DB	078H
	DB	00H
	DB	00H
	DB	014H
	DB	0f0H
	DB	02H
	DB	05cH
	DB	080H
	DB	07H
	DB	05H
	DB	03H
	DB	0dH
	DB	080H
	DB	00H
	DB	01eH
	DB	080H
	DB	00H
	DB	062H
	DB	00H
	DB	01H
	DB	014H
	DB	0f0H
	DB	02H
	DB	057H
	DB	0ffH
	DB	0ffH
	DB	07fH
	DB	00H
	DB	00H
	DB	00H
	DB	00H
	DB	014H
	DB	0b0H
	DB	03H
	DB	053H
	DB	010H
	DB	0cH
	DB	00H
	DB	010H
	DB	0cH
	DB	014H
	DB	0b4H
	DB	03H
	DB	051H
	DB	01fH
	DB	00H
	DB	02H
	DB	014H
	DB	0b8H
	DB	03H
	DB	053H
	DB	0ffH
	DB	03fH
	DB	00H
	DB	08bH
	DB	05H
	DB	014H
	DB	0bcH
	DB	03H
	DB	056H
	DB	0feH
	DB	07H
	DB	00H
	DB	0feH
	DB	07H
	DB	014H
	DB	0c0H
	DB	03H
	DB	05fH
	DB	0ffH
	DB	0ffH
	DB	0ffH
	DB	0fH
	DB	00H
	DB	0ffH
	DB	042H
	DB	08H
	DB	01H
	DB	014H
	DB	0c4H
	DB	03H
	DB	057H
	DB	0ffH
	DB	0ffH
	DB	03H
	DB	00H
	DB	00H
	DB	00H
	DB	00H
	DB	014H
	DB	0c8H
	DB	03H
	DB	057H
	DB	0ffH
	DB	0ffH
	DB	03H
	DB	00H
	DB	00H
	DB	00H
	DB	00H
	DB	014H
	DB	0ccH
	DB	03H
	DB	051H
	DB	01fH
	DB	00H
	DB	01eH
	DB	04H
	DB	0d8H
	DB	03H
	DB	05fH
	DB	010H
	DB	05H
	DB	00H
	DB	014H
	DB	0e0H
	DB	04H
	DB	051H
	DB	08H
	DB	00H
	DB	08H
	DB	014H
	DB	0e4H
	DB	04H
	DB	051H
	DB	02H
	DB	00H
	DB	02H
	DB	014H
	DB	0ecH
	DB	04H
	DB	054H
	DB	04H
	DB	00H
	DB	00H
	DB	04H
	DB	0f4H
	DB	04H
	DB	05cH
	DB	00H
	DB	00H
	DB	00H
	DB	04H
	DB	0f4H
	DB	04H
	DB	052H
	DB	05H
	DB	03H
	DB	0dH
	DB	01H
	DB	01eH
	DB	01H
	DB	062H
	DB	02H
	DB	04H
	DB	0f4H
	DB	04H
	DB	051H
	DB	00H
	DB	00H
	DB	04H
	DB	0f8H
	DB	04H
	DB	05fH
	DB	00H
	DB	00H
	DB	00H
	DB	00H
	DB	06H
	DB	014H
	DB	0fcH
	DB	04H
	DB	058H
	DB	0fH
	DB	00H
	DB	00H
	DB	04H
	DB	0fcH
	DB	04H
	DB	054H
	DB	05H
	DB	04H
	DB	0dH
	DB	02H
	DB	0eH
	DB	02H
	DB	032H
	DB	03H
	DB	042H
	DB	04H
	DB	04H
	DB	0fcH
	DB	04H
	DB	053H
	DB	00H
	DB	00H
	DB	00H
	DB	04H
	DB	00H
	DB	05H
	DB	05fH
	DB	00H
	DB	00H
	DB	00H
	DB	00H
	DB	01eH
	DB	04H
	DB	04H
	DB	05H
	DB	05eH
	DB	05H
	DB	03H
	DB	0dH
	DB	01H
	DB	01H
	DB	00H
	DB	01eH
	DB	01H
	DB	01H
	DB	00H
	DB	062H
	DB	02H
	DB	02H
	DB	00H
	DB	04H
	DB	04H
	DB	05H
	DB	051H
	DB	00H
	DB	00H
	DB	04H
	DB	08H
	DB	05H
	DB	05fH
	DB	05H
	DB	03H
	DB	0dH
	DB	01H
	DB	00H
	DB	01H
	DB	00H
	DB	01eH
	DB	01H
	DB	00H
	DB	01H
	DB	00H
	DB	062H
	DB	02H
	DB	00H
	DB	02H
	DB	00H
	DB	04H
	DB	0cH
	DB	05H
	DB	058H
	DB	04H
	DB	05H
	DB	01H
	DB	045H
	DB	02H
	DB	051H
	DB	04H
	DB	05dH
	DB	08H
	DB	068H
	DB	010H
	DB	074H
	DB	04H
	DB	0cH
	DB	05H
	DB	057H
	DB	00H
	DB	00H
	DB	00H
	DB	00H
	DB	04H
	DB	010H
	DB	05H
	DB	058H
	DB	00H
	DB	00H
	DB	04H
	DB	010H
	DB	05H
	DB	057H
	DB	05H
	DB	03H
	DB	0dH
	DB	01H
	DB	01H
	DB	01H
	DB	01eH
	DB	01H
	DB	01H
	DB	01H
	DB	062H
	DB	02H
	DB	02H
	DB	02H
	DB	04H
	DB	014H
	DB	05H
	DB	057H
	DB	00H
	DB	00H
	DB	00H
	DB	00H
	DB	04H
	DB	018H
	DB	05H
	DB	057H
	DB	00H
	DB	00H
	DB	00H
	DB	00H
	DB	014H
	DB	01cH
	DB	05H
	DB	05fH
	DB	0f0H
	DB	0ffH
	DB	0ffH
	DB	01H
	DB	00H
	DB	00H
	DB	00H
	DB	00H
	DB	00H
	DB	014H
	DB	01cH
	DB	05H
	DB	051H
	DB	0fH
	DB	05H
	DB	03H
	DB	0dH
	DB	01H
	DB	01eH
	DB	01H
	DB	062H
	DB	02H
	DB	014H
	DB	020H
	DB	05H
	DB	058H
	DB	078H
	DB	00H
	DB	00H
	DB	014H
	DB	020H
	DB	05H
	DB	05cH
	DB	080H
	DB	07H
	DB	05H
	DB	03H
	DB	0dH
	DB	080H
	DB	00H
	DB	01eH
	DB	080H
	DB	00H
	DB	062H
	DB	00H
	DB	01H
	DB	014H
	DB	020H
	DB	05H
	DB	057H
	DB	0ffH
	DB	0ffH
	DB	07fH
	DB	00H
	DB	00H
	DB	00H
	DB	00H
	DB	014H
	DB	0e0H
	DB	05H
	DB	05eH
	DB	0ffH
	DB	0ffH
	DB	07fH
	DB	00H
	DB	0aH
	DB	02H
	DB	04H
	DB	04H
	DB	0e0H
	DB	05H
	DB	051H
	DB	04H
	DB	05H
	DB	01H
	DB	050H
	DB	02H
	DB	05dH
	DB	04H
	DB	06aH
	DB	08H
	DB	078H
	DB	010H
	DB	085H
	DB	014H
	DB	0e4H
	DB	05H
	DB	05fH
	DB	0ffH
	DB	0ffH
	DB	0ffH
	DB	07H
	DB	00H
	DB	025H
	DB	020H
	DB	020H
	DB	00H
	DB	014H
	DB	0e8H
	DB	05H
	DB	056H
	DB	0e0H
	DB	0fH
	DB	00H
	DB	020H
	DB	00H
	DB	014H
	DB	0ecH
	DB	05H
	DB	052H
	DB	03cH
	DB	00H
	DB	01cH
	DB	014H
	DB	0f0H
	DB	05H
	DB	053H
	DB	0ffH
	DB	03H
	DB	00H
	DB	0c0H
	DB	00H
	DB	014H
	DB	08H
	DB	06H
	DB	05cH
	DB	0e0H
	DB	03H
	DB	04H
	DB	05H
	DB	01H
	DB	040H
	DB	01H
	DB	02H
	DB	040H
	DB	01H
	DB	04H
	DB	0c0H
	DB	00H
	DB	08H
	DB	040H
	DB	01H
	DB	010H
	DB	0e0H
	DB	00H
	DB	014H
	DB	08H
	DB	06H
	DB	051H
	DB	02H
	DB	00H
	DB	02H
	DB	014H
	DB	0cH
	DB	06H
	DB	054H
	DB	07cH
	DB	04H
	DB	05H
	DB	01H
	DB	018H
	DB	02H
	DB	028H
	DB	04H
	DB	0cH
	DB	08H
	DB	028H
	DB	010H
	DB	01cH
	DB	04H
	DB	010H
	DB	06H
	DB	051H
	DB	00H
	DB	074H
	DB	014H
	DB	01cH
	DB	06H
	DB	057H
	DB	0ffH
	DB	0ffH
	DB	07H
	DB	00H
	DB	044H
	DB	0f4H
	DB	03H
	DB	014H
	DB	020H
	DB	06H
	DB	052H
	DB	010H
	DB	00H
	DB	010H
	DB	014H
	DB	020H
	DB	06H
	DB	053H
	DB	0ffH
	DB	0fH
	DB	01H
	DB	02H
	DB	01H
	DB	05dH
	DB	07H
	DB	02H
	DB	045H
	DB	01H
	DB	04H
	DB	024H
	DB	06H
	DB	051H
	DB	00H
	DB	088H
	DB	014H
	DB	028H
	DB	06H
	DB	053H
	DB	0ffH
	DB	01H
	DB	00H
	DB	0bfH
	DB	01H
	DB	014H
	DB	02cH
	DB	06H
	DB	053H
	DB	0ffH
	DB	01fH
	DB	00H
	DB	04H
	DB	04H
	DB	014H
	DB	0e0H
	DB	06H
	DB	05fH
	DB	0ffH
	DB	0ffH
	DB	0ffH
	DB	07fH
	DB	00H
	DB	0eH
	DB	0aH
	DB	02H
	DB	0cH
	DB	014H
	DB	0e4H
	DB	06H
	DB	05fH
	DB	0feH
	DB	0ffH
	DB	0ffH
	DB	0fH
	DB	00H
	DB	0eaH
	DB	0e0H
	DB	0e0H
	DB	00H
	DB	014H
	DB	0e8H
	DB	06H
	DB	053H
	DB	080H
	DB	01H
	DB	00H
	DB	080H
	DB	01H
	DB	01cH
	DB	06H
	DB	00H
	DB	0e8H
	DB	06H
	DB	053H
	DB	080H
	DB	01H
	DB	00H
	DB	00H
	DB	01H
	DB	01cH
	DB	07H
	DB	00H
	DB	0e8H
	DB	06H
	DB	053H
	DB	080H
	DB	01H
	DB	00H
	DB	080H
	DB	00H
	DB	014H
	DB	0e8H
	DB	06H
	DB	051H
	DB	07fH
	DB	00H
	DB	03fH
	DB	04H
	DB	0f0H
	DB	06H
	DB	05fH
	DB	01H
	DB	02H
	DB	01H
	DB	024H
	DB	024H
	DB	032H
	DB	032H
	DB	02H
	DB	023H
	DB	023H
	DB	02dH
	DB	02dH
	DB	04H
	DB	0f4H
	DB	06H
	DB	057H
	DB	01H
	DB	02H
	DB	01H
	DB	057H
	DB	057H
	DB	032H
	DB	02H
	DB	036H
	DB	036H
	DB	02dH
	DB	014H
	DB	0f8H
	DB	06H
	DB	057H
	DB	0feH
	DB	0ffH
	DB	07fH
	DB	00H
	DB	00H
	DB	080H
	DB	07fH
	DB	014H
	DB	08H
	DB	07H
	DB	05fH
	DB	0ffH
	DB	0ffH
	DB	0ffH
	DB	07H
	DB	00H
	DB	00H
	DB	0faH
	DB	00H
	DB	00H
	DB	010H
	DB	010H
	DB	033H
	DB	0ffH
	DB	03fH
	DB	00H
	DB	0ffH
	DB	03fH
	DB	00H
	DB	01cH
	DB	03fH
	DB	00H
	DB	020H
	DB	020H
	DB	020H
	DB	020H
	DB	010H
	DB	020H
	DB	03cH
	DB	0f2H
	DB	0ffH
	DB	01H
	DB	02H
	DB	01H
	DB	020H
	DB	049H
	DB	02H
	DB	082H
	DB	0e3H
	DB	04H
	DB	080H
	DB	01H
	DB	034H
	DB	010H
	DB	06H
	DB	00H
	DB	014H
	DB	080H
	DB	01H
	DB	034H
	DB	04H
	DB	05H
	DB	03H
	DB	0dH
	DB	00H
	DB	0eH
	DB	00H
	DB	072H
	DB	00H
	DB	014H
	DB	080H
	DB	01H
	DB	031H
	DB	040H
	DB	00H
	DB	040H
	DB	014H
	DB	084H
	DB	01H
	DB	033H
	DB	0ffH
	DB	07fH
	DB	00H
	DB	0c2H
	DB	020H
	DB	014H
	DB	088H
	DB	01H
	DB	033H
	DB	0ffH
	DB	01H
	DB	00H
	DB	082H
	DB	00H
	DB	014H
	DB	090H
	DB	01H
	DB	032H
	DB	03fH
	DB	00H
	DB	015H
	DB	04H
	DB	090H
	DB	01H
	DB	031H
	DB	011H
	DB	02H
	DB	01H
	DB	07H
	DB	00H
	DB	02H
	DB	08H
	DB	00H
	DB	014H
	DB	094H
	DB	01H
	DB	032H
	DB	03fH
	DB	00H
	DB	015H
	DB	04H
	DB	094H
	DB	01H
	DB	031H
	DB	011H
	DB	02H
	DB	01H
	DB	09H
	DB	00H
	DB	02H
	DB	0aH
	DB	00H
	DB	04H
	DB	098H
	DB	01H
	DB	037H
	DB	010H
	DB	0bH
	DB	00H
	DB	04H
	DB	098H
	DB	01H
	DB	031H
	DB	011H
	DB	02H
	DB	01H
	DB	0cH
	DB	00H
	DB	02H
	DB	0dH
	DB	00H
	DB	04H
	DB	09cH
	DB	01H
	DB	037H
	DB	010H
	DB	0eH
	DB	00H
	DB	04H
	DB	09cH
	DB	01H
	DB	031H
	DB	011H
	DB	02H
	DB	01H
	DB	0fH
	DB	00H
	DB	02H
	DB	010H
	DB	00H
	DB	014H
	DB	0a0H
	DB	01H
	DB	033H
	DB	0e0H
	DB	01H
	DB	00H
	DB	080H
	DB	00H
	DB	014H
	DB	0a0H
	DB	01H
	DB	031H
	DB	01fH
	DB	04H
	DB	05H
	DB	01H
	DB	02H
	DB	02H
	DB	02H
	DB	04H
	DB	03H
	DB	08H
	DB	03H
	DB	010H
	DB	04H
	DB	04H
	DB	0a0H
	DB	01H
	DB	031H
	DB	018H
	DB	01H
	DB	01H
	DB	011H
	DB	00H
	DB	014H
	DB	0a4H
	DB	01H
	DB	037H
	DB	080H
	DB	0ffH
	DB	07H
	DB	00H
	DB	080H
	DB	05eH
	DB	00H
	DB	014H
	DB	0a4H
	DB	01H
	DB	031H
	DB	060H
	DB	01H
	DB	02H
	DB	01H
	DB	00H
	DB	02H
	DB	040H
	DB	04H
	DB	0a4H
	DB	01H
	DB	031H
	DB	014H
	DB	05H
	DB	01H
	DB	012H
	DB	00H
	DB	02H
	DB	013H
	DB	00H
	DB	04H
	DB	014H
	DB	00H
	DB	08H
	DB	015H
	DB	00H
	DB	010H
	DB	016H
	DB	00H
	DB	0cH
	DB	04H
	DB	00H
	DB	0a4H
	DB	01H
	DB	031H
	DB	014H
	DB	05H
	DB	01H
	DB	017H
	DB	00H
	DB	02H
	DB	018H
	DB	00H
	DB	04H
	DB	019H
	DB	00H
	DB	08H
	DB	01aH
	DB	00H
	DB	010H
	DB	01bH
	DB	00H
	DB	014H
	DB	0a8H
	DB	01H
	DB	037H
	DB	080H
	DB	0ffH
	DB	07H
	DB	00H
	DB	080H
	DB	05eH
	DB	00H
	DB	014H
	DB	0a8H
	DB	01H
	DB	031H
	DB	060H
	DB	01H
	DB	02H
	DB	01H
	DB	00H
	DB	02H
	DB	040H
	DB	04H
	DB	0a8H
	DB	01H
	DB	031H
	DB	014H
	DB	05H
	DB	01H
	DB	01cH
	DB	00H
	DB	02H
	DB	01dH
	DB	00H
	DB	04H
	DB	01eH
	DB	00H
	DB	08H
	DB	01fH
	DB	00H
	DB	010H
	DB	020H
	DB	00H
	DB	0cH
	DB	04H
	DB	00H
	DB	0a8H
	DB	01H
	DB	031H
	DB	014H
	DB	05H
	DB	01H
	DB	021H
	DB	00H
	DB	02H
	DB	022H
	DB	00H
	DB	04H
	DB	023H
	DB	00H
	DB	08H
	DB	024H
	DB	00H
	DB	010H
	DB	025H
	DB	00H
	DB	014H
	DB	0acH
	DB	01H
	DB	03cH
	DB	0f8H
	DB	01H
	DB	05H
	DB	07H
	DB	05H
	DB	050H
	DB	00H
	DB	09H
	DB	060H
	DB	00H
	DB	06H
	DB	060H
	DB	00H
	DB	0aH
	DB	068H
	DB	00H
	DB	012H
	DB	078H
	DB	00H
	DB	022H
	DB	080H
	DB	00H
	DB	042H
	DB	088H
	DB	00H
	DB	014H
	DB	0acH
	DB	01H
	DB	036H
	DB	0f8H
	DB	07H
	DB	00H
	DB	0f8H
	DB	07H
	DB	04H
	DB	0acH
	DB	01H
	DB	031H
	DB	015H
	DB	07H
	DB	05H
	DB	026H
	DB	00H
	DB	09H
	DB	027H
	DB	00H
	DB	06H
	DB	028H
	DB	00H
	DB	0aH
	DB	029H
	DB	00H
	DB	012H
	DB	02aH
	DB	00H
	DB	022H
	DB	02bH
	DB	00H
	DB	042H
	DB	02cH
	DB	00H
	DB	014H
	DB	0b0H
	DB	01H
	DB	03cH
	DB	0f8H
	DB	01H
	DB	05H
	DB	03H
	DB	05H
	DB	028H
	DB	00H
	DB	09H
	DB	030H
	DB	00H
	DB	07eH
	DB	030H
	DB	00H
	DB	014H
	DB	0b0H
	DB	01H
	DB	036H
	DB	0f8H
	DB	07H
	DB	00H
	DB	0e0H
	DB	07H
	DB	04H
	DB	0b0H
	DB	01H
	DB	031H
	DB	015H
	DB	05H
	DB	07H
	DB	02dH
	DB	00H
	DB	0bH
	DB	02eH
	DB	00H
	DB	012H
	DB	02fH
	DB	00H
	DB	022H
	DB	030H
	DB	00H
	DB	042H
	DB	031H
	DB	00H
	DB	04H
	DB	0b4H
	DB	01H
	DB	033H
	DB	00H
	DB	00H
	DB	00H
	DB	014H
	DB	0b8H
	DB	01H
	DB	038H
	DB	020H
	DB	02H
	DB	02H
	DB	03H
	DB	020H
	DB	04H
	DB	00H
	DB	014H
	DB	0b8H
	DB	01H
	DB	038H
	DB	01eH
	DB	01H
	DB	02H
	DB	01H
	DB	04H
	DB	02H
	DB	0eH
	DB	014H
	DB	0b8H
	DB	01H
	DB	03eH
	DB	0f8H
	DB	0ffH
	DB	01H
	DB	00H
	DB	00H
	DB	00H
	DB	00H
	DB	04H
	DB	0b8H
	DB	01H
	DB	031H
	DB	015H
	DB	03H
	DB	05H
	DB	032H
	DB	00H
	DB	0bH
	DB	033H
	DB	00H
	DB	076H
	DB	034H
	DB	00H
	DB	04H
	DB	0bcH
	DB	01H
	DB	033H
	DB	00H
	DB	00H
	DB	00H
	DB	04H
	DB	0c0H
	DB	01H
	DB	031H
	DB	00H
	DB	0a0H
	DB	014H
	DB	0c4H
	DB	01H
	DB	037H
	DB	0ffH
	DB	0ffH
	DB	07fH
	DB	00H
	DB	00H
	DB	00H
	DB	048H
	DB	04H
	DB	0c8H
	DB	01H
	DB	033H
	DB	014H
	DB	05H
	DB	01H
	DB	035H
	DB	00H
	DB	02H
	DB	036H
	DB	00H
	DB	04H
	DB	037H
	DB	00H
	DB	08H
	DB	038H
	DB	00H
	DB	010H
	DB	039H
	DB	00H
	DB	04H
	DB	0c8H
	DB	01H
	DB	031H
	DB	011H
	DB	02H
	DB	01H
	DB	03aH
	DB	00H
	DB	02H
	DB	03bH
	DB	00H
	DB	014H
	DB	0ccH
	DB	01H
	DB	037H
	DB	0ffH
	DB	0ffH
	DB	07fH
	DB	00H
	DB	00H
	DB	00H
	DB	048H
	DB	04H
	DB	0d0H
	DB	01H
	DB	033H
	DB	014H
	DB	05H
	DB	01H
	DB	03cH
	DB	00H
	DB	02H
	DB	03dH
	DB	00H
	DB	04H
	DB	03eH
	DB	00H
	DB	08H
	DB	03fH
	DB	00H
	DB	010H
	DB	040H
	DB	00H
	DB	04H
	DB	0d0H
	DB	01H
	DB	031H
	DB	011H
	DB	02H
	DB	01H
	DB	041H
	DB	00H
	DB	02H
	DB	042H
	DB	00H
	DB	014H
	DB	0d4H
	DB	01H
	DB	03fH
	DB	0ffH
	DB	0ffH
	DB	0ffH
	DB	0fH
	DB	00H
	DB	00H
	DB	042H
	DB	08H
	DB	01H
	DB	014H
	DB	0d8H
	DB	01H
	DB	03fH
	DB	0ffH
	DB	0ffH
	DB	0ffH
	DB	0fH
	DB	00H
	DB	00H
	DB	042H
	DB	08H
	DB	01H
	DB	04H
	DB	0dcH
	DB	01H
	DB	037H
	DB	00H
	DB	00H
	DB	022H
	DB	022H
	DB	04H
	DB	0e0H
	DB	01H
	DB	037H
	DB	00H
	DB	00H
	DB	022H
	DB	022H
	DB	04H
	DB	0e4H
	DB	01H
	DB	037H
	DB	00H
	DB	062H
	DB	08H
	DB	082H
	DB	04H
	DB	0e8H
	DB	01H
	DB	037H
	DB	00H
	DB	062H
	DB	08H
	DB	082H
	DB	04H
	DB	0ecH
	DB	01H
	DB	037H
	DB	00H
	DB	0ffH
	DB	022H
	DB	022H
	DB	04H
	DB	0f0H
	DB	01H
	DB	037H
	DB	00H
	DB	0ffH
	DB	022H
	DB	022H
	DB	014H
	DB	0f4H
	DB	01H
	DB	034H
	DB	0fcH
	DB	04H
	DB	02H
	DB	01H
	DB	00H
	DB	01eH
	DB	04H
	DB	014H
	DB	0f4H
	DB	01H
	DB	036H
	DB	0f0H
	DB	03H
	DB	00H
	DB	00H
	DB	00H
	DB	014H
	DB	0f4H
	DB	01H
	DB	033H
	DB	0ffH
	DB	0fH
	DB	04H
	DB	02H
	DB	01H
	DB	00H
	DB	00H
	DB	01eH
	DB	042H
	DB	00H
	DB	014H
	DB	0f8H
	DB	01H
	DB	034H
	DB	0fcH
	DB	04H
	DB	02H
	DB	01H
	DB	00H
	DB	01eH
	DB	04H
	DB	014H
	DB	0f8H
	DB	01H
	DB	036H
	DB	0f0H
	DB	03H
	DB	00H
	DB	00H
	DB	00H
	DB	014H
	DB	0f8H
	DB	01H
	DB	033H
	DB	0ffH
	DB	0fH
	DB	04H
	DB	02H
	DB	01H
	DB	00H
	DB	00H
	DB	01eH
	DB	042H
	DB	00H
	DB	04H
	DB	0fcH
	DB	01H
	DB	037H
	DB	00H
	DB	00H
	DB	022H
	DB	022H
	DB	04H
	DB	00H
	DB	02H
	DB	037H
	DB	00H
	DB	00H
	DB	022H
	DB	022H
	DB	014H
	DB	04H
	DB	02H
	DB	034H
	DB	0fcH
	DB	05H
	DB	05H
	DB	05H
	DB	090H
	DB	09H
	DB	094H
	DB	06H
	DB	094H
	DB	05aH
	DB	098H
	DB	022H
	DB	09cH
	DB	014H
	DB	04H
	DB	02H
	DB	036H
	DB	0f0H
	DB	03H
	DB	05H
	DB	06H
	DB	05H
	DB	050H
	DB	02H
	DB	09H
	DB	060H
	DB	02H
	DB	06H
	DB	040H
	DB	02H
	DB	0aH
	DB	050H
	DB	02H
	DB	012H
	DB	070H
	DB	02H
	DB	062H
	DB	060H
	DB	02H
	DB	014H
	DB	04H
	DB	02H
	DB	033H
	DB	0c0H
	DB	0fH
	DB	05H
	DB	05H
	DB	05H
	DB	00H
	DB	09H
	DB	09H
	DB	040H
	DB	09H
	DB	06H
	DB	040H
	DB	09H
	DB	01aH
	DB	080H
	DB	09H
	DB	062H
	DB	0c0H
	DB	09H
	DB	014H
	DB	04H
	DB	02H
	DB	031H
	DB	03fH
	DB	05H
	DB	06H
	DB	05H
	DB	025H
	DB	09H
	DB	026H
	DB	06H
	DB	024H
	DB	0aH
	DB	025H
	DB	052H
	DB	027H
	DB	022H
	DB	026H
	DB	014H
	DB	08H
	DB	02H
	DB	034H
	DB	0fcH
	DB	05H
	DB	06H
	DB	05H
	DB	094H
	DB	09H
	DB	098H
	DB	06H
	DB	090H
	DB	0aH
	DB	094H
	DB	052H
	DB	09cH
	DB	022H
	DB	098H
	DB	014H
	DB	08H
	DB	02H
	DB	036H
	DB	0f0H
	DB	03H
	DB	05H
	DB	05H
	DB	05H
	DB	040H
	DB	02H
	DB	09H
	DB	050H
	DB	02H
	DB	06H
	DB	050H
	DB	02H
	DB	01aH
	DB	060H
	DB	02H
	DB	062H
	DB	070H
	DB	02H
	DB	014H
	DB	08H
	DB	02H
	DB	033H
	DB	0c0H
	DB	0fH
	DB	05H
	DB	06H
	DB	05H
	DB	040H
	DB	09H
	DB	09H
	DB	080H
	DB	09H
	DB	06H
	DB	00H
	DB	09H
	DB	0aH
	DB	040H
	DB	09H
	DB	012H
	DB	0c0H
	DB	09H
	DB	062H
	DB	080H
	DB	09H
	DB	014H
	DB	08H
	DB	02H
	DB	031H
	DB	03fH
	DB	05H
	DB	05H
	DB	05H
	DB	024H
	DB	09H
	DB	025H
	DB	06H
	DB	025H
	DB	05aH
	DB	026H
	DB	022H
	DB	027H
	DB	014H
	DB	0cH
	DB	02H
	DB	03fH
	DB	0ffH
	DB	0ffH
	DB	0ffH
	DB	0fH
	DB	00H
	DB	08cH
	DB	05H
	DB	063H
	DB	01H
	DB	014H
	DB	010H
	DB	02H
	DB	03fH
	DB	0ffH
	DB	0ffH
	DB	0ffH
	DB	0fH
	DB	00H
	DB	0bH
	DB	0c6H
	DB	082H
	DB	01H
	DB	014H
	DB	014H
	DB	02H
	DB	03fH
	DB	0ffH
	DB	0ffH
	DB	0ffH
	DB	0fH
	DB	00H
	DB	08cH
	DB	05H
	DB	063H
	DB	01H
	DB	014H
	DB	018H
	DB	02H
	DB	03fH
	DB	0ffH
	DB	0ffH
	DB	0ffH
	DB	0fH
	DB	00H
	DB	0bH
	DB	0c6H
	DB	082H
	DB	01H
	DB	04H
	DB	0b0H
	DB	02H
	DB	031H
	DB	010H
	DB	043H
	DB	00H
	DB	014H
	DB	0c0H
	DB	02H
	DB	031H
	DB	030H
	DB	00H
	DB	030H
	DB	014H
	DB	0c0H
	DB	02H
	DB	031H
	DB	01H
	DB	02H
	DB	02H
	DB	04H
	DB	01H
	DB	03H
	DB	01H
	DB	014H
	DB	0f0H
	DB	04H
	DB	031H
	DB	01H
	DB	02H
	DB	02H
	DB	04H
	DB	01H
	DB	03H
	DB	01H
	DB	014H
	DB	0ccH
	DB	02H
	DB	031H
	DB	01H
	DB	02H
	DB	02H
	DB	04H
	DB	01H
	DB	03H
	DB	01H
	DB	014H
	DB	0fcH
	DB	04H
	DB	031H
	DB	01H
	DB	02H
	DB	02H
	DB	04H
	DB	01H
	DB	03H
	DB	01H
	DB	014H
	DB	0ccH
	DB	02H
	DB	034H
	DB	02H
	DB	01H
	DB	02H
	DB	01H
	DB	02H
	DB	02H
	DB	00H
	DB	014H
	DB	0ccH
	DB	02H
	DB	031H
	DB	02H
	DB	00H
	DB	00H
	DB	014H
	DB	0c0H
	DB	02H
	DB	031H
	DB	040H
	DB	00H
	DB	00H
	DB	014H
	DB	0f0H
	DB	04H
	DB	031H
	DB	040H
	DB	00H
	DB	00H
	DB	014H
	DB	070H
	DB	03H
	DB	031H
	DB	01fH
	DB	00H
	DB	01fH
	DB	014H
	DB	074H
	DB	03H
	DB	031H
	DB	01fH
	DB	00H
	DB	01fH
	DB	014H
	DB	07cH
	DB	03H
	DB	031H
	DB	07H
	DB	00H
	DB	03H
	DB	04H
	DB	080H
	DB	03H
	DB	031H
	DB	011H
	DB	02H
	DB	01H
	DB	044H
	DB	00H
	DB	02H
	DB	045H
	DB	00H
	DB	014H
	DB	080H
	DB	03H
	DB	031H
	DB	01H
	DB	00H
	DB	01H
	DB	014H
	DB	084H
	DB	03H
	DB	037H
	DB	038H
	DB	08eH
	DB	0e3H
	DB	00H
	DB	00H
	DB	00H
	DB	00H
	DB	04H
	DB	0b0H
	DB	03H
	DB	034H
	DB	010H
	DB	046H
	DB	00H
	DB	014H
	DB	0b0H
	DB	03H
	DB	034H
	DB	04H
	DB	05H
	DB	03H
	DB	0dH
	DB	00H
	DB	0eH
	DB	00H
	DB	072H
	DB	00H
	DB	014H
	DB	0b0H
	DB	03H
	DB	031H
	DB	040H
	DB	00H
	DB	040H
	DB	014H
	DB	0b4H
	DB	03H
	DB	033H
	DB	0ffH
	DB	07fH
	DB	00H
	DB	0c2H
	DB	020H
	DB	014H
	DB	0b8H
	DB	03H
	DB	033H
	DB	0ffH
	DB	01H
	DB	00H
	DB	082H
	DB	00H
	DB	014H
	DB	0c0H
	DB	03H
	DB	032H
	DB	03fH
	DB	00H
	DB	015H
	DB	04H
	DB	0c0H
	DB	03H
	DB	031H
	DB	011H
	DB	02H
	DB	01H
	DB	047H
	DB	00H
	DB	02H
	DB	048H
	DB	00H
	DB	014H
	DB	0c4H
	DB	03H
	DB	032H
	DB	03fH
	DB	00H
	DB	015H
	DB	04H
	DB	0c4H
	DB	03H
	DB	031H
	DB	011H
	DB	02H
	DB	01H
	DB	049H
	DB	00H
	DB	02H
	DB	04aH
	DB	00H
	DB	04H
	DB	0c8H
	DB	03H
	DB	037H
	DB	010H
	DB	04bH
	DB	00H
	DB	04H
	DB	0c8H
	DB	03H
	DB	031H
	DB	011H
	DB	02H
	DB	01H
	DB	04cH
	DB	00H
	DB	02H
	DB	04dH
	DB	00H
	DB	04H
	DB	0ccH
	DB	03H
	DB	037H
	DB	010H
	DB	04eH
	DB	00H
	DB	04H
	DB	0ccH
	DB	03H
	DB	031H
	DB	011H
	DB	02H
	DB	01H
	DB	04fH
	DB	00H
	DB	02H
	DB	050H
	DB	00H
	DB	014H
	DB	0d0H
	DB	03H
	DB	033H
	DB	0e0H
	DB	01H
	DB	00H
	DB	080H
	DB	00H
	DB	014H
	DB	0d0H
	DB	03H
	DB	031H
	DB	01fH
	DB	04H
	DB	05H
	DB	01H
	DB	02H
	DB	02H
	DB	02H
	DB	04H
	DB	03H
	DB	08H
	DB	03H
	DB	010H
	DB	04H
	DB	04H
	DB	0d0H
	DB	03H
	DB	031H
	DB	018H
	DB	01H
	DB	01H
	DB	051H
	DB	00H
	DB	014H
	DB	0d4H
	DB	03H
	DB	037H
	DB	080H
	DB	0ffH
	DB	07H
	DB	00H
	DB	080H
	DB	05eH
	DB	00H
	DB	014H
	DB	0d4H
	DB	03H
	DB	031H
	DB	060H
	DB	01H
	DB	02H
	DB	01H
	DB	00H
	DB	02H
	DB	040H
	DB	04H
	DB	0d4H
	DB	03H
	DB	031H
	DB	014H
	DB	05H
	DB	01H
	DB	052H
	DB	00H
	DB	02H
	DB	053H
	DB	00H
	DB	04H
	DB	054H
	DB	00H
	DB	08H
	DB	055H
	DB	00H
	DB	010H
	DB	056H
	DB	00H
	DB	0cH
	DB	05H
	DB	00H
	DB	0d4H
	DB	03H
	DB	031H
	DB	014H
	DB	05H
	DB	01H
	DB	057H
	DB	00H
	DB	02H
	DB	058H
	DB	00H
	DB	04H
	DB	059H
	DB	00H
	DB	08H
	DB	05aH
	DB	00H
	DB	010H
	DB	05bH
	DB	00H
	DB	014H
	DB	0d8H
	DB	03H
	DB	037H
	DB	080H
	DB	0ffH
	DB	07H
	DB	00H
	DB	080H
	DB	05eH
	DB	00H
	DB	014H
	DB	0d8H
	DB	03H
	DB	031H
	DB	060H
	DB	01H
	DB	02H
	DB	01H
	DB	00H
	DB	02H
	DB	040H
	DB	04H
	DB	0d8H
	DB	03H
	DB	031H
	DB	014H
	DB	05H
	DB	01H
	DB	05cH
	DB	00H
	DB	02H
	DB	05dH
	DB	00H
	DB	04H
	DB	05eH
	DB	00H
	DB	08H
	DB	05fH
	DB	00H
	DB	010H
	DB	060H
	DB	00H
	DB	0cH
	DB	05H
	DB	00H
	DB	0d8H
	DB	03H
	DB	031H
	DB	014H
	DB	05H
	DB	01H
	DB	061H
	DB	00H
	DB	02H
	DB	062H
	DB	00H
	DB	04H
	DB	063H
	DB	00H
	DB	08H
	DB	064H
	DB	00H
	DB	010H
	DB	065H
	DB	00H
	DB	014H
	DB	0dcH
	DB	03H
	DB	03cH
	DB	0f8H
	DB	01H
	DB	05H
	DB	07H
	DB	05H
	DB	050H
	DB	00H
	DB	09H
	DB	060H
	DB	00H
	DB	06H
	DB	060H
	DB	00H
	DB	0aH
	DB	068H
	DB	00H
	DB	012H
	DB	078H
	DB	00H
	DB	022H
	DB	080H
	DB	00H
	DB	042H
	DB	088H
	DB	00H
	DB	014H
	DB	0dcH
	DB	03H
	DB	036H
	DB	0f8H
	DB	07H
	DB	00H
	DB	0f8H
	DB	07H
	DB	04H
	DB	0dcH
	DB	03H
	DB	031H
	DB	015H
	DB	07H
	DB	05H
	DB	066H
	DB	00H
	DB	09H
	DB	067H
	DB	00H
	DB	06H
	DB	068H
	DB	00H
	DB	0aH
	DB	069H
	DB	00H
	DB	012H
	DB	06aH
	DB	00H
	DB	022H
	DB	06bH
	DB	00H
	DB	042H
	DB	06cH
	DB	00H
	DB	014H
	DB	0e0H
	DB	03H
	DB	03cH
	DB	0f8H
	DB	01H
	DB	05H
	DB	03H
	DB	05H
	DB	028H
	DB	00H
	DB	09H
	DB	030H
	DB	00H
	DB	07eH
	DB	030H
	DB	00H
	DB	014H
	DB	0e0H
	DB	03H
	DB	036H
	DB	0f8H
	DB	07H
	DB	00H
	DB	0e0H
	DB	07H
	DB	04H
	DB	0e0H
	DB	03H
	DB	031H
	DB	015H
	DB	05H
	DB	07H
	DB	06dH
	DB	00H
	DB	0bH
	DB	06eH
	DB	00H
	DB	012H
	DB	06fH
	DB	00H
	DB	022H
	DB	070H
	DB	00H
	DB	042H
	DB	071H
	DB	00H
	DB	04H
	DB	0e4H
	DB	03H
	DB	033H
	DB	00H
	DB	00H
	DB	00H
	DB	014H
	DB	0e8H
	DB	03H
	DB	038H
	DB	020H
	DB	02H
	DB	02H
	DB	03H
	DB	020H
	DB	04H
	DB	00H
	DB	014H
	DB	0e8H
	DB	03H
	DB	038H
	DB	01eH
	DB	01H
	DB	02H
	DB	01H
	DB	04H
	DB	02H
	DB	0eH
	DB	014H
	DB	0e8H
	DB	03H
	DB	03eH
	DB	0f8H
	DB	0ffH
	DB	01H
	DB	00H
	DB	00H
	DB	00H
	DB	00H
	DB	04H
	DB	0e8H
	DB	03H
	DB	031H
	DB	015H
	DB	03H
	DB	05H
	DB	072H
	DB	00H
	DB	0bH
	DB	073H
	DB	00H
	DB	076H
	DB	074H
	DB	00H
	DB	04H
	DB	0ecH
	DB	03H
	DB	033H
	DB	00H
	DB	00H
	DB	00H
	DB	04H
	DB	0f0H
	DB	03H
	DB	031H
	DB	00H
	DB	0a0H
	DB	014H
	DB	0f4H
	DB	03H
	DB	037H
	DB	0ffH
	DB	0ffH
	DB	07fH
	DB	00H
	DB	00H
	DB	00H
	DB	048H
	DB	04H
	DB	0f8H
	DB	03H
	DB	033H
	DB	014H
	DB	05H
	DB	01H
	DB	075H
	DB	00H
	DB	02H
	DB	076H
	DB	00H
	DB	04H
	DB	077H
	DB	00H
	DB	08H
	DB	078H
	DB	00H
	DB	010H
	DB	079H
	DB	00H
	DB	04H
	DB	0f8H
	DB	03H
	DB	031H
	DB	011H
	DB	02H
	DB	01H
	DB	07aH
	DB	00H
	DB	02H
	DB	07bH
	DB	00H
	DB	014H
	DB	0fcH
	DB	03H
	DB	037H
	DB	0ffH
	DB	0ffH
	DB	07fH
	DB	00H
	DB	00H
	DB	00H
	DB	048H
	DB	04H
	DB	00H
	DB	04H
	DB	033H
	DB	014H
	DB	05H
	DB	01H
	DB	07cH
	DB	00H
	DB	02H
	DB	07dH
	DB	00H
	DB	04H
	DB	07eH
	DB	00H
	DB	08H
	DB	07fH
	DB	00H
	DB	010H
	DB	080H
	DB	00H
	DB	04H
	DB	00H
	DB	04H
	DB	031H
	DB	011H
	DB	02H
	DB	01H
	DB	081H
	DB	00H
	DB	02H
	DB	082H
	DB	00H
	DB	014H
	DB	04H
	DB	04H
	DB	03fH
	DB	0ffH
	DB	0ffH
	DB	0ffH
	DB	0fH
	DB	00H
	DB	00H
	DB	042H
	DB	08H
	DB	01H
	DB	014H
	DB	08H
	DB	04H
	DB	03fH
	DB	0ffH
	DB	0ffH
	DB	0ffH
	DB	0fH
	DB	00H
	DB	00H
	DB	042H
	DB	08H
	DB	01H
	DB	04H
	DB	0cH
	DB	04H
	DB	037H
	DB	00H
	DB	00H
	DB	022H
	DB	022H
	DB	04H
	DB	010H
	DB	04H
	DB	037H
	DB	00H
	DB	00H
	DB	022H
	DB	022H
	DB	04H
	DB	014H
	DB	04H
	DB	037H
	DB	00H
	DB	062H
	DB	08H
	DB	082H
	DB	04H
	DB	018H
	DB	04H
	DB	037H
	DB	00H
	DB	062H
	DB	08H
	DB	082H
	DB	04H
	DB	01cH
	DB	04H
	DB	037H
	DB	00H
	DB	0ffH
	DB	022H
	DB	022H
	DB	04H
	DB	020H
	DB	04H
	DB	037H
	DB	00H
	DB	0ffH
	DB	022H
	DB	022H
	DB	014H
	DB	024H
	DB	04H
	DB	034H
	DB	0fcH
	DB	04H
	DB	02H
	DB	01H
	DB	00H
	DB	01eH
	DB	04H
	DB	014H
	DB	024H
	DB	04H
	DB	036H
	DB	0f0H
	DB	03H
	DB	00H
	DB	00H
	DB	00H
	DB	014H
	DB	024H
	DB	04H
	DB	033H
	DB	0ffH
	DB	0fH
	DB	04H
	DB	02H
	DB	01H
	DB	00H
	DB	00H
	DB	01eH
	DB	042H
	DB	00H
	DB	014H
	DB	028H
	DB	04H
	DB	034H
	DB	0fcH
	DB	04H
	DB	02H
	DB	01H
	DB	00H
	DB	01eH
	DB	04H
	DB	014H
	DB	028H
	DB	04H
	DB	036H
	DB	0f0H
	DB	03H
	DB	00H
	DB	00H
	DB	00H
	DB	014H
	DB	028H
	DB	04H
	DB	033H
	DB	0ffH
	DB	0fH
	DB	04H
	DB	02H
	DB	01H
	DB	00H
	DB	00H
	DB	01eH
	DB	042H
	DB	00H
	DB	04H
	DB	02cH
	DB	04H
	DB	037H
	DB	00H
	DB	00H
	DB	022H
	DB	022H
	DB	04H
	DB	030H
	DB	04H
	DB	037H
	DB	00H
	DB	00H
	DB	022H
	DB	022H
	DB	014H
	DB	034H
	DB	04H
	DB	034H
	DB	0fcH
	DB	05H
	DB	05H
	DB	05H
	DB	090H
	DB	09H
	DB	094H
	DB	06H
	DB	094H
	DB	05aH
	DB	098H
	DB	022H
	DB	09cH
	DB	014H
	DB	034H
	DB	04H
	DB	036H
	DB	0f0H
	DB	03H
	DB	05H
	DB	06H
	DB	05H
	DB	050H
	DB	02H
	DB	09H
	DB	060H
	DB	02H
	DB	06H
	DB	040H
	DB	02H
	DB	0aH
	DB	050H
	DB	02H
	DB	012H
	DB	070H
	DB	02H
	DB	062H
	DB	060H
	DB	02H
	DB	014H
	DB	034H
	DB	04H
	DB	033H
	DB	0c0H
	DB	0fH
	DB	05H
	DB	05H
	DB	05H
	DB	00H
	DB	09H
	DB	09H
	DB	040H
	DB	09H
	DB	06H
	DB	040H
	DB	09H
	DB	01aH
	DB	080H
	DB	09H
	DB	062H
	DB	0c0H
	DB	09H
	DB	014H
	DB	034H
	DB	04H
	DB	031H
	DB	03fH
	DB	05H
	DB	06H
	DB	05H
	DB	025H
	DB	09H
	DB	026H
	DB	06H
	DB	024H
	DB	0aH
	DB	025H
	DB	052H
	DB	027H
	DB	022H
	DB	026H
	DB	014H
	DB	038H
	DB	04H
	DB	034H
	DB	0fcH
	DB	05H
	DB	06H
	DB	05H
	DB	094H
	DB	09H
	DB	098H
	DB	06H
	DB	090H
	DB	0aH
	DB	094H
	DB	052H
	DB	09cH
	DB	022H
	DB	098H
	DB	014H
	DB	038H
	DB	04H
	DB	036H
	DB	0f0H
	DB	03H
	DB	05H
	DB	05H
	DB	05H
	DB	040H
	DB	02H
	DB	09H
	DB	050H
	DB	02H
	DB	06H
	DB	050H
	DB	02H
	DB	01aH
	DB	060H
	DB	02H
	DB	062H
	DB	070H
	DB	02H
	DB	014H
	DB	038H
	DB	04H
	DB	033H
	DB	0c0H
	DB	0fH
	DB	05H
	DB	06H
	DB	05H
	DB	040H
	DB	09H
	DB	09H
	DB	080H
	DB	09H
	DB	06H
	DB	00H
	DB	09H
	DB	0aH
	DB	040H
	DB	09H
	DB	012H
	DB	0c0H
	DB	09H
	DB	062H
	DB	080H
	DB	09H
	DB	014H
	DB	038H
	DB	04H
	DB	031H
	DB	03fH
	DB	05H
	DB	05H
	DB	05H
	DB	024H
	DB	09H
	DB	025H
	DB	06H
	DB	025H
	DB	05aH
	DB	026H
	DB	022H
	DB	027H
	DB	014H
	DB	03cH
	DB	04H
	DB	03fH
	DB	0ffH
	DB	0ffH
	DB	0ffH
	DB	0fH
	DB	00H
	DB	08cH
	DB	05H
	DB	063H
	DB	01H
	DB	014H
	DB	040H
	DB	04H
	DB	03fH
	DB	0ffH
	DB	0ffH
	DB	0ffH
	DB	0fH
	DB	00H
	DB	0bH
	DB	0c6H
	DB	082H
	DB	01H
	DB	014H
	DB	044H
	DB	04H
	DB	03fH
	DB	0ffH
	DB	0ffH
	DB	0ffH
	DB	0fH
	DB	00H
	DB	08cH
	DB	05H
	DB	063H
	DB	01H
	DB	014H
	DB	048H
	DB	04H
	DB	03fH
	DB	0ffH
	DB	0ffH
	DB	0ffH
	DB	0fH
	DB	00H
	DB	0bH
	DB	0c6H
	DB	082H
	DB	01H
	DB	04H
	DB	0e0H
	DB	04H
	DB	031H
	DB	010H
	DB	083H
	DB	00H
	DB	014H
	DB	0f0H
	DB	04H
	DB	031H
	DB	030H
	DB	00H
	DB	030H
	DB	014H
	DB	0fcH
	DB	04H
	DB	034H
	DB	02H
	DB	01H
	DB	02H
	DB	01H
	DB	02H
	DB	02H
	DB	00H
	DB	014H
	DB	0fcH
	DB	04H
	DB	031H
	DB	02H
	DB	00H
	DB	00H
	DB	014H
	DB	0a0H
	DB	05H
	DB	031H
	DB	01fH
	DB	00H
	DB	01fH
	DB	014H
	DB	0a4H
	DB	05H
	DB	031H
	DB	01fH
	DB	00H
	DB	01fH
	DB	014H
	DB	0acH
	DB	05H
	DB	031H
	DB	07H
	DB	00H
	DB	03H
	DB	014H
	DB	0b0H
	DB	05H
	DB	031H
	DB	080H
	DB	01H
	DB	02H
	DB	01H
	DB	00H
	DB	02H
	DB	080H
	DB	014H
	DB	0b0H
	DB	05H
	DB	031H
	DB	07fH
	DB	00H
	DB	041H
	DB	014H
	DB	0b4H
	DB	05H
	DB	037H
	DB	038H
	DB	08eH
	DB	0e3H
	DB	00H
	DB	00H
	DB	00H
	DB	00H
	DB	014H
	DB	0e0H
	DB	05H
	DB	03eH
	DB	0ffH
	DB	0ffH
	DB	07fH
	DB	00H
	DB	0aH
	DB	02H
	DB	04H
	DB	04H
	DB	0e0H
	DB	05H
	DB	031H
	DB	04H
	DB	05H
	DB	01H
	DB	050H
	DB	02H
	DB	05dH
	DB	04H
	DB	06aH
	DB	08H
	DB	078H
	DB	010H
	DB	085H
	DB	014H
	DB	0e4H
	DB	05H
	DB	03fH
	DB	0ffH
	DB	0ffH
	DB	0ffH
	DB	07H
	DB	00H
	DB	025H
	DB	020H
	DB	020H
	DB	00H
	DB	014H
	DB	0e8H
	DB	05H
	DB	034H
	DB	0feH
	DB	00H
	DB	02H
	DB	014H
	DB	0e8H
	DB	05H
	DB	032H
	DB	0fH
	DB	01H
	DB	02H
	DB	01H
	DB	00H
	DB	02H
	DB	0cH
	DB	014H
	DB	0ecH
	DB	05H
	DB	032H
	DB	0f0H
	DB	00H
	DB	070H
	DB	014H
	DB	0f0H
	DB	05H
	DB	033H
	DB	0ffH
	DB	0fH
	DB	00H
	DB	0f0H
	DB	00H
	DB	014H
	DB	0cH
	DB	06H
	DB	03cH
	DB	0e0H
	DB	03H
	DB	04H
	DB	05H
	DB	01H
	DB	040H
	DB	01H
	DB	02H
	DB	040H
	DB	01H
	DB	04H
	DB	0c0H
	DB	00H
	DB	08H
	DB	040H
	DB	01H
	DB	010H
	DB	0e0H
	DB	00H
	DB	014H
	DB	0cH
	DB	06H
	DB	031H
	DB	02H
	DB	00H
	DB	02H
	DB	014H
	DB	010H
	DB	06H
	DB	034H
	DB	07cH
	DB	04H
	DB	05H
	DB	01H
	DB	028H
	DB	02H
	DB	028H
	DB	04H
	DB	018H
	DB	08H
	DB	028H
	DB	010H
	DB	01cH
	DB	04H
	DB	014H
	DB	06H
	DB	031H
	DB	00H
	DB	074H
	DB	014H
	DB	024H
	DB	06H
	DB	037H
	DB	0ffH
	DB	0ffH
	DB	07H
	DB	00H
	DB	044H
	DB	0f4H
	DB	03H
	DB	014H
	DB	028H
	DB	06H
	DB	038H
	DB	01H
	DB	00H
	DB	01H
	DB	04H
	DB	028H
	DB	06H
	DB	037H
	DB	01H
	DB	02H
	DB	01H
	DB	05dH
	DB	0d7H
	DB	075H
	DB	02H
	DB	0c2H
	DB	021H
	DB	01cH
	DB	04H
	DB	02cH
	DB	06H
	DB	031H
	DB	00H
	DB	088H
	DB	014H
	DB	030H
	DB	06H
	DB	033H
	DB	0ffH
	DB	01H
	DB	00H
	DB	0bfH
	DB	01H
	DB	014H
	DB	034H
	DB	06H
	DB	033H
	DB	0ffH
	DB	01fH
	DB	00H
	DB	04H
	DB	04H
	DB	00H
	DB	0ffH
	DB	0ffH
	DB	020H
	DB	01H
	DB	00H
	DB	00H
	DB	00H
	DB	014H
	DB	0c4H
	DB	02H
	DB	032H
	DB	0f0H
	DB	02H
	DB	03H
	DB	01H
	DB	070H
	DB	04H
	DB	00H
	DB	02H
	DB	070H
	DB	014H
	DB	0c4H
	DB	02H
	DB	033H
	DB	0ffH
	DB	0fH
	DB	02H
	DB	02H
	DB	03H
	DB	077H
	DB	07H
	DB	04H
	DB	00H
	DB	00H
	DB	04H
	DB	0c8H
	DB	02H
	DB	033H
	DB	02H
	DB	02H
	DB	03H
	DB	077H
	DB	077H
	DB	04H
	DB	00H
	DB	00H
	DB	04H
	DB	0f4H
	DB	04H
	DB	033H
	DB	02H
	DB	02H
	DB	03H
	DB	077H
	DB	077H
	DB	04H
	DB	00H
	DB	00H
	DB	04H
	DB	0f8H
	DB	04H
	DB	033H
	DB	02H
	DB	02H
	DB	03H
	DB	077H
	DB	077H
	DB	04H
	DB	00H
	DB	00H
	DB	014H
	DB	0ccH
	DB	02H
	DB	033H
	DB	0f8H
	DB	07H
	DB	02H
	DB	02H
	DB	03H
	DB	0b8H
	DB	03H
	DB	04H
	DB	00H
	DB	00H
	DB	014H
	DB	0fcH
	DB	04H
	DB	033H
	DB	0f8H
	DB	07H
	DB	02H
	DB	02H
	DB	03H
	DB	0b8H
	DB	03H
	DB	04H
	DB	00H
	DB	00H
	DB	0ffH
	DB	034H
	DB	02H
	DB	00H
	DB	08cH
	DB	01H
	DB	031H
	DB	0f0H
	DB	00H
	DB	0f0H
	DB	034H
	DB	02H
	DB	01H
	DB	08cH
	DB	01H
	DB	031H
	DB	0f0H
	DB	00H
	DB	0f0H
	DB	034H
	DB	02H
	DB	02H
	DB	08cH
	DB	01H
	DB	031H
	DB	0f0H
	DB	00H
	DB	0f0H
	DB	034H
	DB	02H
	DB	03H
	DB	08cH
	DB	01H
	DB	031H
	DB	0f0H
	DB	00H
	DB	0f0H
	DB	034H
	DB	02H
	DB	04H
	DB	08cH
	DB	01H
	DB	031H
	DB	0fH
	DB	00H
	DB	0fH
	DB	034H
	DB	02H
	DB	05H
	DB	08cH
	DB	01H
	DB	031H
	DB	0fH
	DB	00H
	DB	0fH
	DB	034H
	DB	02H
	DB	06H
	DB	08cH
	DB	01H
	DB	031H
	DB	0fH
	DB	00H
	DB	0fH
	DB	034H
	DB	02H
	DB	07H
	DB	08cH
	DB	01H
	DB	031H
	DB	0fH
	DB	00H
	DB	0fH
	DB	034H
	DB	02H
	DB	08H
	DB	08cH
	DB	01H
	DB	031H
	DB	0f0H
	DB	00H
	DB	0f0H
	DB	00H
	DB	0ffH
	DB	0ffH
	DB	020H
	DB	01H
	DB	00H
	DB	00H
	DB	00H
	DB	034H
	DB	02H
	DB	00H
	DB	0bcH
	DB	03H
	DB	031H
	DB	0f0H
	DB	00H
	DB	0f0H
	DB	034H
	DB	02H
	DB	01H
	DB	0bcH
	DB	03H
	DB	031H
	DB	0f0H
	DB	00H
	DB	0f0H
	DB	034H
	DB	02H
	DB	02H
	DB	0bcH
	DB	03H
	DB	031H
	DB	0f0H
	DB	00H
	DB	0f0H
	DB	034H
	DB	02H
	DB	03H
	DB	0bcH
	DB	03H
	DB	031H
	DB	0f0H
	DB	00H
	DB	0f0H
	DB	034H
	DB	02H
	DB	04H
	DB	0bcH
	DB	03H
	DB	031H
	DB	0fH
	DB	00H
	DB	0fH
	DB	034H
	DB	02H
	DB	05H
	DB	0bcH
	DB	03H
	DB	031H
	DB	0fH
	DB	00H
	DB	0fH
	DB	034H
	DB	02H
	DB	06H
	DB	0bcH
	DB	03H
	DB	031H
	DB	0fH
	DB	00H
	DB	0fH
	DB	034H
	DB	02H
	DB	07H
	DB	0bcH
	DB	03H
	DB	031H
	DB	0fH
	DB	00H
	DB	0fH
	DB	034H
	DB	02H
	DB	08H
	DB	0bcH
	DB	03H
	DB	031H
	DB	0f0H
	DB	00H
	DB	0f0H
	DB	08H
	DB	013H
	DB	00H
	DB	0ffH
	DB	0ffH
	DB	020H
	DB	01H
	DB	00H
	DB	00H
	DB	00H
	DB	0ffH
	DB	04H
	DB	08cH
	DB	01H
	DB	031H
	DB	00H
	DB	00H
	DB	034H
	DB	02H
	DB	00H
	DB	0bcH
	DB	03H
	DB	031H
	DB	0f0H
	DB	00H
	DB	0f0H
	DB	034H
	DB	02H
	DB	01H
	DB	0bcH
	DB	03H
	DB	031H
	DB	0f0H
	DB	00H
	DB	0f0H
	DB	034H
	DB	02H
	DB	02H
	DB	0bcH
	DB	03H
	DB	031H
	DB	0f0H
	DB	00H
	DB	0f0H
	DB	034H
	DB	02H
	DB	03H
	DB	0bcH
	DB	03H
	DB	031H
	DB	0f0H
	DB	00H
	DB	0f0H
	DB	034H
	DB	02H
	DB	04H
	DB	0bcH
	DB	03H
	DB	031H
	DB	0fH
	DB	00H
	DB	0fH
	DB	034H
	DB	02H
	DB	05H
	DB	0bcH
	DB	03H
	DB	031H
	DB	0fH
	DB	00H
	DB	0fH
	DB	034H
	DB	02H
	DB	06H
	DB	0bcH
	DB	03H
	DB	031H
	DB	0fH
	DB	00H
	DB	0fH
	DB	034H
	DB	02H
	DB	07H
	DB	0bcH
	DB	03H
	DB	031H
	DB	0fH
	DB	00H
	DB	0fH
	DB	034H
	DB	02H
	DB	08H
	DB	0bcH
	DB	03H
	DB	031H
	DB	0f0H
	DB	00H
	DB	0f0H
	DB	08H
	DB	014H
	DB	00H
	DB	0ffH
	DB	0ffH
	DB	020H
	DB	01H
	DB	00H
	DB	00H
	DB	00H
	DB	0ffH
	DB	034H
	DB	02H
	DB	00H
	DB	08cH
	DB	01H
	DB	031H
	DB	0f0H
	DB	00H
	DB	0f0H
	DB	034H
	DB	02H
	DB	01H
	DB	08cH
	DB	01H
	DB	031H
	DB	0f0H
	DB	00H
	DB	0f0H
	DB	034H
	DB	02H
	DB	02H
	DB	08cH
	DB	01H
	DB	031H
	DB	0f0H
	DB	00H
	DB	0f0H
	DB	034H
	DB	02H
	DB	03H
	DB	08cH
	DB	01H
	DB	031H
	DB	0f0H
	DB	00H
	DB	0f0H
	DB	034H
	DB	02H
	DB	04H
	DB	08cH
	DB	01H
	DB	031H
	DB	0fH
	DB	00H
	DB	0fH
	DB	034H
	DB	02H
	DB	05H
	DB	08cH
	DB	01H
	DB	031H
	DB	0fH
	DB	00H
	DB	0fH
	DB	034H
	DB	02H
	DB	06H
	DB	08cH
	DB	01H
	DB	031H
	DB	0fH
	DB	00H
	DB	0fH
	DB	034H
	DB	02H
	DB	07H
	DB	08cH
	DB	01H
	DB	031H
	DB	0fH
	DB	00H
	DB	0fH
	DB	034H
	DB	02H
	DB	08H
	DB	08cH
	DB	01H
	DB	031H
	DB	0f0H
	DB	00H
	DB	0f0H
	DB	04H
	DB	0bcH
	DB	03H
	DB	031H
	DB	00H
	DB	00H
	DB	08H
	DB	015H
	DB	00H
	DB	0ffH
	DB	0ffH
	DB	020H
	DB	01H
	DB	00H
	DB	00H
	DB	00H
	DB	0ffH
	DB	04H
	DB	08cH
	DB	01H
	DB	031H
	DB	00H
	DB	00H
	DB	04H
	DB	0bcH
	DB	03H
	DB	031H
	DB	00H
	DB	00H
	DB	08H
	DB	016H
	DB	00H
	DB	0ffH
	DB	0ffH
	DB	020H
	DB	01H
	DB	00H
	DB	00H
	DB	00H
	DB	0ffH
	DB	010H
	DB	088H
	DB	051H
	DB	02H
	DB	00H
	DB	02H
	DB	00H
	DB	0ffH
	DB	0ffH
	DB	020H
	DB	014H
	DB	00H
	DB	00H
	DB	00H
	DB	010H
	DB	088H
	DB	051H
	DB	01H
	DB	080H
	DB	01H
	DB	010H
	DB	084H
	DB	051H
	DB	01H
	DB	00H
	DB	01H
	DB	00H
	DB	0ffH
	DB	0ffH
	DB	020H
	DB	0aH
	DB	00H
	DB	00H
	DB	00H
	DB	010H
	DB	088H
	DB	051H
	DB	02H
	DB	00H
	DB	00H
	DB	0ffH
	DB	010H
	DB	024H
	DB	051H
	DB	010H
	DB	080H
	DB	010H
	DB	00H
	DB	0ffH
	DB	0ffH
	DB	020H
	DB	01H
	DB	00H
	DB	00H
	DB	00H
	DB	0ffH
	DB	010H
	DB	014H
	DB	06fH
	DB	0feH
	DB	0ffH
	DB	0ffH
	DB	0ffH
	DB	00H
	DB	020H
	DB	00H
	DB	00H
	DB	00H
	DB	0ffH
	DB	010H
	DB	00H
	DB	042H
	DB	0eH
	DB	04H
	DB	02H
	DB	03H
	DB	0eH
	DB	01cH
	DB	0eH
	DB	010H
	DB	00H
	DB	041H
	DB	07eH
	DB	044H
	DB	01H
	DB	00H
	DB	00H
	DB	00H
	DB	03H
	DB	03H
	DB	010H
	DB	04H
	DB	010H
	DB	018H
	DB	010H
	DB	010H
	DB	00H
	DB	042H
	DB	0eH
	DB	06H
	DB	02H
	DB	0aH
	DB	04H
	DB	012H
	DB	06H
	DB	00H
	DB	00H
	DB	042H
	DB	012H
	DB	01H
	DB	04H
	DB	084H
	DB	00H
	DB	010H
	DB	00H
	DB	041H
	DB	070H
	DB	06H
	DB	03H
	DB	0aH
	DB	020H
	DB	012H
	DB	030H
	DB	0e2H
	DB	070H
	DB	00H
	DB	00H
	DB	041H
	DB	012H
	DB	01H
	DB	04H
	DB	085H
	DB	00H
	DB	010H
	DB	00H
	DB	041H
	DB	0eH
	DB	046H
	DB	01H
	DB	00H
	DB	00H
	DB	00H
	DB	02H
	DB	03aH
	DB	02H
	DB	0c2H
	DB	04H
	DB	00H
	DB	00H
	DB	041H
	DB	052H
	DB	01H
	DB	00H
	DB	00H
	DB	00H
	DB	01H
	DB	04H
	DB	086H
	DB	00H
	DB	010H
	DB	00H
	DB	042H
	DB	01H
	DB	00H
	DB	01H
	DB	010H
	DB	00H
	DB	052H
	DB	0eH
	DB	04H
	DB	02H
	DB	03H
	DB	0eH
	DB	01cH
	DB	0eH
	DB	010H
	DB	00H
	DB	051H
	DB	07eH
	DB	044H
	DB	01H
	DB	00H
	DB	00H
	DB	00H
	DB	03H
	DB	03H
	DB	010H
	DB	04H
	DB	010H
	DB	018H
	DB	010H
	DB	010H
	DB	00H
	DB	052H
	DB	0eH
	DB	06H
	DB	02H
	DB	0aH
	DB	04H
	DB	012H
	DB	06H
	DB	00H
	DB	00H
	DB	052H
	DB	012H
	DB	01H
	DB	04H
	DB	087H
	DB	00H
	DB	010H
	DB	00H
	DB	051H
	DB	070H
	DB	06H
	DB	03H
	DB	0aH
	DB	020H
	DB	012H
	DB	030H
	DB	0e2H
	DB	070H
	DB	00H
	DB	00H
	DB	051H
	DB	012H
	DB	01H
	DB	04H
	DB	088H
	DB	00H
	DB	010H
	DB	00H
	DB	051H
	DB	0eH
	DB	046H
	DB	01H
	DB	00H
	DB	00H
	DB	00H
	DB	02H
	DB	03aH
	DB	02H
	DB	0c2H
	DB	04H
	DB	00H
	DB	00H
	DB	051H
	DB	052H
	DB	01H
	DB	00H
	DB	00H
	DB	00H
	DB	01H
	DB	04H
	DB	089H
	DB	00H
	DB	010H
	DB	00H
	DB	052H
	DB	01H
	DB	00H
	DB	01H
	DB	010H
	DB	00H
	DB	032H
	DB	0eH
	DB	04H
	DB	02H
	DB	03H
	DB	0eH
	DB	01cH
	DB	0eH
	DB	010H
	DB	00H
	DB	031H
	DB	07eH
	DB	04H
	DB	03H
	DB	03H
	DB	010H
	DB	04H
	DB	010H
	DB	018H
	DB	010H
	DB	010H
	DB	00H
	DB	032H
	DB	0eH
	DB	06H
	DB	02H
	DB	0aH
	DB	04H
	DB	012H
	DB	06H
	DB	00H
	DB	00H
	DB	032H
	DB	012H
	DB	01H
	DB	04H
	DB	08aH
	DB	00H
	DB	010H
	DB	00H
	DB	031H
	DB	070H
	DB	06H
	DB	03H
	DB	0aH
	DB	020H
	DB	012H
	DB	030H
	DB	0e2H
	DB	070H
	DB	00H
	DB	00H
	DB	031H
	DB	012H
	DB	01H
	DB	04H
	DB	08bH
	DB	00H
	DB	010H
	DB	00H
	DB	031H
	DB	0eH
	DB	06H
	DB	02H
	DB	03aH
	DB	02H
	DB	0c2H
	DB	04H
	DB	00H
	DB	00H
	DB	031H
	DB	012H
	DB	01H
	DB	04H
	DB	08cH
	DB	00H
	DB	010H
	DB	00H
	DB	032H
	DB	01H
	DB	00H
	DB	01H
	DB	00H
	DB	0ffH
	DB	0ffH
	DB	020H
	DB	01H
	DB	00H
	DB	00H
	DB	00H
	DB	010H
	DB	04H
	DB	047H
	DB	0feH
	DB	0fdH
	DB	03H
	DB	00H
	DB	080H
	DB	041H
	DB	03H
	DB	010H
	DB	08H
	DB	047H
	DB	0feH
	DB	0fdH
	DB	03H
	DB	00H
	DB	0c0H
	DB	0c1H
	DB	03H
	DB	00H
	DB	010H
	DB	047H
	DB	040H
	DB	01H
	DB	00H
	DB	00H
	DB	00H
	DB	0ffH
	DB	0ffH
	DB	0ffH
	DB	010H
	DB	04H
	DB	057H
	DB	0feH
	DB	0fdH
	DB	03H
	DB	00H
	DB	080H
	DB	041H
	DB	03H
	DB	010H
	DB	08H
	DB	057H
	DB	0feH
	DB	0fdH
	DB	03H
	DB	00H
	DB	0c0H
	DB	0c1H
	DB	03H
	DB	00H
	DB	010H
	DB	057H
	DB	040H
	DB	01H
	DB	00H
	DB	00H
	DB	00H
	DB	0ffH
	DB	0ffH
	DB	0ffH
	DB	010H
	DB	04H
	DB	037H
	DB	0feH
	DB	0fdH
	DB	03H
	DB	00H
	DB	080H
	DB	041H
	DB	03H
	DB	010H
	DB	08H
	DB	037H
	DB	0feH
	DB	0fdH
	DB	03H
	DB	00H
	DB	0c0H
	DB	0c1H
	DB	03H
	DB	010H
	DB	0cH
	DB	036H
	DB	0f0H
	DB	0ffH
	DB	00H
	DB	0f0H
	DB	0ffH
	DB	010H
	DB	010H
	DB	033H
	DB	0ffH
	DB	0fH
	DB	00H
	DB	0ffH
	DB	0fH
	DB	00H
	DB	0ffH
	DB	0ffH
	DB	020H
	DB	01H
	DB	00H
	DB	00H
	DB	00H
	DB	0ffH
	DB	01cH
	DB	01aH
	DB	00H
	DB	024H
	DB	01H
	DB	057H
	DB	0e0H
	DB	0f7H
	DB	03H
	DB	02H
	DB	01H
	DB	01H
	DB	0e0H
	DB	0f7H
	DB	03H
	DB	018H
	DB	01aH
	DB	00H
	DB	014H
	DB	031H
	DB	038H
	DB	02H
	DB	01H
	DB	01H
	DB	010H
	DB	01cH
	DB	01aH
	DB	00H
	DB	040H
	DB	01H
	DB	031H
	DB	021H
	DB	02H
	DB	01H
	DB	01H
	DB	021H
	DB	01cH
	DB	01aH
	DB	00H
	DB	03cH
	DB	01H
	DB	031H
	DB	01H
	DB	02H
	DB	01H
	DB	01H
	DB	01H
	DB	01cH
	DB	01aH
	DB	00H
	DB	040H
	DB	01H
	DB	033H
	DB	0c0H
	DB	01H
	DB	02H
	DB	01H
	DB	01H
	DB	00H
	DB	00H
	DB	01cH
	DB	01aH
	DB	00H
	DB	024H
	DB	01H
	DB	051H
	DB	02H
	DB	02H
	DB	01H
	DB	01H
	DB	02H
	DB	018H
	DB	01aH
	DB	00H
	DB	014H
	DB	041H
	DB	038H
	DB	02H
	DB	01H
	DB	01H
	DB	010H
	DB	018H
	DB	01aH
	DB	00H
	DB	014H
	DB	051H
	DB	038H
	DB	02H
	DB	01H
	DB	01H
	DB	010H
	DB	01cH
	DB	01aH
	DB	00H
	DB	01cH
	DB	01H
	DB	043H
	DB	0e1H
	DB	01H
	DB	02H
	DB	01H
	DB	01H
	DB	021H
	DB	00H
	DB	01cH
	DB	01aH
	DB	00H
	DB	018H
	DB	01H
	DB	041H
	DB	01H
	DB	02H
	DB	01H
	DB	01H
	DB	01H
	DB	01cH
	DB	01aH
	DB	00H
	DB	01cH
	DB	01H
	DB	051H
	DB	021H
	DB	02H
	DB	01H
	DB	01H
	DB	021H
	DB	01cH
	DB	01aH
	DB	00H
	DB	018H
	DB	01H
	DB	051H
	DB	01H
	DB	02H
	DB	01H
	DB	01H
	DB	01H
	DB	01cH
	DB	01aH
	DB	00H
	DB	028H
	DB	01H
	DB	051H
	DB	01H
	DB	02H
	DB	01H
	DB	01H
	DB	01H
	DB	01cH
	DB	01aH
	DB	00H
	DB	02cH
	DB	01H
	DB	051H
	DB	01H
	DB	02H
	DB	01H
	DB	01H
	DB	01H
	DB	01cH
	DB	01aH
	DB	00H
	DB	01cH
	DB	01H
	DB	053H
	DB	0c0H
	DB	01H
	DB	02H
	DB	01H
	DB	01H
	DB	00H
	DB	00H
	DB	01cH
	DB	01aH
	DB	00H
	DB	024H
	DB	01H
	DB	055H
	DB	03H
	DB	04H
	DB	02H
	DB	01H
	DB	01H
	DB	03H
	DB	04H
	DB	0ffH
	DB	010H
	DB	02cH
	DB	041H
	DB	01H
	DB	040H
	DB	01H
	DB	00H
	DB	00H
	DB	00H
	DB	01H
	DB	010H
	DB	054H
	DB	051H
	DB	01H
	DB	040H
	DB	01H
	DB	00H
	DB	00H
	DB	00H
	DB	01H
	DB	010H
	DB	024H
	DB	031H
	DB	01H
	DB	040H
	DB	05H
	DB	00H
	DB	00H
	DB	00H
	DB	01H
	DB	010H
	DB	020H
	DB	058H
	DB	080H
	DB	040H
	DB	01H
	DB	00H
	DB	00H
	DB	00H
	DB	080H
	DB	010H
	DB	058H
	DB	051H
	DB	01H
	DB	040H
	DB	01eH
	DB	00H
	DB	00H
	DB	00H
	DB	01H
	DB	0ffH
	DB	014H
	DB	080H
	DB	01H
	DB	041H
	DB	01H
	DB	040H
	DB	01H
	DB	00H
	DB	00H
	DB	00H
	DB	01H
	DB	014H
	DB	080H
	DB	01H
	DB	051H
	DB	01H
	DB	040H
	DB	01H
	DB	00H
	DB	00H
	DB	00H
	DB	01H
	DB	014H
	DB	080H
	DB	01H
	DB	031H
	DB	01H
	DB	00H
	DB	01H
	DB	00H
	DB	0ffH
	DB	0ffH
	DB	020H
	DB	01H
	DB	00H
	DB	00H
	DB	00H
	DB	0ffH
	DB	014H
	DB	0b0H
	DB	03H
	DB	041H
	DB	01H
	DB	040H
	DB	01H
	DB	00H
	DB	00H
	DB	00H
	DB	01H
	DB	014H
	DB	0b0H
	DB	03H
	DB	051H
	DB	01H
	DB	040H
	DB	01H
	DB	00H
	DB	00H
	DB	00H
	DB	01H
	DB	014H
	DB	0b0H
	DB	03H
	DB	031H
	DB	01H
	DB	00H
	DB	01H
	DB	00H
	DB	0ffH
	DB	0ffH
	DB	020H
	DB	01H
	DB	00H
	DB	00H
	DB	00H
	DB	0ffH
	DB	00H
	DB	0ffH
	DB	0ffH
	DB	020H
	DB	0aH
	DB	00H
	DB	00H
	DB	00H
	DB	014H
	DB	080H
	DB	01H
	DB	031H
	DB	02H
	DB	040H
	DB	01H
	DB	00H
	DB	00H
	DB	00H
	DB	02H
	DB	014H
	DB	0ccH
	DB	02H
	DB	031H
	DB	04H
	DB	040H
	DB	01H
	DB	00H
	DB	00H
	DB	00H
	DB	04H
	DB	0ffH
	DB	00H
	DB	0ffH
	DB	0ffH
	DB	020H
	DB	0aH
	DB	00H
	DB	00H
	DB	00H
	DB	014H
	DB	0b0H
	DB	03H
	DB	031H
	DB	02H
	DB	040H
	DB	01H
	DB	00H
	DB	00H
	DB	00H
	DB	02H
	DB	014H
	DB	0fcH
	DB	04H
	DB	031H
	DB	04H
	DB	040H
	DB	01H
	DB	00H
	DB	00H
	DB	00H
	DB	04H
	DB	0ffH
	DB	014H
	DB	0f8H
	DB	06H
	DB	051H
	DB	01H
	DB	00H
	DB	01H
	DB	014H
	DB	0f4H
	DB	05H
	DB	051H
	DB	01H
	DB	00H
	DB	01H
	DB	014H
	DB	0f4H
	DB	05H
	DB	041H
	DB	01H
	DB	00H
	DB	01H
	DB	014H
	DB	0f4H
	DB	05H
	DB	031H
	DB	01H
	DB	00H
	DB	01H
	DB	0ffH
	DB	00H
	DB	0ffH
	DB	0f3H
	DB	0c0H
	DB	044H
	DB	02eH
	DB	014H
	DB	00H
	DB	07H
	DB	051H
	DB	01H
	DB	00H
	DB	01H
	DB	014H
	DB	0fcH
	DB	05H
	DB	041H
	DB	01H
	DB	00H
	DB	01H
	DB	014H
	DB	0fcH
	DB	05H
	DB	051H
	DB	01H
	DB	00H
	DB	01H
	DB	014H
	DB	0fcH
	DB	05H
	DB	031H
	DB	01H
	DB	00H
	DB	01H
	DB	014H
	DB	0a8H
	DB	01H
	DB	058H
	DB	080H
	DB	00H
	DB	080H
	DB	014H
	DB	0d8H
	DB	03H
	DB	058H
	DB	080H
	DB	00H
	DB	080H
	DB	014H
	DB	0acH
	DB	01H
	DB	051H
	DB	03H
	DB	00H
	DB	03H
	DB	014H
	DB	0dcH
	DB	03H
	DB	051H
	DB	03H
	DB	00H
	DB	03H
	DB	00H
	DB	0ffH
	DB	0ffH
	DB	020H
	DB	0cH
	DB	030H
	DB	00H
	DB	00H
	DB	014H
	DB	00H
	DB	07H
	DB	051H
	DB	01H
	DB	080H
	DB	00H
	DB	014H
	DB	0fcH
	DB	05H
	DB	041H
	DB	01H
	DB	080H
	DB	00H
	DB	014H
	DB	0fcH
	DB	05H
	DB	051H
	DB	01H
	DB	080H
	DB	00H
	DB	014H
	DB	0fcH
	DB	05H
	DB	031H
	DB	01H
	DB	080H
	DB	00H
	DB	0ffH
	DB	014H
	DB	080H
	DB	01H
	DB	051H
	DB	02H
	DB	040H
	DB	01H
	DB	00H
	DB	00H
	DB	00H
	DB	02H
	DB	014H
	DB	0b0H
	DB	03H
	DB	051H
	DB	02H
	DB	040H
	DB	01H
	DB	00H
	DB	00H
	DB	00H
	DB	02H
	DB	0ffH
	DB	010H
	DB	01cH
	DB	051H
	DB	01H
	DB	040H
	DB	01H
	DB	00H
	DB	00H
	DB	00H
	DB	01H
	DB	00H
	DB	0ffH
	DB	0ffH
	DB	020H
	DB	0f4H
	DB	01H
	DB	00H
	DB	00H
	DB	0ffH
	DB	00H
	DB	0ffH
	DB	0ffH
	DB	020H
	DB	0f4H
	DB	01H
	DB	00H
	DB	00H
	DB	014H
	DB	080H
	DB	01H
	DB	041H
	DB	02H
	DB	040H
	DB	01H
	DB	00H
	DB	00H
	DB	00H
	DB	02H
	DB	014H
	DB	080H
	DB	01H
	DB	051H
	DB	08H
	DB	040H
	DB	01H
	DB	00H
	DB	00H
	DB	00H
	DB	08H
	DB	014H
	DB	080H
	DB	01H
	DB	031H
	DB	020H
	DB	040H
	DB	01H
	DB	00H
	DB	00H
	DB	00H
	DB	020H
	DB	0ffH
	DB	00H
	DB	0ffH
	DB	0ffH
	DB	020H
	DB	0f4H
	DB	01H
	DB	00H
	DB	00H
	DB	014H
	DB	0b0H
	DB	03H
	DB	041H
	DB	02H
	DB	040H
	DB	01H
	DB	00H
	DB	00H
	DB	00H
	DB	02H
	DB	014H
	DB	0b0H
	DB	03H
	DB	051H
	DB	08H
	DB	040H
	DB	01H
	DB	00H
	DB	00H
	DB	00H
	DB	08H
	DB	014H
	DB	0b0H
	DB	03H
	DB	031H
	DB	020H
	DB	040H
	DB	01H
	DB	00H
	DB	00H
	DB	00H
	DB	020H
	DB	0ffH
	DB	014H
	DB	0acH
	DB	01H
	DB	051H
	DB	02H
	DB	040H
	DB	01H
	DB	00H
	DB	00H
	DB	00H
	DB	00H
	DB	014H
	DB	0acH
	DB	01H
	DB	051H
	DB	01H
	DB	040H
	DB	01H
	DB	00H
	DB	00H
	DB	00H
	DB	00H
	DB	014H
	DB	0dcH
	DB	03H
	DB	051H
	DB	02H
	DB	040H
	DB	01H
	DB	00H
	DB	00H
	DB	00H
	DB	00H
	DB	014H
	DB	0dcH
	DB	03H
	DB	051H
	DB	01H
	DB	040H
	DB	01H
	DB	00H
	DB	00H
	DB	00H
	DB	00H
	DB	00H
	DB	0ffH
	DB	0ffH
	DB	020H
	DB	0aH
	DB	00H
	DB	00H
	DB	00H
	DB	0ffH
	DB	014H
	DB	01cH
	DB	02H
	DB	036H
	DB	0feH
	DB	01fH
	DB	00H
	DB	0feH
	DB	01fH
	DB	014H
	DB	020H
	DB	02H
	DB	03fH
	DB	0ffH
	DB	0ffH
	DB	0ffH
	DB	03fH
	DB	00H
	DB	020H
	DB	0b8H
	DB	081H
	DB	01bH
	DB	014H
	DB	04cH
	DB	04H
	DB	036H
	DB	0feH
	DB	01fH
	DB	00H
	DB	0feH
	DB	01fH
	DB	014H
	DB	050H
	DB	04H
	DB	03fH
	DB	0ffH
	DB	0ffH
	DB	0ffH
	DB	03fH
	DB	00H
	DB	020H
	DB	0b8H
	DB	081H
	DB	01bH
	DB	0ffH
	DB	014H
	DB	01cH
	DB	02H
	DB	036H
	DB	0feH
	DB	01fH
	DB	00H
	DB	00H
	DB	00H
	DB	014H
	DB	04cH
	DB	04H
	DB	036H
	DB	0feH
	DB	01fH
	DB	00H
	DB	00H
	DB	00H
	DB	0ffH
	DB	014H
	DB	080H
	DB	01H
	DB	052H
	DB	08H
	DB	040H
	DB	01H
	DB	00H
	DB	00H
	DB	00H
	DB	00H
	DB	014H
	DB	080H
	DB	01H
	DB	052H
	DB	04H
	DB	040H
	DB	01H
	DB	00H
	DB	00H
	DB	00H
	DB	00H
	DB	014H
	DB	0f4H
	DB	02H
	DB	056H
	DB	0f0H
	DB	01H
	DB	040H
	DB	01H
	DB	00H
	DB	00H
	DB	00H
	DB	010H
	DB	00H
	DB	014H
	DB	0f4H
	DB	02H
	DB	051H
	DB	01fH
	DB	040H
	DB	01H
	DB	00H
	DB	00H
	DB	00H
	DB	07H
	DB	014H
	DB	0f4H
	DB	02H
	DB	051H
	DB	020H
	DB	080H
	DB	00H
	DB	0ffH
	DB	014H
	DB	080H
	DB	01H
	DB	051H
	DB	04H
	DB	040H
	DB	01H
	DB	00H
	DB	00H
	DB	00H
	DB	04H
	DB	0ffH
	DB	014H
	DB	0b0H
	DB	03H
	DB	052H
	DB	08H
	DB	040H
	DB	01H
	DB	00H
	DB	00H
	DB	00H
	DB	00H
	DB	014H
	DB	0b0H
	DB	03H
	DB	052H
	DB	04H
	DB	040H
	DB	01H
	DB	00H
	DB	00H
	DB	00H
	DB	00H
	DB	014H
	DB	024H
	DB	05H
	DB	056H
	DB	0f0H
	DB	01H
	DB	040H
	DB	01H
	DB	00H
	DB	00H
	DB	00H
	DB	010H
	DB	00H
	DB	014H
	DB	024H
	DB	05H
	DB	051H
	DB	01fH
	DB	040H
	DB	01H
	DB	00H
	DB	00H
	DB	00H
	DB	07H
	DB	014H
	DB	0f4H
	DB	02H
	DB	051H
	DB	020H
	DB	080H
	DB	00H
	DB	0ffH
	DB	014H
	DB	0b0H
	DB	03H
	DB	051H
	DB	04H
	DB	040H
	DB	01H
	DB	00H
	DB	00H
	DB	00H
	DB	04H
	DB	0ffH
	DB	014H
	DB	0f8H
	DB	05H
	DB	041H
	DB	01H
	DB	040H
	DB	01H
	DB	00H
	DB	00H
	DB	00H
	DB	01H
	DB	014H
	DB	0f8H
	DB	05H
	DB	051H
	DB	01H
	DB	040H
	DB	01H
	DB	00H
	DB	00H
	DB	00H
	DB	01H
	DB	014H
	DB	0f8H
	DB	05H
	DB	031H
	DB	01H
	DB	00H
	DB	01H
	DB	00H
	DB	0ffH
	DB	0ffH
	DB	020H
	DB	01H
	DB	00H
	DB	00H
	DB	00H
	DB	014H
	DB	0f8H
	DB	05H
	DB	041H
	DB	02H
	DB	040H
	DB	01H
	DB	00H
	DB	00H
	DB	00H
	DB	02H
	DB	014H
	DB	0f8H
	DB	05H
	DB	051H
	DB	02H
	DB	040H
	DB	01H
	DB	00H
	DB	00H
	DB	00H
	DB	02H
	DB	014H
	DB	0f8H
	DB	05H
	DB	031H
	DB	02H
	DB	00H
	DB	02H
	DB	00H
	DB	0ffH
	DB	0ffH
	DB	020H
	DB	01H
	DB	00H
	DB	00H
	DB	00H
	DB	014H
	DB	0fcH
	DB	06H
	DB	051H
	DB	01H
	DB	040H
	DB	01H
	DB	00H
	DB	00H
	DB	00H
	DB	01H
	DB	0ffH
	DB	014H
	DB	0f8H
	DB	05H
	DB	041H
	DB	01H
	DB	040H
	DB	01H
	DB	00H
	DB	00H
	DB	00H
	DB	00H
	DB	014H
	DB	0f8H
	DB	05H
	DB	051H
	DB	01H
	DB	040H
	DB	01H
	DB	00H
	DB	00H
	DB	00H
	DB	00H
	DB	014H
	DB	0f8H
	DB	05H
	DB	031H
	DB	01H
	DB	00H
	DB	00H
	DB	00H
	DB	0ffH
	DB	0ffH
	DB	020H
	DB	01H
	DB	00H
	DB	00H
	DB	00H
	DB	014H
	DB	0f8H
	DB	05H
	DB	041H
	DB	02H
	DB	040H
	DB	01H
	DB	00H
	DB	00H
	DB	00H
	DB	00H
	DB	014H
	DB	0f8H
	DB	05H
	DB	051H
	DB	02H
	DB	040H
	DB	01H
	DB	00H
	DB	00H
	DB	00H
	DB	00H
	DB	014H
	DB	0f8H
	DB	05H
	DB	031H
	DB	02H
	DB	00H
	DB	00H
	DB	00H
	DB	0ffH
	DB	0ffH
	DB	020H
	DB	01H
	DB	00H
	DB	00H
	DB	00H
	DB	014H
	DB	0fcH
	DB	06H
	DB	051H
	DB	01H
	DB	040H
	DB	01H
	DB	00H
	DB	00H
	DB	00H
	DB	00H
	DB	0ffH
	DB	010H
	DB	044H
	DB	053H
	DB	0ffH
	DB	03H
	DB	00H
	DB	010H
	DB	02H
	DB	00H
	DB	0ffH
	DB	0ffH
	DB	020H
	DB	01H
	DB	00H
	DB	00H
	DB	00H
	DB	0ffH
	DB	010H
	DB	044H
	DB	052H
	DB	02H
	DB	00H
	DB	00H
	DB	00H
	DB	0ffH
	DB	0ffH
	DB	020H
	DB	01H
	DB	00H
	DB	00H
	DB	00H
	DB	0ffH
	DB	014H
	DB	0c0H
	DB	02H
	DB	032H
	DB	06H
	DB	00H
	DB	04H
	DB	014H
	DB	0c0H
	DB	02H
	DB	032H
	DB	06H
	DB	02H
	DB	01H
	DB	04H
	DB	00H
	DB	014H
	DB	0c0H
	DB	02H
	DB	033H
	DB	080H
	DB	01H
	DB	00H
	DB	080H
	DB	00H
	DB	014H
	DB	0c0H
	DB	02H
	DB	031H
	DB	040H
	DB	02H
	DB	02H
	DB	03H
	DB	00H
	DB	04H
	DB	040H
	DB	014H
	DB	0c0H
	DB	02H
	DB	031H
	DB	0eH
	DB	00H
	DB	0aH
	DB	014H
	DB	0ccH
	DB	02H
	DB	032H
	DB	060H
	DB	00H
	DB	040H
	DB	014H
	DB	0ccH
	DB	02H
	DB	032H
	DB	060H
	DB	02H
	DB	01H
	DB	04H
	DB	00H
	DB	014H
	DB	0ccH
	DB	02H
	DB	032H
	DB	018H
	DB	00H
	DB	08H
	DB	014H
	DB	0ccH
	DB	02H
	DB	031H
	DB	02H
	DB	02H
	DB	02H
	DB	03H
	DB	00H
	DB	04H
	DB	02H
	DB	014H
	DB	0f0H
	DB	04H
	DB	032H
	DB	06H
	DB	00H
	DB	04H
	DB	014H
	DB	0f0H
	DB	04H
	DB	032H
	DB	06H
	DB	02H
	DB	01H
	DB	04H
	DB	00H
	DB	014H
	DB	0f0H
	DB	04H
	DB	033H
	DB	080H
	DB	01H
	DB	00H
	DB	080H
	DB	00H
	DB	014H
	DB	0f0H
	DB	04H
	DB	031H
	DB	040H
	DB	02H
	DB	02H
	DB	03H
	DB	00H
	DB	04H
	DB	040H
	DB	014H
	DB	0f0H
	DB	04H
	DB	031H
	DB	0eH
	DB	00H
	DB	0aH
	DB	014H
	DB	0fcH
	DB	04H
	DB	032H
	DB	060H
	DB	00H
	DB	040H
	DB	014H
	DB	0fcH
	DB	04H
	DB	032H
	DB	060H
	DB	02H
	DB	01H
	DB	04H
	DB	00H
	DB	014H
	DB	0fcH
	DB	04H
	DB	032H
	DB	018H
	DB	00H
	DB	08H
	DB	014H
	DB	0fcH
	DB	04H
	DB	031H
	DB	02H
	DB	02H
	DB	02H
	DB	03H
	DB	00H
	DB	04H
	DB	02H
	DB	014H
	DB	010H
	DB	03H
	DB	037H
	DB	0f0H
	DB	0c3H
	DB	0fH
	DB	00H
	DB	0f0H
	DB	0c1H
	DB	07H
	DB	014H
	DB	014H
	DB	03H
	DB	037H
	DB	0f0H
	DB	0c3H
	DB	0fH
	DB	00H
	DB	0f0H
	DB	0c1H
	DB	07H
	DB	014H
	DB	018H
	DB	03H
	DB	037H
	DB	0f0H
	DB	0c3H
	DB	0fH
	DB	00H
	DB	0f0H
	DB	0c1H
	DB	07H
	DB	014H
	DB	01cH
	DB	03H
	DB	037H
	DB	0f0H
	DB	0c3H
	DB	0fH
	DB	00H
	DB	0f0H
	DB	0c1H
	DB	07H
	DB	014H
	DB	060H
	DB	03H
	DB	037H
	DB	0f0H
	DB	0c3H
	DB	0fH
	DB	00H
	DB	0f0H
	DB	0c1H
	DB	07H
	DB	014H
	DB	064H
	DB	03H
	DB	037H
	DB	0f0H
	DB	0c3H
	DB	0fH
	DB	00H
	DB	0f0H
	DB	0c1H
	DB	07H
	DB	014H
	DB	068H
	DB	03H
	DB	037H
	DB	0f0H
	DB	0c3H
	DB	0fH
	DB	00H
	DB	0f0H
	DB	0c1H
	DB	07H
	DB	014H
	DB	06cH
	DB	03H
	DB	037H
	DB	0f0H
	DB	0c3H
	DB	0fH
	DB	00H
	DB	0f0H
	DB	0c1H
	DB	07H
	DB	014H
	DB	040H
	DB	05H
	DB	037H
	DB	0f0H
	DB	0c3H
	DB	0fH
	DB	00H
	DB	0f0H
	DB	0c1H
	DB	07H
	DB	014H
	DB	044H
	DB	05H
	DB	037H
	DB	0f0H
	DB	0c3H
	DB	0fH
	DB	00H
	DB	0f0H
	DB	0c1H
	DB	07H
	DB	014H
	DB	048H
	DB	05H
	DB	037H
	DB	0f0H
	DB	0c3H
	DB	0fH
	DB	00H
	DB	0f0H
	DB	0c1H
	DB	07H
	DB	014H
	DB	04cH
	DB	05H
	DB	037H
	DB	0f0H
	DB	0c3H
	DB	0fH
	DB	00H
	DB	0f0H
	DB	0c1H
	DB	07H
	DB	014H
	DB	090H
	DB	05H
	DB	037H
	DB	0f0H
	DB	0c3H
	DB	0fH
	DB	00H
	DB	0f0H
	DB	0c1H
	DB	07H
	DB	014H
	DB	094H
	DB	05H
	DB	037H
	DB	0f0H
	DB	0c3H
	DB	0fH
	DB	00H
	DB	0f0H
	DB	0c1H
	DB	07H
	DB	014H
	DB	098H
	DB	05H
	DB	037H
	DB	0f0H
	DB	0c3H
	DB	0fH
	DB	00H
	DB	0f0H
	DB	0c1H
	DB	07H
	DB	014H
	DB	09cH
	DB	05H
	DB	037H
	DB	0f0H
	DB	0c3H
	DB	0fH
	DB	00H
	DB	0f0H
	DB	0c1H
	DB	07H
	DB	0ffH
	DB	014H
	DB	070H
	DB	06dH
	DB	0e1H
	DB	08H
	DB	00H
	DB	00H
	DB	04H
	DB	094H
	DB	01H
	DB	01fH
	DB	00H
	DB	00H
	DB	00H
	DB	00H
	DB	00H
	DB	00H
	DB	0b0H
	DB	01fH
	DB	00H
	DB	00H
	DB	00H
	DB	00H
	DB	00H
	DB	0ffH
	DB	014H
	DB	080H
	DB	01H
	DB	015H
	DB	0ffH
	DB	02H
	DB	00H
	DB	00H
	DB	00H
	DB	0ffH
	DB	014H
	DB	070H
	DB	01H
	DB	014H
	DB	080H
	DB	00H
	DB	00H
	DB	00H
	DB	0c8H
	DB	013H
	DB	00H
	DB	00H
	DB	00H
	DB	0ffH
	DB	010H
	DB	00H
	DB	01H
	DB	090H
	DB	00H
	DB	090H
	DB	014H
	DB	090H
	DB	01H
	DB	011H
	DB	01H
	DB	00H
	DB	00H
	DB	010H
	DB	04H
	DB	07H
	DB	0ffH
	DB	0ffH
	DB	0fH
	DB	00H
	DB	00H
	DB	00H
	DB	00H
	DB	010H
	DB	08H
	DB	08H
	DB	0fcH
	DB	00H
	DB	0cH
	DB	010H
	DB	0cH
	DB	0cH
	DB	07fH
	DB	08fH
	DB	00H
	DB	00H
	DB	086H
	DB	010H
	DB	020H
	DB	02H
	DB	01H
	DB	00H
	DB	00H
	DB	010H
	DB	0a0H
	DB	011H
	DB	08H
	DB	00H
	DB	00H
	DB	010H
	DB	0acH
	DB	013H
	DB	0ffH
	DB	0fbH
	DB	00H
	DB	010H
	DB	080H
	DB	014H
	DB	078H
	DB	01H
	DB	01fH
	DB	0ffH
	DB	0ffH
	DB	03fH
	DB	01fH
	DB	00H
	DB	00H
	DB	00H
	DB	00H
	DB	00H
	DB	04H
	DB	07cH
	DB	01H
	DB	01fH
	DB	010H
	DB	08dH
	DB	00H
	DB	0ffH
	DB	010H
	DB	00H
	DB	01H
	DB	04H
	DB	01H
	DB	02H
	DB	01H
	DB	00H
	DB	02H
	DB	04H
	DB	044H
	DB	0c0H
	DB	065H
	DB	0fH
	DB	01H
	DB	010H
	DB	08eH
	DB	00H
	DB	044H
	DB	058H
	DB	04cH
	DB	0bH
	DB	01H
	DB	018H
	DB	01H
	DB	010H
	DB	08fH
	DB	00H
	DB	00H
	DB	00H
	DB	01H
	DB	010H
	DB	090H
	DB	00H
	DB	0ffH
	DB	010H
	DB	0cH
	DB	08H
	DB	080H
	DB	00H
	DB	080H
	DB	010H
	DB	020H
	DB	02H
	DB	01H
	DB	00H
	DB	00H
	DB	0ffH
	DB	014H
	DB	084H
	DB	01H
	DB	011H
	DB	01H
	DB	00H
	DB	01H
	DB	0ffH
	DB	04H
	DB	05cH
	DB	01H
	DB	01fH
	DB	010H
	DB	091H
	DB	00H
	DB	04H
	DB	060H
	DB	01H
	DB	01fH
	DB	010H
	DB	092H
	DB	00H
	DB	04H
	DB	064H
	DB	01H
	DB	01fH
	DB	010H
	DB	093H
	DB	00H
	DB	01cH
	DB	02dH
	DB	00H
	DB	064H
	DB	01H
	DB	018H
	DB	080H
	DB	04H
	DB	02H
	DB	018H
	DB	080H
	DB	07H
	DB	00H
	DB	01cH
	DB	02eH
	DB	00H
	DB	064H
	DB	01H
	DB	018H
	DB	040H
	DB	04H
	DB	02H
	DB	018H
	DB	040H
	DB	07H
	DB	00H
	DB	04H
	DB	09cH
	DB	01H
	DB	014H
	DB	015H
	DB	05H
	DB	06H
	DB	094H
	DB	00H
	DB	03aH
	DB	095H
	DB	00H
	DB	05H
	DB	096H
	DB	00H
	DB	09H
	DB	097H
	DB	00H
	DB	042H
	DB	098H
	DB	00H
	DB	01cH
	DB	02dH
	DB	00H
	DB	09cH
	DB	01H
	DB	014H
	DB	0fH
	DB	05H
	DB	02H
	DB	022H
	DB	03H
	DB	042H
	DB	04H
	DB	014H
	DB	09cH
	DB	01H
	DB	01cH
	DB	0f0H
	DB	01H
	DB	01H
	DB	01H
	DB	01H
	DB	00H
	DB	00H
	DB	04H
	DB	09cH
	DB	01H
	DB	01cH
	DB	011H
	DB	01H
	DB	02H
	DB	099H
	DB	00H
	DB	04H
	DB	09cH
	DB	01H
	DB	013H
	DB	010H
	DB	09aH
	DB	00H
	DB	034H
	DB	02H
	DB	00H
	DB	080H
	DB	01H
	DB	024H
	DB	08H
	DB	0b0H
	DB	034H
	DB	00H
	DB	04H
	DB	09cH
	DB	01H
	DB	018H
	DB	010H
	DB	09bH
	DB	00H
	DB	04H
	DB	068H
	DB	01H
	DB	016H
	DB	010H
	DB	09cH
	DB	00H
	DB	014H
	DB	068H
	DB	01H
	DB	012H
	DB	070H
	DB	01H
	DB	01H
	DB	01H
	DB	00H
	DB	04H
	DB	068H
	DB	01H
	DB	012H
	DB	011H
	DB	01H
	DB	02H
	DB	09dH
	DB	00H
	DB	04H
	DB	068H
	DB	01H
	DB	01fH
	DB	010H
	DB	09eH
	DB	00H
	DB	04H
	DB	06cH
	DB	01H
	DB	01fH
	DB	010H
	DB	09fH
	DB	00H
	DB	00H
	DB	09cH
	DB	01cH
	DB	010H
	DB	0a0H
	DB	00H
	DB	00H
	DB	0a0H
	DB	012H
	DB	010H
	DB	0a1H
	DB	00H
	DB	010H
	DB	0a0H
	DB	013H
	DB	0f0H
	DB	01H
	DB	04H
	DB	05H
	DB	01H
	DB	050H
	DB	00H
	DB	02H
	DB	080H
	DB	00H
	DB	04H
	DB	0b0H
	DB	00H
	DB	08H
	DB	0e0H
	DB	00H
	DB	010H
	DB	0e0H
	DB	00H
	DB	00H
	DB	0a0H
	DB	011H
	DB	010H
	DB	0a2H
	DB	00H
	DB	010H
	DB	0cH
	DB	08H
	DB	070H
	DB	00H
	DB	00H
	DB	0ffH
	DB	0ffH
	DB	010H
	DB	018H
	DB	04H
	DB	03eH
	DB	00H
	DB	02H
	DB	018H
	DB	00H
	DB	00H
	DB	018H
	DB	07H
	DB	0ffH
	DB	0ffH
	DB	01H
	DB	00H
	DB	00H
	DB	00H
	DB	00H
	DB	010H
	DB	010H
	DB	03H
	DB	0fH
	DB	0fH
	DB	00H
	DB	06H
	DB	0cH
	DB	04H
	DB	058H
	DB	01H
	DB	017H
	DB	010H
	DB	0a3H
	DB	00H
	DB	010H
	DB	08H
	DB	08H
	DB	03H
	DB	00H
	DB	00H
	DB	010H
	DB	08H
	DB	06H
	DB	0f0H
	DB	0ffH
	DB	05H
	DB	03H
	DB	0eH
	DB	050H
	DB	025H
	DB	072H
	DB	00H
	DB	030H
	DB	0dH
	DB	00H
	DB	020H
	DB	00H
	DB	08H
	DB	03H
	DB	010H
	DB	0a4H
	DB	00H
	DB	010H
	DB	04H
	DB	0cH
	DB	0f0H
	DB	07fH
	DB	05H
	DB	03H
	DB	07eH
	DB	00H
	DB	020H
	DB	05H
	DB	00H
	DB	010H
	DB	09H
	DB	0b0H
	DB	012H
	DB	010H
	DB	04H
	DB	03H
	DB	0ffH
	DB	07H
	DB	00H
	DB	00H
	DB	00H
	DB	010H
	DB	0cH
	DB	04H
	DB	030H
	DB	00H
	DB	00H
	DB	010H
	DB	00H
	DB	01H
	DB	0b0H
	DB	00H
	DB	090H
	DB	010H
	DB	018H
	DB	08H
	DB	0f0H
	DB	04H
	DB	04H
	DB	01H
	DB	050H
	DB	02H
	DB	060H
	DB	04H
	DB	070H
	DB	018H
	DB	080H
	DB	0ffH
	DB	04H
	DB	074H
	DB	01H
	DB	01fH
	DB	01H
	DB	01H
	DB	01H
	DB	07H
	DB	0a5H
	DB	0ffH
	DB	020H
	DB	00H
	DB	0b4H
	DB	01fH
	DB	01H
	DB	01H
	DB	01H
	DB	03fH
	DB	00H
	DB	00H
	DB	00H
	DB	04H
	DB	048H
	DB	01H
	DB	01fH
	DB	01H
	DB	01H
	DB	01H
	DB	06aH
	DB	0b1H
	DB	0e6H
	DB	01eH
	DB	04H
	DB	04cH
	DB	01H
	DB	01fH
	DB	01H
	DB	01H
	DB	01H
	DB	030H
	DB	0caH
	DB	049H
	DB	02bH
	DB	04H
	DB	050H
	DB	01H
	DB	01fH
	DB	01H
	DB	01H
	DB	01H
	DB	038H
	DB	0ebH
	DB	0ffH
	DB	03fH
	DB	04H
	DB	054H
	DB	01H
	DB	01fH
	DB	01H
	DB	01H
	DB	01H
	DB	010H
	DB	032H
	DB	054H
	DB	06H
	DB	04H
	DB	074H
	DB	01H
	DB	01fH
	DB	01H
	DB	01H
	DB	02H
	DB	07H
	DB	081H
	DB	0f0H
	DB	020H
	DB	00H
	DB	0b4H
	DB	01fH
	DB	01H
	DB	01H
	DB	02H
	DB	03fH
	DB	00H
	DB	00H
	DB	00H
	DB	04H
	DB	048H
	DB	01H
	DB	01fH
	DB	01H
	DB	01H
	DB	02H
	DB	08bH
	DB	035H
	DB	0f7H
	DB	020H
	DB	04H
	DB	04cH
	DB	01H
	DB	01fH
	DB	01H
	DB	01H
	DB	02H
	DB	051H
	DB	04eH
	DB	05aH
	DB	031H
	DB	04H
	DB	050H
	DB	01H
	DB	01fH
	DB	01H
	DB	01H
	DB	02H
	DB	059H
	DB	0ffH
	DB	0ffH
	DB	03fH
	DB	04H
	DB	054H
	DB	01H
	DB	01fH
	DB	01H
	DB	01H
	DB	02H
	DB	0a9H
	DB	032H
	DB	054H
	DB	06H
	DB	01cH
	DB	052H
	DB	00H
	DB	074H
	DB	01H
	DB	01fH
	DB	0ffH
	DB	0ffH
	DB	0ffH
	DB	03fH
	DB	01H
	DB	01H
	DB	02H
	DB	0e6H
	DB	080H
	DB	0ffH
	DB	020H
	DB	018H
	DB	052H
	DB	00H
	DB	0b4H
	DB	011H
	DB	07fH
	DB	01H
	DB	01H
	DB	02H
	DB	03fH
	DB	01cH
	DB	052H
	DB	00H
	DB	048H
	DB	01H
	DB	01fH
	DB	0ffH
	DB	0ffH
	DB	0ffH
	DB	03fH
	DB	01H
	DB	01H
	DB	02H
	DB	06aH
	DB	0b1H
	DB	0e6H
	DB	01eH
	DB	01cH
	DB	052H
	DB	00H
	DB	04cH
	DB	01H
	DB	01fH
	DB	0ffH
	DB	0ffH
	DB	0ffH
	DB	03fH
	DB	01H
	DB	01H
	DB	02H
	DB	030H
	DB	0caH
	DB	049H
	DB	02bH
	DB	01cH
	DB	052H
	DB	00H
	DB	050H
	DB	01H
	DB	01fH
	DB	0ffH
	DB	0ffH
	DB	0ffH
	DB	03fH
	DB	01H
	DB	01H
	DB	02H
	DB	059H
	DB	0ffH
	DB	0ffH
	DB	03fH
	DB	01cH
	DB	052H
	DB	00H
	DB	054H
	DB	01H
	DB	01fH
	DB	0ffH
	DB	0ffH
	DB	0ffH
	DB	0fH
	DB	01H
	DB	01H
	DB	02H
	DB	098H
	DB	021H
	DB	043H
	DB	05H
	DB	0ffH
	DB	010H
	DB	00H
	DB	01H
	DB	08H
	DB	00H
	DB	08H
	DB	00H
	DB	0ffH
	DB	0f3H
	DB	0c0H
	DB	0acH
	DB	01bH
	DB	010H
	DB	00H
	DB	01H
	DB	08H
	DB	00H
	DB	00H
	DB	0ffH
	DB	010H
	DB	018H
	DB	04H
	DB	03eH
	DB	00H
	DB	02H
	DB	010H
	DB	018H
	DB	07H
	DB	0ffH
	DB	0ffH
	DB	01H
	DB	04H
	DB	05H
	DB	01H
	DB	030H
	DB	0cH
	DB	00H
	DB	02H
	DB	038H
	DB	0eH
	DB	00H
	DB	04H
	DB	040H
	DB	010H
	DB	00H
	DB	08H
	DB	048H
	DB	012H
	DB	00H
	DB	010H
	DB	050H
	DB	014H
	DB	00H
	DB	010H
	DB	018H
	DB	07H
	DB	0ffH
	DB	0ffH
	DB	01H
	DB	0b0H
	DB	053H
	DB	00H
	DB	00H
	DB	018H
	DB	07H
	DB	010H
	DB	0a5H
	DB	00H
	DB	010H
	DB	010H
	DB	03H
	DB	0fH
	DB	0fH
	DB	00H
	DB	06H
	DB	0cH
	DB	0ffH
	DB	014H
	DB	070H
	DB	01H
	DB	018H
	DB	010H
	DB	00H
	DB	010H
	DB	014H
	DB	088H
	DB	01H
	DB	014H
	DB	020H
	DB	080H
	DB	020H
	DB	0ffH
	DB	010H
	DB	00H
	DB	04H
	DB	08H
	DB	00H
	DB	08H
	DB	0ffH
	DB	010H
	DB	094H
	DB	011H
	DB	01H
	DB	040H
	DB	064H
	DB	00H
	DB	00H
	DB	00H
	DB	01H
	DB	010H
	DB	094H
	DB	011H
	DB	01H
	DB	080H
	DB	00H
	DB	0ffH
	DB	0ffH
	DB	0ffH
	DB	014H
	DB	0c0H
	DB	01H
	DB	021H
	DB	01fH
	DB	00H
	DB	01fH
	DB	0ffH
	DB	01cH
	DB	055H
	DB	00H
	DB	0c0H
	DB	01H
	DB	021H
	DB	01fH
	DB	00H
	DB	00H
	DB	0ffH
	DB	010H
	DB	00H
	DB	04H
	DB	08H
	DB	00H
	DB	00H
	DB	0ffH
	DB	044H
	DB	0c0H
	DB	065H
	DB	0fH
	DB	077H
	DB	050H
	DB	0faH
	DB	00H
	DB	00H
	DB	00H
	DB	0a6H
	DB	00H
	DB	054H
	DB	0c0H
	DB	065H
	DB	0fH
	DB	080H
	DB	080H
	DB	00H
	DB	080H
	DB	044H
	DB	0c0H
	DB	065H
	DB	0fH
	DB	0ffH
	DB	0b0H
	DB	059H
	DB	00H
	DB	044H
	DB	058H
	DB	04cH
	DB	0bH
	DB	077H
	DB	058H
	DB	0faH
	DB	00H
	DB	00H
	DB	00H
	DB	01H
	DB	010H
	DB	0a7H
	DB	00H
	DB	054H
	DB	058H
	DB	04cH
	DB	0bH
	DB	080H
	DB	080H
	DB	08H
	DB	01H
	DB	010H
	DB	080H
	DB	04H
	DB	0d0H
	DB	065H
	DB	0ffH
	DB	010H
	DB	0a8H
	DB	00H
	DB	04H
	DB	0d4H
	DB	065H
	DB	0ffH
	DB	010H
	DB	0a9H
	DB	00H
	DB	04H
	DB	040H
	DB	06eH
	DB	0efH
	DB	010H
	DB	0aaH
	DB	00H
	DB	04H
	DB	044H
	DB	06eH
	DB	0efH
	DB	010H
	DB	0abH
	DB	00H
	DB	040H
	DB	0a8H
	DB	010H
	DB	0fH
	DB	010H
	DB	0acH
	DB	00H
	DB	040H
	DB	0acH
	DB	010H
	DB	0fH
	DB	010H
	DB	0adH
	DB	00H
	DB	040H
	DB	0bcH
	DB	010H
	DB	0fH
	DB	010H
	DB	0aeH
	DB	00H
	DB	040H
	DB	0b4H
	DB	010H
	DB	0fH
	DB	010H
	DB	0afH
	DB	00H
	DB	040H
	DB	0b8H
	DB	010H
	DB	0fH
	DB	010H
	DB	0b0H
	DB	00H
	DB	0ffH
	DB	04H
	DB	058H
	DB	01H
	DB	017H
	DB	010H
	DB	0b1H
	DB	00H
	DB	010H
	DB	08H
	DB	08H
	DB	03H
	DB	00H
	DB	00H
	DB	04H
	DB	074H
	DB	01H
	DB	01fH
	DB	010H
	DB	0b2H
	DB	00H
	DB	00H
	DB	0b4H
	DB	01fH
	DB	010H
	DB	0b3H
	DB	00H
	DB	00H
	DB	0b4H
	DB	011H
	DB	010H
	DB	0b4H
	DB	00H
	DB	04H
	DB	048H
	DB	01H
	DB	01fH
	DB	010H
	DB	0b5H
	DB	00H
	DB	04H
	DB	04cH
	DB	01H
	DB	01fH
	DB	010H
	DB	0b6H
	DB	00H
	DB	04H
	DB	050H
	DB	01H
	DB	01fH
	DB	010H
	DB	0b7H
	DB	00H
	DB	04H
	DB	054H
	DB	01H
	DB	01fH
	DB	010H
	DB	0b8H
	DB	00H
	DB	0ffH
	DB	04H
	DB	078H
	DB	01H
	DB	017H
	DB	010H
	DB	0b9H
	DB	00H
	DB	014H
	DB	07cH
	DB	01H
	DB	01eH
	DB	0f8H
	DB	0ffH
	DB	0fH
	DB	00H
	DB	08H
	DB	080H
	DB	00H
	DB	01cH
	DB	037H
	DB	00H
	DB	07cH
	DB	01H
	DB	016H
	DB	0f8H
	DB	07fH
	DB	05H
	DB	05H
	DB	06H
	DB	0d0H
	DB	07H
	DB	0aH
	DB	020H
	DB	09H
	DB	012H
	DB	070H
	DB	0aH
	DB	022H
	DB	0b8H
	DB	0bH
	DB	042H
	DB	08H
	DB	0dH
	DB	014H
	DB	07cH
	DB	01H
	DB	013H
	DB	0ffH
	DB	07H
	DB	04H
	DB	02H
	DB	01H
	DB	08H
	DB	00H
	DB	02H
	DB	0aH
	DB	00H
	DB	014H
	DB	07cH
	DB	01H
	DB	013H
	DB	0ffH
	DB	07H
	DB	05H
	DB	03H
	DB	012H
	DB	0bH
	DB	00H
	DB	022H
	DB	0cH
	DB	00H
	DB	042H
	DB	0eH
	DB	00H
	DB	014H
	DB	090H
	DB	01H
	DB	011H
	DB	01H
	DB	00H
	DB	00H
	DB	010H
	DB	0cH
	DB	08H
	DB	080H
	DB	00H
	DB	00H
	DB	010H
	DB	020H
	DB	02H
	DB	01H
	DB	00H
	DB	01H
	DB	00H
	DB	0cH
	DB	0cH
	DB	010H
	DB	0baH
	DB	00H
	DB	010H
	DB	08H
	DB	08H
	DB	0fcH
	DB	04H
	DB	03H
	DB	01H
	DB	010H
	DB	02H
	DB	014H
	DB	0cH
	DB	018H
	DB	00H
	DB	0cH
	DB	04H
	DB	010H
	DB	0bbH
	DB	00H
	DB	04H
	DB	078H
	DB	01H
	DB	014H
	DB	010H
	DB	0bcH
	DB	00H
	DB	010H
	DB	04H
	DB	06H
	DB	0f8H
	DB	0fH
	DB	05H
	DB	03H
	DB	05H
	DB	020H
	DB	03H
	DB	09H
	DB	0a8H
	DB	03H
	DB	03eH
	DB	040H
	DB	09H
	DB	00H
	DB	04H
	DB	03H
	DB	010H
	DB	0bdH
	DB	00H
	DB	00H
	DB	0a0H
	DB	013H
	DB	010H
	DB	0beH
	DB	00H
	DB	010H
	DB	0acH
	DB	013H
	DB	0ffH
	DB	0fbH
	DB	00H
	DB	021H
	DB	052H
	DB	0ffH
	DB	0cH
	DB	078H
	DB	00H
	DB	070H
	DB	01H
	DB	014H
	DB	010H
	DB	0bfH
	DB	00H
	DB	08H
	DB	078H
	DB	00H
	DB	0c8H
	DB	013H
	DB	010H
	DB	0c0H
	DB	00H
	DB	0ffH
	DB	00H
	DB	0d4H
	DB	01fH
	DB	011H
	DB	02H
	DB	01H
	DB	0c1H
	DB	00H
	DB	02H
	DB	0c2H
	DB	00H
	DB	00H
	DB	0d8H
	DB	01fH
	DB	011H
	DB	02H
	DB	01H
	DB	0c3H
	DB	00H
	DB	02H
	DB	0c4H
	DB	00H
	DB	00H
	DB	0dcH
	DB	01fH
	DB	011H
	DB	02H
	DB	01H
	DB	0c5H
	DB	00H
	DB	02H
	DB	0c6H
	DB	00H
	DB	00H
	DB	0e0H
	DB	01fH
	DB	051H
	DB	064H
	DB	00H
	DB	00H
	DB	00H
	DB	02H
	DB	01H
	DB	0c7H
	DB	00H
	DB	02H
	DB	0c8H
	DB	00H
	DB	010H
	DB	0e0H
	DB	012H
	DB	08H
	DB	041H
	DB	064H
	DB	00H
	DB	00H
	DB	00H
	DB	02H
	DB	01H
	DB	08H
	DB	02H
	DB	00H
	DB	010H
	DB	0e0H
	DB	012H
	DB	04H
	DB	041H
	DB	064H
	DB	00H
	DB	00H
	DB	00H
	DB	02H
	DB	01H
	DB	04H
	DB	02H
	DB	00H
	DB	010H
	DB	0e0H
	DB	012H
	DB	08H
	DB	041H
	DB	064H
	DB	00H
	DB	00H
	DB	00H
	DB	02H
	DB	01H
	DB	00H
	DB	02H
	DB	00H
	DB	010H
	DB	0e0H
	DB	012H
	DB	04H
	DB	041H
	DB	064H
	DB	00H
	DB	00H
	DB	00H
	DB	02H
	DB	01H
	DB	00H
	DB	02H
	DB	00H
	DB	00H
	DB	0e0H
	DB	013H
	DB	011H
	DB	02H
	DB	01H
	DB	0c9H
	DB	00H
	DB	02H
	DB	0caH
	DB	00H
	DB	0ffH
	DB	010H
	DB	00H
	DB	04H
	DB	08H
	DB	040H
	DB	0f4H
	DB	01H
	DB	00H
	DB	00H
	DB	00H
	DB	010H
	DB	00H
	DB	04H
	DB	08H
	DB	080H
	DB	00H
	DB	010H
	DB	00H
	DB	04H
	DB	08H
	DB	040H
	DB	0f4H
	DB	01H
	DB	00H
	DB	00H
	DB	08H
	DB	010H
	DB	00H
	DB	04H
	DB	08H
	DB	080H
	DB	08H
	DB	0ffH
	DB	04H
	DB	080H
	DB	01H
	DB	011H
	DB	010H
	DB	0cbH
	DB	00H
	DB	0ffH
	DB	00H
	DB	00H
	DB	01H
	DB	010H
	DB	0ccH
	DB	00H
	DB	02cH
	DB	02H
	DB	086H
	DB	00H
	DB	04H
	DB	098H
	DB	01H
	DB	03fH
	DB	00H
	DB	0ffH
	DB	0ffH
	DB	0ffH
	DB	0ffH
	DB	02cH
	DB	02H
	DB	086H
	DB	00H
	DB	05H
	DB	098H
	DB	01H
	DB	03fH
	DB	00H
	DB	0ffH
	DB	0ffH
	DB	0ffH
	DB	0ffH
	DB	02cH
	DB	02H
	DB	086H
	DB	00H
	DB	06H
	DB	098H
	DB	01H
	DB	03fH
	DB	00H
	DB	0ffH
	DB	0ffH
	DB	0ffH
	DB	0ffH
	DB	02cH
	DB	02H
	DB	086H
	DB	00H
	DB	07H
	DB	098H
	DB	01H
	DB	03fH
	DB	00H
	DB	0ffH
	DB	0ffH
	DB	0ffH
	DB	0ffH
	DB	02cH
	DB	02H
	DB	086H
	DB	00H
	DB	04H
	DB	09cH
	DB	01H
	DB	03fH
	DB	00H
	DB	0ffH
	DB	0ffH
	DB	0ffH
	DB	0ffH
	DB	02cH
	DB	02H
	DB	086H
	DB	00H
	DB	05H
	DB	09cH
	DB	01H
	DB	03fH
	DB	00H
	DB	0ffH
	DB	0ffH
	DB	0ffH
	DB	0ffH
	DB	02cH
	DB	02H
	DB	086H
	DB	00H
	DB	06H
	DB	09cH
	DB	01H
	DB	03fH
	DB	00H
	DB	0ffH
	DB	0ffH
	DB	0ffH
	DB	0ffH
	DB	02cH
	DB	02H
	DB	086H
	DB	00H
	DB	07H
	DB	09cH
	DB	01H
	DB	03fH
	DB	00H
	DB	0ffH
	DB	0ffH
	DB	0ffH
	DB	0ffH
	DB	02cH
	DB	02H
	DB	086H
	DB	00H
	DB	04H
	DB	0c8H
	DB	03H
	DB	03fH
	DB	00H
	DB	0ffH
	DB	0ffH
	DB	0ffH
	DB	0ffH
	DB	02cH
	DB	02H
	DB	086H
	DB	00H
	DB	05H
	DB	0c8H
	DB	03H
	DB	03fH
	DB	00H
	DB	0ffH
	DB	0ffH
	DB	0ffH
	DB	0ffH
	DB	02cH
	DB	02H
	DB	086H
	DB	00H
	DB	06H
	DB	0c8H
	DB	03H
	DB	03fH
	DB	00H
	DB	0ffH
	DB	0ffH
	DB	0ffH
	DB	0ffH
	DB	02cH
	DB	02H
	DB	086H
	DB	00H
	DB	07H
	DB	0c8H
	DB	03H
	DB	03fH
	DB	00H
	DB	0ffH
	DB	0ffH
	DB	0ffH
	DB	0ffH
	DB	02cH
	DB	02H
	DB	086H
	DB	00H
	DB	04H
	DB	0ccH
	DB	03H
	DB	03fH
	DB	00H
	DB	0ffH
	DB	0ffH
	DB	0ffH
	DB	0ffH
	DB	02cH
	DB	02H
	DB	086H
	DB	00H
	DB	05H
	DB	0ccH
	DB	03H
	DB	03fH
	DB	00H
	DB	0ffH
	DB	0ffH
	DB	0ffH
	DB	0ffH
	DB	02cH
	DB	02H
	DB	086H
	DB	00H
	DB	06H
	DB	0ccH
	DB	03H
	DB	03fH
	DB	00H
	DB	0ffH
	DB	0ffH
	DB	0ffH
	DB	0ffH
	DB	02cH
	DB	02H
	DB	086H
	DB	00H
	DB	07H
	DB	0ccH
	DB	03H
	DB	03fH
	DB	00H
	DB	0ffH
	DB	0ffH
	DB	0ffH
	DB	0ffH
	DB	0ffH
	DB	00H
	DB	00H
	DB	01H
	DB	010H
	DB	0cdH
	DB	00H
	DB	0ffH
	DB	010H
	DB	0a4H
	DB	011H
	DB	07fH
	DB	0b0H
	DB	089H
	DB	00H
	DB	010H
	DB	0a4H
	DB	011H
	DB	07fH
	DB	040H
	DB	0aH
	DB	00H
	DB	00H
	DB	00H
	DB	00H
	DB	00H
	DB	0a4H
	DB	011H
	DB	050H
	DB	0aH
	DB	00H
	DB	00H
	DB	00H
	DB	0ceH
	DB	00H
	DB	014H
	DB	070H
	DB	01H
	DB	018H
	DB	010H
	DB	00H
	DB	00H
	DB	014H
	DB	088H
	DB	01H
	DB	014H
	DB	020H
	DB	080H
	DB	00H
	DB	0ffH
	DB	04H
	DB	00H
	DB	02H
	DB	0dfH
	DB	010H
	DB	0cfH
	DB	00H
	DB	04H
	DB	04H
	DB	02H
	DB	0dfH
	DB	010H
	DB	0d0H
	DB	00H
	DB	04H
	DB	08H
	DB	02H
	DB	0dfH
	DB	010H
	DB	0d1H
	DB	00H
	DB	04H
	DB	0cH
	DB	02H
	DB	0dfH
	DB	010H
	DB	0d2H
	DB	00H
	DB	04H
	DB	010H
	DB	02H
	DB	0dfH
	DB	010H
	DB	0d3H
	DB	00H
	DB	04H
	DB	014H
	DB	02H
	DB	0dfH
	DB	010H
	DB	0d4H
	DB	00H
	DB	04H
	DB	018H
	DB	02H
	DB	0dfH
	DB	010H
	DB	0d5H
	DB	00H
	DB	04H
	DB	01cH
	DB	02H
	DB	0dfH
	DB	010H
	DB	0d6H
	DB	00H
	DB	04H
	DB	020H
	DB	02H
	DB	0dfH
	DB	010H
	DB	0d7H
	DB	00H
	DB	04H
	DB	024H
	DB	02H
	DB	0dfH
	DB	010H
	DB	0d8H
	DB	00H
	DB	04H
	DB	028H
	DB	02H
	DB	0dfH
	DB	010H
	DB	0d9H
	DB	00H
	DB	04H
	DB	02cH
	DB	02H
	DB	0dfH
	DB	010H
	DB	0daH
	DB	00H
	DB	04H
	DB	030H
	DB	02H
	DB	0dfH
	DB	010H
	DB	0dbH
	DB	00H
	DB	04H
	DB	034H
	DB	02H
	DB	0dfH
	DB	010H
	DB	0dcH
	DB	00H
	DB	04H
	DB	038H
	DB	02H
	DB	0dfH
	DB	010H
	DB	0ddH
	DB	00H
	DB	04H
	DB	03cH
	DB	02H
	DB	0dfH
	DB	010H
	DB	0deH
	DB	00H
	DB	04H
	DB	040H
	DB	02H
	DB	0dfH
	DB	010H
	DB	0dfH
	DB	00H
	DB	04H
	DB	044H
	DB	02H
	DB	0dfH
	DB	010H
	DB	0e0H
	DB	00H
	DB	0ffH
	DB	014H
	DB	04H
	DB	07H
	DB	051H
	DB	03H
	DB	040H
	DB	01H
	DB	00H
	DB	00H
	DB	00H
	DB	03H
	DB	014H
	DB	08H
	DB	06H
	DB	041H
	DB	02H
	DB	00H
	DB	02H
	DB	014H
	DB	08H
	DB	06H
	DB	051H
	DB	02H
	DB	00H
	DB	02H
	DB	014H
	DB	0cH
	DB	06H
	DB	031H
	DB	02H
	DB	00H
	DB	02H
	DB	0ffH
	DB	0cH
	DB	06aH
	DB	00H
	DB	00H
	DB	01H
	DB	013H
	DB	010H
	DB	0e1H
	DB	00H
	DB	0cH
	DB	069H
	DB	00H
	DB	04H
	DB	01H
	DB	013H
	DB	010H
	DB	0e2H
	DB	00H
	DB	0cH
	DB	068H
	DB	00H
	DB	08H
	DB	01H
	DB	013H
	DB	010H
	DB	0e3H
	DB	00H
	DB	0cH
	DB	067H
	DB	00H
	DB	0cH
	DB	01H
	DB	013H
	DB	010H
	DB	0e4H
	DB	00H
	DB	0cH
	DB	06aH
	DB	00H
	DB	010H
	DB	01H
	DB	01fH
	DB	010H
	DB	0e5H
	DB	00H
	DB	0cH
	DB	069H
	DB	00H
	DB	014H
	DB	01H
	DB	01fH
	DB	010H
	DB	0e6H
	DB	00H
	DB	0cH
	DB	068H
	DB	00H
	DB	018H
	DB	01H
	DB	01fH
	DB	010H
	DB	0e7H
	DB	00H
	DB	0cH
	DB	067H
	DB	00H
	DB	01cH
	DB	01H
	DB	01fH
	DB	010H
	DB	0e8H
	DB	00H
	DB	0cH
	DB	067H
	DB	00H
	DB	08cH
	DB	01H
	DB	018H
	DB	010H
	DB	0e9H
	DB	00H
	DB	0cH
	DB	068H
	DB	00H
	DB	08cH
	DB	01H
	DB	014H
	DB	010H
	DB	0eaH
	DB	00H
	DB	0cH
	DB	069H
	DB	00H
	DB	08cH
	DB	01H
	DB	012H
	DB	010H
	DB	0ebH
	DB	00H
	DB	0cH
	DB	06aH
	DB	00H
	DB	08cH
	DB	01H
	DB	011H
	DB	010H
	DB	0ecH
	DB	00H
	DB	0ffH
	DB	08H
	DB	06aH
	DB	00H
	DB	0e4H
	DB	013H
	DB	010H
	DB	0edH
	DB	00H
	DB	08H
	DB	068H
	DB	00H
	DB	0e4H
	DB	01cH
	DB	010H
	DB	0eeH
	DB	00H
	DB	0ffH
	DB	04H
	DB	00H
	DB	068H
	DB	0e1H
	DB	010H
	DB	0efH
	DB	00H
	DB	014H
	DB	04cH
	DB	06dH
	DB	0efH
	DB	03fH
	DB	03fH
	DB	03fH
	DB	03fH
	DB	00H
	DB	02H
	DB	02H
	DB	02H
	DB	02H
	DB	014H
	DB	050H
	DB	06dH
	DB	0efH
	DB	03fH
	DB	03fH
	DB	03fH
	DB	03fH
	DB	00H
	DB	08H
	DB	00H
	DB	00H
	DB	00H
	DB	014H
	DB	054H
	DB	06dH
	DB	0efH
	DB	03fH
	DB	03fH
	DB	03fH
	DB	03fH
	DB	00H
	DB	02H
	DB	02H
	DB	02H
	DB	02H
	DB	014H
	DB	058H
	DB	06dH
	DB	0efH
	DB	03fH
	DB	03fH
	DB	03fH
	DB	03fH
	DB	00H
	DB	08H
	DB	00H
	DB	00H
	DB	00H
	DB	014H
	DB	068H
	DB	06dH
	DB	0ebH
	DB	03fH
	DB	03fH
	DB	080H
	DB	00H
	DB	04H
	DB	04H
	DB	080H
	DB	074H
	DB	02H
	DB	00H
	DB	00H
	DB	050H
	DB	015H
	DB	01H
	DB	03fH
	DB	00H
	DB	012H
	DB	074H
	DB	02H
	DB	00H
	DB	04H
	DB	050H
	DB	015H
	DB	01H
	DB	03fH
	DB	00H
	DB	012H
	DB	074H
	DB	02H
	DB	01H
	DB	00H
	DB	050H
	DB	015H
	DB	01H
	DB	03fH
	DB	00H
	DB	012H
	DB	074H
	DB	02H
	DB	01H
	DB	04H
	DB	050H
	DB	015H
	DB	01H
	DB	03fH
	DB	00H
	DB	012H
	DB	074H
	DB	02H
	DB	02H
	DB	00H
	DB	050H
	DB	015H
	DB	01H
	DB	03fH
	DB	00H
	DB	012H
	DB	074H
	DB	02H
	DB	02H
	DB	04H
	DB	050H
	DB	015H
	DB	01H
	DB	03fH
	DB	00H
	DB	012H
	DB	074H
	DB	02H
	DB	03H
	DB	00H
	DB	050H
	DB	015H
	DB	01H
	DB	03fH
	DB	00H
	DB	012H
	DB	074H
	DB	02H
	DB	03H
	DB	04H
	DB	050H
	DB	015H
	DB	01H
	DB	03fH
	DB	00H
	DB	012H
	DB	014H
	DB	0d4H
	DB	04cH
	DB	0b3H
	DB	0ffH
	DB	03H
	DB	00H
	DB	016H
	DB	02H
	DB	0cH
	DB	0bdH
	DB	00H
	DB	00H
	DB	06eH
	DB	0e1H
	DB	00H
	DB	00H
	DB	01cH
	DB	0bdH
	DB	00H
	DB	0bcH
	DB	065H
	DB	0f1H
	DB	01fH
	DB	00H
	DB	00H
	DB	0cH
	DB	0bdH
	DB	00H
	DB	08cH
	DB	065H
	DB	0f4H
	DB	010H
	DB	0f0H
	DB	00H
	DB	0cH
	DB	0bdH
	DB	00H
	DB	08H
	DB	06eH
	DB	0e3H
	DB	010H
	DB	0f1H
	DB	00H
	DB	04H
	DB	08cH
	DB	065H
	DB	0ffH
	DB	0b0H
	DB	0bfH
	DB	00H
	DB	04H
	DB	08H
	DB	06eH
	DB	0efH
	DB	0b0H
	DB	0c0H
	DB	00H
	DB	014H
	DB	07cH
	DB	06dH
	DB	0e3H
	DB	0ffH
	DB	01H
	DB	00H
	DB	01cH
	DB	00H
	DB	0ffH
	DB	034H
	DB	01H
	DB	058H
	DB	01H
	DB	014H
	DB	020H
	DB	0b0H
	DB	0c1H
	DB	00H
	DB	01H
	DB	01H
	DB	034H
	DB	01H
	DB	058H
	DB	01H
	DB	014H
	DB	010H
	DB	0b0H
	DB	0c1H
	DB	00H
	DB	01H
	DB	02H
	DB	034H
	DB	01H
	DB	058H
	DB	01H
	DB	014H
	DB	01H
	DB	0b0H
	DB	0c1H
	DB	00H
	DB	01H
	DB	03H
	DB	034H
	DB	01H
	DB	058H
	DB	01H
	DB	012H
	DB	0cH
	DB	0b0H
	DB	0c1H
	DB	00H
	DB	01H
	DB	04H
	DB	034H
	DB	01H
	DB	058H
	DB	01H
	DB	012H
	DB	03H
	DB	0b0H
	DB	0c1H
	DB	00H
	DB	01H
	DB	05H
	DB	034H
	DB	01H
	DB	058H
	DB	01H
	DB	011H
	DB	0c0H
	DB	0b0H
	DB	0c1H
	DB	00H
	DB	01H
	DB	06H
	DB	034H
	DB	01H
	DB	058H
	DB	01H
	DB	011H
	DB	08H
	DB	0b0H
	DB	0c1H
	DB	00H
	DB	01H
	DB	07H
	DB	034H
	DB	01H
	DB	058H
	DB	01H
	DB	011H
	DB	04H
	DB	0b0H
	DB	0c1H
	DB	00H
	DB	01H
	DB	08H
	DB	034H
	DB	01H
	DB	058H
	DB	01H
	DB	011H
	DB	02H
	DB	0b0H
	DB	0c1H
	DB	00H
	DB	01H
	DB	09H
	DB	034H
	DB	01H
	DB	058H
	DB	01H
	DB	011H
	DB	01H
	DB	0b0H
	DB	0c1H
	DB	00H
	DB	01H
	DB	0aH
	DB	034H
	DB	01H
	DB	05cH
	DB	01H
	DB	012H
	DB	07cH
	DB	0b0H
	DB	0c1H
	DB	00H
	DB	01H
	DB	0bH
	DB	034H
	DB	01H
	DB	05cH
	DB	01H
	DB	013H
	DB	0e0H
	DB	03H
	DB	0b0H
	DB	0c1H
	DB	00H
	DB	01H
	DB	0cH
	DB	034H
	DB	01H
	DB	05cH
	DB	01H
	DB	01cH
	DB	080H
	DB	0fH
	DB	0b0H
	DB	0c1H
	DB	00H
	DB	01H
	DB	0dH
	DB	034H
	DB	01H
	DB	05cH
	DB	01H
	DB	011H
	DB	01fH
	DB	0b0H
	DB	0c1H
	DB	00H
	DB	01H
	DB	0eH
	DB	034H
	DB	01H
	DB	060H
	DB	01H
	DB	011H
	DB	01fH
	DB	0b0H
	DB	0c1H
	DB	00H
	DB	01H
	DB	0fH
	DB	030H
	DB	01H
	DB	09cH
	DB	014H
	DB	03eH
	DB	0b0H
	DB	0c1H
	DB	00H
	DB	01H
	DB	010H
	DB	034H
	DB	01H
	DB	05cH
	DB	01H
	DB	018H
	DB	070H
	DB	0b0H
	DB	0c1H
	DB	00H
	DB	01H
	DB	011H
	DB	034H
	DB	01H
	DB	068H
	DB	01H
	DB	014H
	DB	0e0H
	DB	0b0H
	DB	0c1H
	DB	00H
	DB	01H
	DB	012H
	DB	034H
	DB	01H
	DB	068H
	DB	01H
	DB	014H
	DB	01cH
	DB	0b0H
	DB	0c1H
	DB	00H
	DB	01H
	DB	013H
	DB	034H
	DB	01H
	DB	068H
	DB	01H
	DB	018H
	DB	0cH
	DB	0b0H
	DB	0c1H
	DB	00H
	DB	01H
	DB	014H
	DB	034H
	DB	01H
	DB	068H
	DB	01H
	DB	018H
	DB	03H
	DB	0b0H
	DB	0c1H
	DB	00H
	DB	01H
	DB	015H
	DB	034H
	DB	01H
	DB	064H
	DB	01H
	DB	011H
	DB	0f0H
	DB	0b0H
	DB	0c1H
	DB	00H
	DB	01H
	DB	016H
	DB	034H
	DB	01H
	DB	064H
	DB	01H
	DB	011H
	DB	0fH
	DB	0b0H
	DB	0c1H
	DB	00H
	DB	01H
	DB	017H
	DB	034H
	DB	01H
	DB	068H
	DB	01H
	DB	011H
	DB	03H
	DB	0b0H
	DB	0c1H
	DB	00H
	DB	01H
	DB	018H
	DB	034H
	DB	01H
	DB	05cH
	DB	01H
	DB	016H
	DB	080H
	DB	0fH
	DB	0b0H
	DB	0c1H
	DB	00H
	DB	01H
	DB	019H
	DB	034H
	DB	01H
	DB	064H
	DB	01H
	DB	014H
	DB	0fH
	DB	0b0H
	DB	0c1H
	DB	00H
	DB	01H
	DB	01aH
	DB	034H
	DB	01H
	DB	09cH
	DB	01H
	DB	012H
	DB	0f0H
	DB	0b0H
	DB	0c1H
	DB	00H
	DB	01H
	DB	01bH
	DB	034H
	DB	01H
	DB	09cH
	DB	01H
	DB	012H
	DB	0fH
	DB	0b0H
	DB	0c1H
	DB	00H
	DB	01H
	DB	01cH
	DB	034H
	DB	01H
	DB	064H
	DB	01H
	DB	012H
	DB	0f0H
	DB	0b0H
	DB	0c1H
	DB	00H
	DB	01H
	DB	01dH
	DB	034H
	DB	01H
	DB	064H
	DB	01H
	DB	012H
	DB	0fH
	DB	0b0H
	DB	0c1H
	DB	00H
	DB	01H
	DB	01eH
	DB	034H
	DB	01H
	DB	09cH
	DB	01H
	DB	011H
	DB	0f0H
	DB	0b0H
	DB	0c1H
	DB	00H
	DB	01H
	DB	01fH
	DB	034H
	DB	01H
	DB	09cH
	DB	01H
	DB	011H
	DB	0fH
	DB	0b0H
	DB	0c1H
	DB	00H
	DB	01H
	DB	020H
	DB	034H
	DB	01H
	DB	064H
	DB	01H
	DB	011H
	DB	0f0H
	DB	0b0H
	DB	0c1H
	DB	00H
	DB	01H
	DB	016H
	DB	034H
	DB	01H
	DB	064H
	DB	01H
	DB	011H
	DB	0fH
	DB	0b0H
	DB	0c1H
	DB	00H
	DB	01H
	DB	017H
	DB	030H
	DB	01H
	DB	0a0H
	DB	013H
	DB	0f0H
	DB	01H
	DB	0b0H
	DB	0c1H
	DB	00H
	DB	01H
	DB	021H
	DB	030H
	DB	01H
	DB	0cH
	DB	08H
	DB	0fH
	DB	0b0H
	DB	0c1H
	DB	00H
	DB	01H
	DB	022H
	DB	030H
	DB	01H
	DB	0a0H
	DB	012H
	DB	0eH
	DB	0b0H
	DB	0c1H
	DB	00H
	DB	01H
	DB	023H
	DB	034H
	DB	01H
	DB	068H
	DB	01H
	DB	012H
	DB	0cH
	DB	0b0H
	DB	0c1H
	DB	00H
	DB	01H
	DB	024H
	DB	034H
	DB	01H
	DB	068H
	DB	01H
	DB	012H
	DB	03H
	DB	0b0H
	DB	0c1H
	DB	00H
	DB	01H
	DB	025H
	DB	034H
	DB	01H
	DB	068H
	DB	01H
	DB	011H
	DB	0c0H
	DB	0b0H
	DB	0c1H
	DB	00H
	DB	01H
	DB	026H
	DB	034H
	DB	01H
	DB	068H
	DB	01H
	DB	011H
	DB	030H
	DB	0b0H
	DB	0c1H
	DB	00H
	DB	01H
	DB	027H
	DB	0ffH
	DB	054H
	DB	00H
	DB	072H
	DB	011H
	DB	01H
	DB	01aH
	DB	00H
	DB	00H
	DB	050H
	DB	044H
	DB	014H
	DB	01H
	DB	03H
	DB	00H
	DB	01H
	DB	054H
	DB	00H
	DB	072H
	DB	011H
	DB	01H
	DB	04H
	DB	00H
	DB	04H
	DB	05cH
	DB	0c2H
	DB	00H
	DB	00H
	DB	072H
	DB	011H
	DB	01H
	DB	01aH
	DB	00H
	DB	02H
	DB	048H
	DB	0c2H
	DB	00H
	DB	044H
	DB	014H
	DB	01H
	DB	010H
	DB	0f2H
	DB	00H
	DB	058H
	DB	0c3H
	DB	00H
	DB	044H
	DB	014H
	DB	01H
	DB	01H
	DB	00H
	DB	00H
	DB	05cH
	DB	0c3H
	DB	00H
	DB	00H
	DB	072H
	DB	011H
	DB	01H
	DB	04H
	DB	00H
	DB	00H
	DB	04cH
	DB	0c2H
	DB	00H
	DB	04H
	DB	072H
	DB	011H
	DB	07H
	DB	010H
	DB	0f3H
	DB	00H
	DB	04cH
	DB	0c2H
	DB	00H
	DB	08H
	DB	072H
	DB	011H
	DB	07H
	DB	010H
	DB	0f4H
	DB	00H
	DB	05cH
	DB	0caH
	DB	00H
	DB	00H
	DB	072H
	DB	011H
	DB	01H
	DB	01aH
	DB	00H
	DB	010H
	DB	04cH
	DB	0caH
	DB	00H
	DB	08H
	DB	072H
	DB	011H
	DB	07H
	DB	010H
	DB	0f5H
	DB	00H
	DB	05cH
	DB	0caH
	DB	00H
	DB	00H
	DB	072H
	DB	011H
	DB	01H
	DB	04H
	DB	00H
	DB	00H
	DB	05cH
	DB	0caH
	DB	00H
	DB	010H
	DB	072H
	DB	011H
	DB	03H
	DB	07H
	DB	0ffH
	DB	00H
	DB	00H
	DB	00H
	DB	05cH
	DB	0caH
	DB	00H
	DB	018H
	DB	072H
	DB	011H
	DB	0fH
	DB	01fH
	DB	01fH
	DB	01fH
	DB	01fH
	DB	00H
	DB	00H
	DB	00H
	DB	00H
	DB	00H
	DB	05cH
	DB	0caH
	DB	00H
	DB	00H
	DB	072H
	DB	011H
	DB	03H
	DB	01H
	DB	0ffH
	DB	00H
	DB	00H
	DB	0ffH
	DB	074H
	DB	01H
	DB	00H
	DB	072H
	DB	011H
	DB	01H
	DB	02H
	DB	0b0H
	DB	0ccH
	DB	00H
	DB	01H
	DB	028H
	DB	074H
	DB	01H
	DB	00H
	DB	072H
	DB	011H
	DB	01H
	DB	018H
	DB	0b0H
	DB	0ccH
	DB	00H
	DB	01H
	DB	029H
	DB	070H
	DB	01H
	DB	044H
	DB	014H
	DB	01H
	DB	02H
	DB	0b0H
	DB	0ccH
	DB	00H
	DB	01H
	DB	02aH
	DB	070H
	DB	01H
	DB	044H
	DB	014H
	DB	01H
	DB	01H
	DB	0b0H
	DB	0ccH
	DB	00H
	DB	01H
	DB	02bH
	DB	064H
	DB	01H
	DB	04H
	DB	072H
	DB	011H
	DB	04H
	DB	0b0H
	DB	0ccH
	DB	00H
	DB	01H
	DB	02cH
	DB	064H
	DB	01H
	DB	04H
	DB	072H
	DB	011H
	DB	02H
	DB	0b0H
	DB	0ccH
	DB	00H
	DB	01H
	DB	02dH
	DB	064H
	DB	01H
	DB	04H
	DB	072H
	DB	011H
	DB	01H
	DB	0b0H
	DB	0ccH
	DB	00H
	DB	01H
	DB	02eH
	DB	064H
	DB	01H
	DB	08H
	DB	072H
	DB	011H
	DB	04H
	DB	0b0H
	DB	0ccH
	DB	00H
	DB	01H
	DB	02fH
	DB	064H
	DB	01H
	DB	08H
	DB	072H
	DB	011H
	DB	02H
	DB	0b0H
	DB	0ccH
	DB	00H
	DB	01H
	DB	030H
	DB	064H
	DB	01H
	DB	08H
	DB	072H
	DB	011H
	DB	01H
	DB	0b0H
	DB	0ccH
	DB	00H
	DB	01H
	DB	031H
	DB	074H
	DB	01H
	DB	00H
	DB	072H
	DB	011H
	DB	01H
	DB	04H
	DB	0b0H
	DB	0ccH
	DB	00H
	DB	01H
	DB	032H
	DB	074H
	DB	01H
	DB	010H
	DB	072H
	DB	011H
	DB	02H
	DB	080H
	DB	0b0H
	DB	0ccH
	DB	00H
	DB	01H
	DB	033H
	DB	074H
	DB	01H
	DB	010H
	DB	072H
	DB	011H
	DB	02H
	DB	07fH
	DB	0b0H
	DB	0ccH
	DB	00H
	DB	01H
	DB	034H
	DB	074H
	DB	01H
	DB	010H
	DB	072H
	DB	011H
	DB	01H
	DB	04H
	DB	0b0H
	DB	0ccH
	DB	00H
	DB	01H
	DB	035H
	DB	074H
	DB	01H
	DB	010H
	DB	072H
	DB	011H
	DB	01H
	DB	02H
	DB	0b0H
	DB	0ccH
	DB	00H
	DB	01H
	DB	036H
	DB	074H
	DB	01H
	DB	010H
	DB	072H
	DB	011H
	DB	01H
	DB	01H
	DB	0b0H
	DB	0ccH
	DB	00H
	DB	01H
	DB	037H
	DB	074H
	DB	01H
	DB	018H
	DB	072H
	DB	011H
	DB	08H
	DB	01fH
	DB	0b0H
	DB	0ccH
	DB	00H
	DB	01H
	DB	038H
	DB	074H
	DB	01H
	DB	018H
	DB	072H
	DB	011H
	DB	04H
	DB	01fH
	DB	0b0H
	DB	0ccH
	DB	00H
	DB	01H
	DB	039H
	DB	074H
	DB	01H
	DB	018H
	DB	072H
	DB	011H
	DB	02H
	DB	01fH
	DB	0b0H
	DB	0ccH
	DB	00H
	DB	01H
	DB	03aH
	DB	074H
	DB	01H
	DB	018H
	DB	072H
	DB	011H
	DB	01H
	DB	01fH
	DB	0b0H
	DB	0ccH
	DB	00H
	DB	01H
	DB	03bH
	DB	074H
	DB	01H
	DB	00H
	DB	072H
	DB	011H
	DB	01H
	DB	01H
	DB	0b0H
	DB	0ccH
	DB	00H
	DB	01H
	DB	03cH
	DB	064H
	DB	01H
	DB	00H
	DB	072H
	DB	011H
	DB	02H
	DB	0b0H
	DB	0ccH
	DB	00H
	DB	01H
	DB	03dH
	DB	0ffH
	DB	044H
	DB	0dcH
	DB	070H
	DB	011H
	DB	01H
	DB	010H
	DB	0f6H
	DB	00H
	DB	04cH
	DB	0ceH
	DB	00H
	DB	08H
	DB	072H
	DB	011H
	DB	07H
	DB	00H
	DB	00H
	DB	05aH
	DB	061H
	DB	074H
	DB	01H
	DB	0dcH
	DB	070H
	DB	011H
	DB	01H
	DB	03H
	DB	0b0H
	DB	0cfH
	DB	00H
	DB	01H
	DB	03eH
	DB	064H
	DB	01H
	DB	08H
	DB	072H
	DB	011H
	DB	04H
	DB	0b0H
	DB	0cfH
	DB	00H
	DB	01H
	DB	03fH
	DB	064H
	DB	01H
	DB	08H
	DB	072H
	DB	011H
	DB	02H
	DB	0b0H
	DB	0cfH
	DB	00H
	DB	01H
	DB	040H
	DB	064H
	DB	01H
	DB	08H
	DB	072H
	DB	011H
	DB	01H
	DB	0b0H
	DB	0cfH
	DB	00H
	DB	01H
	DB	041H
	DB	0ffH
	DB	054H
	DB	00H
	DB	072H
	DB	011H
	DB	01H
	DB	02H
	DB	0b0H
	DB	0d0H
	DB	00H
	DB	054H
	DB	00H
	DB	072H
	DB	011H
	DB	03H
	DB	01H
	DB	0ffH
	DB	00H
	DB	00H
	DB	0ffH
	DB	04cH
	DB	0d0H
	DB	00H
	DB	00H
	DB	072H
	DB	011H
	DB	03H
	DB	010H
	DB	0f7H
	DB	00H
	DB	074H
	DB	01H
	DB	00H
	DB	072H
	DB	011H
	DB	01H
	DB	01H
	DB	0b0H
	DB	0d3H
	DB	00H
	DB	01H
	DB	042H
	DB	064H
	DB	01H
	DB	00H
	DB	072H
	DB	011H
	DB	02H
	DB	0b0H
	DB	0d3H
	DB	00H
	DB	01H
	DB	043H
	DB	0ffH
	DB	014H
	DB	090H
	DB	01H
	DB	011H
	DB	01H
	DB	00H
	DB	01H
	DB	0ffH
	DB	028H
	DB	01H
	DB	0d4H
	DB	00H
	DB	098H
	DB	01fH
	DB	051H
	DB	032H
	DB	00H
	DB	00H
	DB	00H
	DB	01H
	DB	02H
	DB	0f8H
	DB	00H
	DB	01H
	DB	044H
	DB	028H
	DB	01H
	DB	0d4H
	DB	00H
	DB	098H
	DB	01fH
	DB	051H
	DB	032H
	DB	00H
	DB	00H
	DB	00H
	DB	01H
	DB	02H
	DB	0f9H
	DB	00H
	DB	01H
	DB	045H
	DB	028H
	DB	01H
	DB	0d4H
	DB	00H
	DB	098H
	DB	01fH
	DB	051H
	DB	032H
	DB	00H
	DB	00H
	DB	00H
	DB	01H
	DB	02H
	DB	0faH
	DB	00H
	DB	01H
	DB	046H
	DB	028H
	DB	01H
	DB	0d4H
	DB	00H
	DB	098H
	DB	01fH
	DB	051H
	DB	032H
	DB	00H
	DB	00H
	DB	00H
	DB	01H
	DB	02H
	DB	0fbH
	DB	00H
	DB	01H
	DB	047H
	DB	028H
	DB	01H
	DB	0d4H
	DB	00H
	DB	098H
	DB	01fH
	DB	051H
	DB	032H
	DB	00H
	DB	00H
	DB	00H
	DB	01H
	DB	02H
	DB	0fcH
	DB	00H
	DB	01H
	DB	048H
	DB	028H
	DB	01H
	DB	0daH
	DB	00H
	DB	098H
	DB	01fH
	DB	051H
	DB	032H
	DB	00H
	DB	00H
	DB	00H
	DB	01H
	DB	02H
	DB	0fdH
	DB	00H
	DB	01H
	DB	049H
	DB	028H
	DB	01H
	DB	0daH
	DB	00H
	DB	098H
	DB	01fH
	DB	051H
	DB	032H
	DB	00H
	DB	00H
	DB	00H
	DB	01H
	DB	02H
	DB	0feH
	DB	00H
	DB	01H
	DB	049H
	DB	028H
	DB	01H
	DB	0daH
	DB	00H
	DB	098H
	DB	01fH
	DB	051H
	DB	032H
	DB	00H
	DB	00H
	DB	00H
	DB	01H
	DB	02H
	DB	0ffH
	DB	00H
	DB	01H
	DB	049H
	DB	028H
	DB	01H
	DB	0d4H
	DB	00H
	DB	098H
	DB	01fH
	DB	051H
	DB	032H
	DB	00H
	DB	00H
	DB	00H
	DB	01H
	DB	02H
	DB	00H
	DB	01H
	DB	01H
	DB	04aH
	DB	028H
	DB	01H
	DB	0d4H
	DB	00H
	DB	098H
	DB	01fH
	DB	051H
	DB	032H
	DB	00H
	DB	00H
	DB	00H
	DB	01H
	DB	02H
	DB	01H
	DB	01H
	DB	01H
	DB	04bH
	DB	028H
	DB	01H
	DB	0d4H
	DB	00H
	DB	098H
	DB	01fH
	DB	051H
	DB	032H
	DB	00H
	DB	00H
	DB	00H
	DB	01H
	DB	02H
	DB	02H
	DB	01H
	DB	01H
	DB	04cH
	DB	028H
	DB	01H
	DB	0d4H
	DB	00H
	DB	098H
	DB	01fH
	DB	051H
	DB	032H
	DB	00H
	DB	00H
	DB	00H
	DB	01H
	DB	02H
	DB	03H
	DB	01H
	DB	01H
	DB	04dH
	DB	028H
	DB	01H
	DB	0d4H
	DB	00H
	DB	098H
	DB	01fH
	DB	051H
	DB	032H
	DB	00H
	DB	00H
	DB	00H
	DB	01H
	DB	02H
	DB	04H
	DB	01H
	DB	01H
	DB	04eH
	DB	028H
	DB	01H
	DB	0d4H
	DB	00H
	DB	098H
	DB	01fH
	DB	051H
	DB	032H
	DB	00H
	DB	00H
	DB	00H
	DB	01H
	DB	02H
	DB	05H
	DB	01H
	DB	01H
	DB	04fH
	DB	028H
	DB	01H
	DB	0d4H
	DB	00H
	DB	098H
	DB	01fH
	DB	051H
	DB	032H
	DB	00H
	DB	00H
	DB	00H
	DB	01H
	DB	02H
	DB	06H
	DB	01H
	DB	01H
	DB	050H
	DB	028H
	DB	01H
	DB	0d4H
	DB	00H
	DB	098H
	DB	01fH
	DB	051H
	DB	032H
	DB	00H
	DB	00H
	DB	00H
	DB	01H
	DB	02H
	DB	07H
	DB	01H
	DB	01H
	DB	051H
	DB	028H
	DB	01H
	DB	0e4H
	DB	00H
	DB	098H
	DB	01fH
	DB	051H
	DB	032H
	DB	00H
	DB	00H
	DB	00H
	DB	01H
	DB	02H
	DB	08H
	DB	01H
	DB	01H
	DB	052H
	DB	028H
	DB	01H
	DB	0e6H
	DB	00H
	DB	098H
	DB	01fH
	DB	051H
	DB	032H
	DB	00H
	DB	00H
	DB	00H
	DB	01H
	DB	02H
	DB	09H
	DB	01H
	DB	01H
	DB	053H
	DB	028H
	DB	01H
	DB	0e6H
	DB	00H
	DB	098H
	DB	01fH
	DB	051H
	DB	032H
	DB	00H
	DB	00H
	DB	00H
	DB	01H
	DB	02H
	DB	0aH
	DB	01H
	DB	01H
	DB	045H
	DB	028H
	DB	01H
	DB	0e6H
	DB	00H
	DB	098H
	DB	01fH
	DB	051H
	DB	032H
	DB	00H
	DB	00H
	DB	00H
	DB	01H
	DB	02H
	DB	0bH
	DB	01H
	DB	01H
	DB	046H
	DB	028H
	DB	01H
	DB	0e6H
	DB	00H
	DB	098H
	DB	01fH
	DB	051H
	DB	032H
	DB	00H
	DB	00H
	DB	00H
	DB	01H
	DB	02H
	DB	0cH
	DB	01H
	DB	01H
	DB	047H
	DB	028H
	DB	01H
	DB	0e6H
	DB	00H
	DB	098H
	DB	01fH
	DB	051H
	DB	032H
	DB	00H
	DB	00H
	DB	00H
	DB	01H
	DB	02H
	DB	0dH
	DB	01H
	DB	01H
	DB	048H
	DB	028H
	DB	01H
	DB	0ecH
	DB	00H
	DB	098H
	DB	01fH
	DB	051H
	DB	032H
	DB	00H
	DB	00H
	DB	00H
	DB	01H
	DB	02H
	DB	0eH
	DB	01H
	DB	01H
	DB	049H
	DB	028H
	DB	01H
	DB	0ecH
	DB	00H
	DB	098H
	DB	01fH
	DB	051H
	DB	032H
	DB	00H
	DB	00H
	DB	00H
	DB	01H
	DB	02H
	DB	0fH
	DB	01H
	DB	01H
	DB	049H
	DB	028H
	DB	01H
	DB	0ecH
	DB	00H
	DB	098H
	DB	01fH
	DB	051H
	DB	032H
	DB	00H
	DB	00H
	DB	00H
	DB	01H
	DB	02H
	DB	010H
	DB	01H
	DB	01H
	DB	049H
	DB	028H
	DB	01H
	DB	0e6H
	DB	00H
	DB	098H
	DB	01fH
	DB	051H
	DB	032H
	DB	00H
	DB	00H
	DB	00H
	DB	01H
	DB	02H
	DB	011H
	DB	01H
	DB	01H
	DB	04aH
	DB	028H
	DB	01H
	DB	0e6H
	DB	00H
	DB	098H
	DB	01fH
	DB	051H
	DB	032H
	DB	00H
	DB	00H
	DB	00H
	DB	01H
	DB	02H
	DB	012H
	DB	01H
	DB	01H
	DB	04bH
	DB	028H
	DB	01H
	DB	0e6H
	DB	00H
	DB	098H
	DB	01fH
	DB	051H
	DB	032H
	DB	00H
	DB	00H
	DB	00H
	DB	01H
	DB	02H
	DB	013H
	DB	01H
	DB	01H
	DB	04cH
	DB	028H
	DB	01H
	DB	0e6H
	DB	00H
	DB	098H
	DB	01fH
	DB	051H
	DB	032H
	DB	00H
	DB	00H
	DB	00H
	DB	01H
	DB	02H
	DB	014H
	DB	01H
	DB	01H
	DB	04dH
	DB	028H
	DB	01H
	DB	0e6H
	DB	00H
	DB	098H
	DB	01fH
	DB	051H
	DB	032H
	DB	00H
	DB	00H
	DB	00H
	DB	01H
	DB	02H
	DB	015H
	DB	01H
	DB	01H
	DB	04eH
	DB	028H
	DB	01H
	DB	0e6H
	DB	00H
	DB	098H
	DB	01fH
	DB	051H
	DB	032H
	DB	00H
	DB	00H
	DB	00H
	DB	01H
	DB	02H
	DB	016H
	DB	01H
	DB	01H
	DB	04fH
	DB	028H
	DB	01H
	DB	0e6H
	DB	00H
	DB	098H
	DB	01fH
	DB	051H
	DB	032H
	DB	00H
	DB	00H
	DB	00H
	DB	01H
	DB	02H
	DB	017H
	DB	01H
	DB	01H
	DB	050H
	DB	028H
	DB	01H
	DB	0e6H
	DB	00H
	DB	098H
	DB	01fH
	DB	051H
	DB	032H
	DB	00H
	DB	00H
	DB	00H
	DB	01H
	DB	02H
	DB	018H
	DB	01H
	DB	01H
	DB	051H
	DB	028H
	DB	01H
	DB	0f6H
	DB	00H
	DB	098H
	DB	01fH
	DB	051H
	DB	032H
	DB	00H
	DB	00H
	DB	00H
	DB	01H
	DB	02H
	DB	019H
	DB	01H
	DB	01H
	DB	052H
	DB	0ffH
	DB	028H
	DB	01H
	DB	0d4H
	DB	00H
	DB	098H
	DB	01fH
	DB	051H
	DB	032H
	DB	00H
	DB	00H
	DB	00H
	DB	01H
	DB	02H
	DB	01aH
	DB	01H
	DB	01H
	DB	054H
	DB	028H
	DB	01H
	DB	0d4H
	DB	00H
	DB	098H
	DB	01fH
	DB	051H
	DB	032H
	DB	00H
	DB	00H
	DB	00H
	DB	01H
	DB	02H
	DB	01bH
	DB	01H
	DB	01H
	DB	055H
	DB	028H
	DB	01H
	DB	0e6H
	DB	00H
	DB	098H
	DB	01fH
	DB	051H
	DB	032H
	DB	00H
	DB	00H
	DB	00H
	DB	01H
	DB	02H
	DB	01cH
	DB	01H
	DB	01H
	DB	054H
	DB	028H
	DB	01H
	DB	0e6H
	DB	00H
	DB	098H
	DB	01fH
	DB	051H
	DB	032H
	DB	00H
	DB	00H
	DB	00H
	DB	01H
	DB	02H
	DB	01dH
	DB	01H
	DB	01H
	DB	055H
	DB	0ffH
	DB	050H
	DB	01cH
	DB	012H
	DB	02H
	DB	08H
	DB	00H
	DB	00H
	DB	0ffH
	DB	00H
	DB	0ffH
	DB	0ffH
	DB	020H
	DB	090H
	DB	01H
	DB	00H
	DB	00H
	DB	08H
	DB	06aH
	DB	00H
	DB	098H
	DB	01fH
	DB	051H
	DB	032H
	DB	00H
	DB	00H
	DB	00H
	DB	01H
	DB	01H
	DB	01eH
	DB	01H
	DB	08H
	DB	06aH
	DB	00H
	DB	098H
	DB	01fH
	DB	051H
	DB	032H
	DB	00H
	DB	00H
	DB	00H
	DB	01H
	DB	01H
	DB	01fH
	DB	01H
	DB	08H
	DB	06aH
	DB	00H
	DB	098H
	DB	01fH
	DB	051H
	DB	032H
	DB	00H
	DB	00H
	DB	00H
	DB	01H
	DB	01H
	DB	020H
	DB	01H
	DB	08H
	DB	06aH
	DB	00H
	DB	098H
	DB	01fH
	DB	051H
	DB	032H
	DB	00H
	DB	00H
	DB	00H
	DB	01H
	DB	01H
	DB	021H
	DB	01H
	DB	08H
	DB	06aH
	DB	00H
	DB	098H
	DB	01fH
	DB	041H
	DB	0aH
	DB	00H
	DB	00H
	DB	00H
	DB	01H
	DB	01H
	DB	06H
	DB	00H
	DB	01H
	DB	00H
	DB	08H
	DB	069H
	DB	00H
	DB	098H
	DB	01fH
	DB	051H
	DB	032H
	DB	00H
	DB	00H
	DB	00H
	DB	01H
	DB	01H
	DB	022H
	DB	01H
	DB	08H
	DB	069H
	DB	00H
	DB	098H
	DB	01fH
	DB	051H
	DB	032H
	DB	00H
	DB	00H
	DB	00H
	DB	01H
	DB	01H
	DB	023H
	DB	01H
	DB	08H
	DB	069H
	DB	00H
	DB	098H
	DB	01fH
	DB	051H
	DB	032H
	DB	00H
	DB	00H
	DB	00H
	DB	01H
	DB	01H
	DB	024H
	DB	01H
	DB	08H
	DB	069H
	DB	00H
	DB	098H
	DB	01fH
	DB	051H
	DB	032H
	DB	00H
	DB	00H
	DB	00H
	DB	01H
	DB	01H
	DB	025H
	DB	01H
	DB	08H
	DB	069H
	DB	00H
	DB	098H
	DB	01fH
	DB	041H
	DB	0aH
	DB	00H
	DB	00H
	DB	00H
	DB	01H
	DB	01H
	DB	06H
	DB	00H
	DB	041H
	DB	00H
	DB	08H
	DB	068H
	DB	00H
	DB	098H
	DB	01fH
	DB	051H
	DB	032H
	DB	00H
	DB	00H
	DB	00H
	DB	01H
	DB	01H
	DB	026H
	DB	01H
	DB	08H
	DB	068H
	DB	00H
	DB	098H
	DB	01fH
	DB	051H
	DB	032H
	DB	00H
	DB	00H
	DB	00H
	DB	01H
	DB	01H
	DB	027H
	DB	01H
	DB	08H
	DB	068H
	DB	00H
	DB	098H
	DB	01fH
	DB	051H
	DB	032H
	DB	00H
	DB	00H
	DB	00H
	DB	01H
	DB	01H
	DB	028H
	DB	01H
	DB	08H
	DB	068H
	DB	00H
	DB	098H
	DB	01fH
	DB	051H
	DB	032H
	DB	00H
	DB	00H
	DB	00H
	DB	01H
	DB	01H
	DB	029H
	DB	01H
	DB	08H
	DB	068H
	DB	00H
	DB	098H
	DB	01fH
	DB	041H
	DB	0aH
	DB	00H
	DB	00H
	DB	00H
	DB	01H
	DB	01H
	DB	06H
	DB	00H
	DB	081H
	DB	00H
	DB	08H
	DB	067H
	DB	00H
	DB	098H
	DB	01fH
	DB	051H
	DB	032H
	DB	00H
	DB	00H
	DB	00H
	DB	01H
	DB	01H
	DB	02aH
	DB	01H
	DB	08H
	DB	067H
	DB	00H
	DB	098H
	DB	01fH
	DB	051H
	DB	032H
	DB	00H
	DB	00H
	DB	00H
	DB	01H
	DB	01H
	DB	02bH
	DB	01H
	DB	08H
	DB	067H
	DB	00H
	DB	098H
	DB	01fH
	DB	051H
	DB	032H
	DB	00H
	DB	00H
	DB	00H
	DB	01H
	DB	01H
	DB	02cH
	DB	01H
	DB	08H
	DB	067H
	DB	00H
	DB	098H
	DB	01fH
	DB	051H
	DB	032H
	DB	00H
	DB	00H
	DB	00H
	DB	01H
	DB	01H
	DB	02dH
	DB	01H
	DB	08H
	DB	067H
	DB	00H
	DB	098H
	DB	01fH
	DB	041H
	DB	0aH
	DB	00H
	DB	00H
	DB	00H
	DB	01H
	DB	01H
	DB	06H
	DB	00H
	DB	0c1H
	DB	00H
	DB	028H
	DB	01H
	DB	06aH
	DB	00H
	DB	098H
	DB	01fH
	DB	051H
	DB	032H
	DB	00H
	DB	00H
	DB	00H
	DB	01H
	DB	02H
	DB	02eH
	DB	01H
	DB	01H
	DB	056H
	DB	08H
	DB	0d4H
	DB	00H
	DB	098H
	DB	01fH
	DB	051H
	DB	032H
	DB	00H
	DB	00H
	DB	00H
	DB	01H
	DB	02H
	DB	02fH
	DB	01H
	DB	028H
	DB	01H
	DB	06aH
	DB	00H
	DB	098H
	DB	01fH
	DB	051H
	DB	032H
	DB	00H
	DB	00H
	DB	00H
	DB	01H
	DB	02H
	DB	030H
	DB	01H
	DB	01H
	DB	057H
	DB	028H
	DB	01H
	DB	06aH
	DB	00H
	DB	098H
	DB	01fH
	DB	051H
	DB	032H
	DB	00H
	DB	00H
	DB	00H
	DB	01H
	DB	02H
	DB	031H
	DB	01H
	DB	01H
	DB	058H
	DB	028H
	DB	01H
	DB	06aH
	DB	00H
	DB	098H
	DB	01fH
	DB	051H
	DB	032H
	DB	00H
	DB	00H
	DB	00H
	DB	01H
	DB	02H
	DB	032H
	DB	01H
	DB	01H
	DB	059H
	DB	08H
	DB	0d4H
	DB	00H
	DB	098H
	DB	01fH
	DB	051H
	DB	032H
	DB	00H
	DB	00H
	DB	00H
	DB	01H
	DB	02H
	DB	033H
	DB	01H
	DB	08H
	DB	0d4H
	DB	00H
	DB	098H
	DB	01fH
	DB	051H
	DB	032H
	DB	00H
	DB	00H
	DB	00H
	DB	01H
	DB	02H
	DB	034H
	DB	01H
	DB	08H
	DB	0d4H
	DB	00H
	DB	098H
	DB	01fH
	DB	051H
	DB	032H
	DB	00H
	DB	00H
	DB	00H
	DB	01H
	DB	02H
	DB	035H
	DB	01H
	DB	028H
	DB	01H
	DB	06aH
	DB	00H
	DB	098H
	DB	01fH
	DB	051H
	DB	032H
	DB	00H
	DB	00H
	DB	00H
	DB	01H
	DB	02H
	DB	036H
	DB	01H
	DB	01H
	DB	05aH
	DB	08H
	DB	0d4H
	DB	00H
	DB	098H
	DB	01fH
	DB	051H
	DB	032H
	DB	00H
	DB	00H
	DB	00H
	DB	01H
	DB	02H
	DB	037H
	DB	01H
	DB	028H
	DB	01H
	DB	06aH
	DB	00H
	DB	098H
	DB	01fH
	DB	051H
	DB	032H
	DB	00H
	DB	00H
	DB	00H
	DB	01H
	DB	02H
	DB	038H
	DB	01H
	DB	01H
	DB	05bH
	DB	08H
	DB	0d4H
	DB	00H
	DB	098H
	DB	01fH
	DB	051H
	DB	032H
	DB	00H
	DB	00H
	DB	00H
	DB	01H
	DB	02H
	DB	039H
	DB	01H
	DB	028H
	DB	01H
	DB	06aH
	DB	00H
	DB	098H
	DB	01fH
	DB	051H
	DB	032H
	DB	00H
	DB	00H
	DB	00H
	DB	01H
	DB	02H
	DB	03aH
	DB	01H
	DB	01H
	DB	05cH
	DB	08H
	DB	0d4H
	DB	00H
	DB	098H
	DB	01fH
	DB	051H
	DB	032H
	DB	00H
	DB	00H
	DB	00H
	DB	01H
	DB	02H
	DB	03bH
	DB	01H
	DB	028H
	DB	01H
	DB	06aH
	DB	00H
	DB	098H
	DB	01fH
	DB	051H
	DB	032H
	DB	00H
	DB	00H
	DB	00H
	DB	01H
	DB	02H
	DB	03cH
	DB	01H
	DB	01H
	DB	05dH
	DB	08H
	DB	0d4H
	DB	00H
	DB	098H
	DB	01fH
	DB	051H
	DB	032H
	DB	00H
	DB	00H
	DB	00H
	DB	01H
	DB	02H
	DB	03dH
	DB	01H
	DB	028H
	DB	01H
	DB	06aH
	DB	00H
	DB	098H
	DB	01fH
	DB	051H
	DB	032H
	DB	00H
	DB	00H
	DB	00H
	DB	01H
	DB	02H
	DB	03eH
	DB	01H
	DB	01H
	DB	05eH
	DB	08H
	DB	0d4H
	DB	00H
	DB	098H
	DB	01fH
	DB	051H
	DB	032H
	DB	00H
	DB	00H
	DB	00H
	DB	01H
	DB	02H
	DB	03fH
	DB	01H
	DB	028H
	DB	01H
	DB	069H
	DB	00H
	DB	098H
	DB	01fH
	DB	051H
	DB	032H
	DB	00H
	DB	00H
	DB	00H
	DB	01H
	DB	02H
	DB	040H
	DB	01H
	DB	01H
	DB	05fH
	DB	08H
	DB	05H
	DB	01H
	DB	098H
	DB	01fH
	DB	051H
	DB	032H
	DB	00H
	DB	00H
	DB	00H
	DB	01H
	DB	02H
	DB	041H
	DB	01H
	DB	028H
	DB	01H
	DB	069H
	DB	00H
	DB	098H
	DB	01fH
	DB	051H
	DB	032H
	DB	00H
	DB	00H
	DB	00H
	DB	01H
	DB	02H
	DB	042H
	DB	01H
	DB	01H
	DB	057H
	DB	028H
	DB	01H
	DB	069H
	DB	00H
	DB	098H
	DB	01fH
	DB	051H
	DB	032H
	DB	00H
	DB	00H
	DB	00H
	DB	01H
	DB	02H
	DB	043H
	DB	01H
	DB	01H
	DB	058H
	DB	028H
	DB	01H
	DB	069H
	DB	00H
	DB	098H
	DB	01fH
	DB	051H
	DB	032H
	DB	00H
	DB	00H
	DB	00H
	DB	01H
	DB	02H
	DB	044H
	DB	01H
	DB	01H
	DB	059H
	DB	08H
	DB	05H
	DB	01H
	DB	098H
	DB	01fH
	DB	051H
	DB	032H
	DB	00H
	DB	00H
	DB	00H
	DB	01H
	DB	02H
	DB	045H
	DB	01H
	DB	08H
	DB	05H
	DB	01H
	DB	098H
	DB	01fH
	DB	051H
	DB	032H
	DB	00H
	DB	00H
	DB	00H
	DB	01H
	DB	02H
	DB	046H
	DB	01H
	DB	08H
	DB	05H
	DB	01H
	DB	098H
	DB	01fH
	DB	051H
	DB	032H
	DB	00H
	DB	00H
	DB	00H
	DB	01H
	DB	02H
	DB	047H
	DB	01H
	DB	028H
	DB	01H
	DB	069H
	DB	00H
	DB	098H
	DB	01fH
	DB	051H
	DB	032H
	DB	00H
	DB	00H
	DB	00H
	DB	01H
	DB	02H
	DB	048H
	DB	01H
	DB	01H
	DB	05aH
	DB	08H
	DB	05H
	DB	01H
	DB	098H
	DB	01fH
	DB	051H
	DB	032H
	DB	00H
	DB	00H
	DB	00H
	DB	01H
	DB	02H
	DB	049H
	DB	01H
	DB	028H
	DB	01H
	DB	069H
	DB	00H
	DB	098H
	DB	01fH
	DB	051H
	DB	032H
	DB	00H
	DB	00H
	DB	00H
	DB	01H
	DB	02H
	DB	04aH
	DB	01H
	DB	01H
	DB	05bH
	DB	08H
	DB	05H
	DB	01H
	DB	098H
	DB	01fH
	DB	051H
	DB	032H
	DB	00H
	DB	00H
	DB	00H
	DB	01H
	DB	02H
	DB	04bH
	DB	01H
	DB	028H
	DB	01H
	DB	069H
	DB	00H
	DB	098H
	DB	01fH
	DB	051H
	DB	032H
	DB	00H
	DB	00H
	DB	00H
	DB	01H
	DB	02H
	DB	04cH
	DB	01H
	DB	01H
	DB	05cH
	DB	08H
	DB	05H
	DB	01H
	DB	098H
	DB	01fH
	DB	051H
	DB	032H
	DB	00H
	DB	00H
	DB	00H
	DB	01H
	DB	02H
	DB	04dH
	DB	01H
	DB	028H
	DB	01H
	DB	069H
	DB	00H
	DB	098H
	DB	01fH
	DB	051H
	DB	032H
	DB	00H
	DB	00H
	DB	00H
	DB	01H
	DB	02H
	DB	04eH
	DB	01H
	DB	01H
	DB	05dH
	DB	08H
	DB	05H
	DB	01H
	DB	098H
	DB	01fH
	DB	051H
	DB	032H
	DB	00H
	DB	00H
	DB	00H
	DB	01H
	DB	02H
	DB	04fH
	DB	01H
	DB	028H
	DB	01H
	DB	069H
	DB	00H
	DB	098H
	DB	01fH
	DB	051H
	DB	032H
	DB	00H
	DB	00H
	DB	00H
	DB	01H
	DB	02H
	DB	050H
	DB	01H
	DB	01H
	DB	05eH
	DB	08H
	DB	05H
	DB	01H
	DB	098H
	DB	01fH
	DB	051H
	DB	032H
	DB	00H
	DB	00H
	DB	00H
	DB	01H
	DB	02H
	DB	051H
	DB	01H
	DB	028H
	DB	01H
	DB	068H
	DB	00H
	DB	098H
	DB	01fH
	DB	051H
	DB	032H
	DB	00H
	DB	00H
	DB	00H
	DB	01H
	DB	02H
	DB	052H
	DB	01H
	DB	01H
	DB	060H
	DB	08H
	DB	0e6H
	DB	00H
	DB	098H
	DB	01fH
	DB	051H
	DB	032H
	DB	00H
	DB	00H
	DB	00H
	DB	01H
	DB	02H
	DB	053H
	DB	01H
	DB	028H
	DB	01H
	DB	068H
	DB	00H
	DB	098H
	DB	01fH
	DB	051H
	DB	032H
	DB	00H
	DB	00H
	DB	00H
	DB	01H
	DB	02H
	DB	054H
	DB	01H
	DB	01H
	DB	057H
	DB	028H
	DB	01H
	DB	068H
	DB	00H
	DB	098H
	DB	01fH
	DB	051H
	DB	032H
	DB	00H
	DB	00H
	DB	00H
	DB	01H
	DB	02H
	DB	055H
	DB	01H
	DB	01H
	DB	058H
	DB	028H
	DB	01H
	DB	068H
	DB	00H
	DB	098H
	DB	01fH
	DB	051H
	DB	032H
	DB	00H
	DB	00H
	DB	00H
	DB	01H
	DB	02H
	DB	056H
	DB	01H
	DB	01H
	DB	059H
	DB	08H
	DB	0e6H
	DB	00H
	DB	098H
	DB	01fH
	DB	051H
	DB	032H
	DB	00H
	DB	00H
	DB	00H
	DB	01H
	DB	02H
	DB	057H
	DB	01H
	DB	08H
	DB	0e6H
	DB	00H
	DB	098H
	DB	01fH
	DB	051H
	DB	032H
	DB	00H
	DB	00H
	DB	00H
	DB	01H
	DB	02H
	DB	058H
	DB	01H
	DB	08H
	DB	0e6H
	DB	00H
	DB	098H
	DB	01fH
	DB	051H
	DB	032H
	DB	00H
	DB	00H
	DB	00H
	DB	01H
	DB	02H
	DB	059H
	DB	01H
	DB	028H
	DB	01H
	DB	068H
	DB	00H
	DB	098H
	DB	01fH
	DB	051H
	DB	032H
	DB	00H
	DB	00H
	DB	00H
	DB	01H
	DB	02H
	DB	05aH
	DB	01H
	DB	01H
	DB	05aH
	DB	08H
	DB	0e6H
	DB	00H
	DB	098H
	DB	01fH
	DB	051H
	DB	032H
	DB	00H
	DB	00H
	DB	00H
	DB	01H
	DB	02H
	DB	05bH
	DB	01H
	DB	028H
	DB	01H
	DB	068H
	DB	00H
	DB	098H
	DB	01fH
	DB	051H
	DB	032H
	DB	00H
	DB	00H
	DB	00H
	DB	01H
	DB	02H
	DB	05cH
	DB	01H
	DB	01H
	DB	05bH
	DB	08H
	DB	0e6H
	DB	00H
	DB	098H
	DB	01fH
	DB	051H
	DB	032H
	DB	00H
	DB	00H
	DB	00H
	DB	01H
	DB	02H
	DB	05dH
	DB	01H
	DB	028H
	DB	01H
	DB	068H
	DB	00H
	DB	098H
	DB	01fH
	DB	051H
	DB	032H
	DB	00H
	DB	00H
	DB	00H
	DB	01H
	DB	02H
	DB	05eH
	DB	01H
	DB	01H
	DB	05cH
	DB	08H
	DB	0e6H
	DB	00H
	DB	098H
	DB	01fH
	DB	051H
	DB	032H
	DB	00H
	DB	00H
	DB	00H
	DB	01H
	DB	02H
	DB	05fH
	DB	01H
	DB	028H
	DB	01H
	DB	068H
	DB	00H
	DB	098H
	DB	01fH
	DB	051H
	DB	032H
	DB	00H
	DB	00H
	DB	00H
	DB	01H
	DB	02H
	DB	060H
	DB	01H
	DB	01H
	DB	05dH
	DB	08H
	DB	0e6H
	DB	00H
	DB	098H
	DB	01fH
	DB	051H
	DB	032H
	DB	00H
	DB	00H
	DB	00H
	DB	01H
	DB	02H
	DB	061H
	DB	01H
	DB	028H
	DB	01H
	DB	068H
	DB	00H
	DB	098H
	DB	01fH
	DB	051H
	DB	032H
	DB	00H
	DB	00H
	DB	00H
	DB	01H
	DB	02H
	DB	062H
	DB	01H
	DB	01H
	DB	05eH
	DB	08H
	DB	0e6H
	DB	00H
	DB	098H
	DB	01fH
	DB	051H
	DB	032H
	DB	00H
	DB	00H
	DB	00H
	DB	01H
	DB	02H
	DB	063H
	DB	01H
	DB	028H
	DB	01H
	DB	067H
	DB	00H
	DB	098H
	DB	01fH
	DB	051H
	DB	032H
	DB	00H
	DB	00H
	DB	00H
	DB	01H
	DB	02H
	DB	064H
	DB	01H
	DB	01H
	DB	061H
	DB	08H
	DB	018H
	DB	01H
	DB	098H
	DB	01fH
	DB	051H
	DB	032H
	DB	00H
	DB	00H
	DB	00H
	DB	01H
	DB	02H
	DB	065H
	DB	01H
	DB	028H
	DB	01H
	DB	067H
	DB	00H
	DB	098H
	DB	01fH
	DB	051H
	DB	032H
	DB	00H
	DB	00H
	DB	00H
	DB	01H
	DB	02H
	DB	066H
	DB	01H
	DB	01H
	DB	057H
	DB	028H
	DB	01H
	DB	067H
	DB	00H
	DB	098H
	DB	01fH
	DB	051H
	DB	032H
	DB	00H
	DB	00H
	DB	00H
	DB	01H
	DB	02H
	DB	067H
	DB	01H
	DB	01H
	DB	058H
	DB	028H
	DB	01H
	DB	067H
	DB	00H
	DB	098H
	DB	01fH
	DB	051H
	DB	032H
	DB	00H
	DB	00H
	DB	00H
	DB	01H
	DB	02H
	DB	068H
	DB	01H
	DB	01H
	DB	059H
	DB	08H
	DB	018H
	DB	01H
	DB	098H
	DB	01fH
	DB	051H
	DB	032H
	DB	00H
	DB	00H
	DB	00H
	DB	01H
	DB	02H
	DB	069H
	DB	01H
	DB	08H
	DB	018H
	DB	01H
	DB	098H
	DB	01fH
	DB	051H
	DB	032H
	DB	00H
	DB	00H
	DB	00H
	DB	01H
	DB	02H
	DB	06aH
	DB	01H
	DB	08H
	DB	018H
	DB	01H
	DB	098H
	DB	01fH
	DB	051H
	DB	032H
	DB	00H
	DB	00H
	DB	00H
	DB	01H
	DB	02H
	DB	06bH
	DB	01H
	DB	028H
	DB	01H
	DB	067H
	DB	00H
	DB	098H
	DB	01fH
	DB	051H
	DB	032H
	DB	00H
	DB	00H
	DB	00H
	DB	01H
	DB	02H
	DB	06cH
	DB	01H
	DB	01H
	DB	05aH
	DB	08H
	DB	018H
	DB	01H
	DB	098H
	DB	01fH
	DB	051H
	DB	032H
	DB	00H
	DB	00H
	DB	00H
	DB	01H
	DB	02H
	DB	06dH
	DB	01H
	DB	028H
	DB	01H
	DB	067H
	DB	00H
	DB	098H
	DB	01fH
	DB	051H
	DB	032H
	DB	00H
	DB	00H
	DB	00H
	DB	01H
	DB	02H
	DB	06eH
	DB	01H
	DB	01H
	DB	05bH
	DB	08H
	DB	018H
	DB	01H
	DB	098H
	DB	01fH
	DB	051H
	DB	032H
	DB	00H
	DB	00H
	DB	00H
	DB	01H
	DB	02H
	DB	06fH
	DB	01H
	DB	028H
	DB	01H
	DB	067H
	DB	00H
	DB	098H
	DB	01fH
	DB	051H
	DB	032H
	DB	00H
	DB	00H
	DB	00H
	DB	01H
	DB	02H
	DB	070H
	DB	01H
	DB	01H
	DB	05cH
	DB	08H
	DB	018H
	DB	01H
	DB	098H
	DB	01fH
	DB	051H
	DB	032H
	DB	00H
	DB	00H
	DB	00H
	DB	01H
	DB	02H
	DB	071H
	DB	01H
	DB	028H
	DB	01H
	DB	067H
	DB	00H
	DB	098H
	DB	01fH
	DB	051H
	DB	032H
	DB	00H
	DB	00H
	DB	00H
	DB	01H
	DB	02H
	DB	072H
	DB	01H
	DB	01H
	DB	05dH
	DB	08H
	DB	018H
	DB	01H
	DB	098H
	DB	01fH
	DB	051H
	DB	032H
	DB	00H
	DB	00H
	DB	00H
	DB	01H
	DB	02H
	DB	073H
	DB	01H
	DB	028H
	DB	01H
	DB	067H
	DB	00H
	DB	098H
	DB	01fH
	DB	051H
	DB	032H
	DB	00H
	DB	00H
	DB	00H
	DB	01H
	DB	02H
	DB	074H
	DB	01H
	DB	01H
	DB	05eH
	DB	08H
	DB	018H
	DB	01H
	DB	098H
	DB	01fH
	DB	051H
	DB	032H
	DB	00H
	DB	00H
	DB	00H
	DB	01H
	DB	02H
	DB	075H
	DB	01H
	DB	0ffH
	DB	0ffH
	DB	01cH
	DB	03H
	DB	00H
	DB	07cH
	DB	04cH
	DB	0b2H
	DB	020H
	DB	00H
	DB	020H
	DB	01cH
	DB	01H
	DB	00H
	DB	07cH
	DB	04cH
	DB	0b2H
	DB	010H
	DB	00H
	DB	010H
	DB	01cH
	DB	01H
	DB	00H
	DB	01cH
	DB	04cH
	DB	0b8H
	DB	04H
	DB	080H
	DB	04H
	DB	01cH
	DB	01H
	DB	00H
	DB	01cH
	DB	04cH
	DB	0b8H
	DB	02H
	DB	080H
	DB	02H
	DB	01cH
	DB	03H
	DB	00H
	DB	01cH
	DB	04cH
	DB	0b8H
	DB	01H
	DB	080H
	DB	01H
	DB	01cH
	DB	03H
	DB	00H
	DB	01cH
	DB	04cH
	DB	0b4H
	DB	080H
	DB	080H
	DB	080H
	DB	0ffH
	DB	01cH
	DB	03H
	DB	00H
	DB	07cH
	DB	04cH
	DB	0b2H
	DB	020H
	DB	00H
	DB	00H
	DB	01cH
	DB	01H
	DB	00H
	DB	07cH
	DB	04cH
	DB	0b2H
	DB	010H
	DB	00H
	DB	00H
	DB	0ffH
	DB	01cH
	DB	022H
	DB	01H
	DB	074H
	DB	01H
	DB	01fH
	DB	0ffH
	DB	0ffH
	DB	0ffH
	DB	03fH
	DB	00H
	DB	0abH
	DB	081H
	DB	0ffH
	DB	03fH
	DB	018H
	DB	022H
	DB	01H
	DB	0b4H
	DB	011H
	DB	07fH
	DB	00H
	DB	03fH
	DB	01cH
	DB	022H
	DB	01H
	DB	048H
	DB	01H
	DB	01fH
	DB	0ffH
	DB	0ffH
	DB	0ffH
	DB	03fH
	DB	00H
	DB	028H
	DB	029H
	DB	0e6H
	DB	01eH
	DB	01cH
	DB	022H
	DB	01H
	DB	04cH
	DB	01H
	DB	01fH
	DB	0ffH
	DB	0ffH
	DB	0ffH
	DB	03fH
	DB	00H
	DB	030H
	DB	0caH
	DB	049H
	DB	02bH
	DB	01cH
	DB	022H
	DB	01H
	DB	050H
	DB	01H
	DB	01fH
	DB	0ffH
	DB	0ffH
	DB	0ffH
	DB	03fH
	DB	00H
	DB	0f6H
	DB	0e2H
	DB	0fcH
	DB	03fH
	DB	01cH
	DB	022H
	DB	01H
	DB	054H
	DB	01H
	DB	01fH
	DB	0ffH
	DB	0ffH
	DB	0ffH
	DB	0fH
	DB	00H
	DB	021H
	DB	043H
	DB	065H
	DB	07H
	DB	0ffH
	DB	010H
	DB	01cH
	DB	04H
	DB	07H
	DB	0b0H
	DB	023H
	DB	01H
	DB	010H
	DB	01cH
	DB	02H
	DB	020H
	DB	0b0H
	DB	078H
	DB	00H
	DB	010H
	DB	01cH
	DB	02H
	DB	040H
	DB	0b0H
	DB	024H
	DB	01H
	DB	010H
	DB	01cH
	DB	02H
	DB	010H
	DB	0b0H
	DB	025H
	DB	01H
	DB	010H
	DB	01cH
	DB	02H
	DB	08H
	DB	0b0H
	DB	026H
	DB	01H
	DB	010H
	DB	01cH
	DB	02H
	DB	04H
	DB	0b0H
	DB	027H
	DB	01H
	DB	010H
	DB	01cH
	DB	02H
	DB	02H
	DB	0b0H
	DB	028H
	DB	01H
	DB	010H
	DB	01cH
	DB	02H
	DB	01H
	DB	0b0H
	DB	029H
	DB	01H
	DB	010H
	DB	01cH
	DB	01H
	DB	080H
	DB	0b0H
	DB	02aH
	DB	01H
	DB	010H
	DB	01cH
	DB	01H
	DB	040H
	DB	0b0H
	DB	02bH
	DB	01H
	DB	010H
	DB	01cH
	DB	01H
	DB	030H
	DB	0b0H
	DB	02cH
	DB	01H
	DB	010H
	DB	01cH
	DB	01H
	DB	0eH
	DB	0b0H
	DB	02dH
	DB	01H
	DB	010H
	DB	01cH
	DB	01H
	DB	01H
	DB	0b0H
	DB	02eH
	DB	01H
	DB	054H
	DB	028H
	DB	071H
	DB	011H
	DB	01H
	DB	07H
	DB	0b0H
	DB	02fH
	DB	01H
	DB	054H
	DB	028H
	DB	071H
	DB	011H
	DB	02H
	DB	07H
	DB	0b0H
	DB	030H
	DB	01H
	DB	0ffH
	DB	00H
	DB	0ffH
	DB	0f3H
	DB	0c0H
	DB	060H
	DB	01fH
	DB	0ffH
	DB	014H
	DB	024H
	DB	01H
	DB	011H
	DB	040H
	DB	00H
	DB	040H
	DB	04H
	DB	080H
	DB	01H
	DB	015H
	DB	010H
	DB	076H
	DB	01H
	DB	0ffH
	DB	04H
	DB	070H
	DB	06dH
	DB	0e1H
	DB	010H
	DB	077H
	DB	01H
	DB	04H
	DB	094H
	DB	01H
	DB	01fH
	DB	010H
	DB	078H
	DB	01H
	DB	00H
	DB	0b0H
	DB	01fH
	DB	010H
	DB	079H
	DB	01H
	DB	0ffH
	DB	044H
	DB	040H
	DB	070H
	DB	011H
	DB	080H
	DB	010H
	DB	07aH
	DB	01H
	DB	0ffH
	DB	044H
	DB	040H
	DB	070H
	DB	011H
	DB	07H
	DB	010H
	DB	07bH
	DB	01H
	DB	044H
	DB	040H
	DB	070H
	DB	011H
	DB	0ffH
	DB	0b0H
	DB	040H
	DB	01H
	DB	0ffH
	DB	0ffH
	DB	04H
	DB	0f0H
	DB	06H
	DB	05fH
	DB	011H
	DB	02H
	DB	01H
	DB	07dH
	DB	01H
	DB	02H
	DB	07eH
	DB	01H
	DB	04H
	DB	0f4H
	DB	06H
	DB	057H
	DB	01H
	DB	02H
	DB	01H
	DB	037H
	DB	037H
	DB	032H
	DB	02H
	DB	036H
	DB	036H
	DB	02dH
	DB	0ffH
	DB	04H
	DB	028H
	DB	06H
	DB	037H
	DB	01H
	DB	02H
	DB	01H
	DB	05dH
	DB	0d7H
	DB	075H
	DB	02H
	DB	03H
	DB	031H
	DB	010H
	DB	0ffH
	DB	00H
	DB	0ffH
	DB	0f3H
	DB	0c0H
	DB	01aH
	DB	02eH
	DB	00H
	DB	0ffH
	DB	0f3H
	DB	0c0H
	DB	035H
	DB	02eH
	DB	010H
	DB	030H
	DB	058H
	DB	07H
	DB	02H
	DB	01H
	DB	03H
	DB	07H
	DB	010H
	DB	08cH
	DB	053H
	DB	0f8H
	DB	01H
	DB	01H
	DB	02H
	DB	01H
	DB	090H
	DB	00H
	DB	02H
	DB	0f8H
	DB	01H
	DB	010H
	DB	08cH
	DB	051H
	DB	07H
	DB	02H
	DB	01H
	DB	04H
	DB	07H
	DB	010H
	DB	03cH
	DB	052H
	DB	0e0H
	DB	00H
	DB	0e0H
	DB	010H
	DB	020H
	DB	032H
	DB	01cH
	DB	00H
	DB	01cH
	DB	014H
	DB	084H
	DB	03H
	DB	037H
	DB	038H
	DB	08eH
	DB	0e3H
	DB	01H
	DB	02H
	DB	01H
	DB	010H
	DB	04H
	DB	041H
	DB	02H
	DB	00H
	DB	0eH
	DB	0e0H
	DB	014H
	DB	084H
	DB	03H
	DB	037H
	DB	0c7H
	DB	071H
	DB	01cH
	DB	00H
	DB	0c7H
	DB	071H
	DB	01cH
	DB	014H
	DB	0b4H
	DB	05H
	DB	037H
	DB	038H
	DB	08eH
	DB	0e3H
	DB	01H
	DB	02H
	DB	01H
	DB	010H
	DB	04H
	DB	041H
	DB	02H
	DB	00H
	DB	0eH
	DB	0e0H
	DB	014H
	DB	0b4H
	DB	05H
	DB	037H
	DB	0c7H
	DB	071H
	DB	01cH
	DB	00H
	DB	0c7H
	DB	071H
	DB	01cH
	DB	0ffH
	DB	014H
	DB	0e8H
	DB	05H
	DB	052H
	DB	0fH
	DB	00H
	DB	0fH
	DB	014H
	DB	08H
	DB	06H
	DB	054H
	DB	08H
	DB	00H
	DB	08H
	DB	014H
	DB	0cH
	DB	06H
	DB	054H
	DB	01H
	DB	00H
	DB	01H
	DB	014H
	DB	0e8H
	DB	05H
	DB	042H
	DB	0fH
	DB	00H
	DB	0fH
	DB	014H
	DB	08H
	DB	06H
	DB	044H
	DB	08H
	DB	00H
	DB	08H
	DB	014H
	DB	0cH
	DB	06H
	DB	044H
	DB	01H
	DB	00H
	DB	01H
	DB	04H
	DB	0e8H
	DB	05H
	DB	032H
	DB	00H
	DB	0ffH
	DB	014H
	DB	0cH
	DB	06H
	DB	034H
	DB	08H
	DB	00H
	DB	08H
	DB	014H
	DB	010H
	DB	06H
	DB	034H
	DB	01H
	DB	00H
	DB	01H
	DB	014H
	DB	0acH
	DB	01H
	DB	051H
	DB	03H
	DB	00H
	DB	03H
	DB	014H
	DB	0dcH
	DB	03H
	DB	051H
	DB	03H
	DB	00H
	DB	03H
	DB	014H
	DB	0e8H
	DB	05H
	DB	056H
	DB	0f0H
	DB	0fH
	DB	00H
	DB	00H
	DB	00H
	DB	04H
	DB	0e8H
	DB	05H
	DB	034H
	DB	00H
	DB	00H
	DB	0ffH
	DB	04H
	DB	0c8H
	DB	01H
	DB	031H
	DB	011H
	DB	02H
	DB	01H
	DB	07fH
	DB	01H
	DB	02H
	DB	080H
	DB	01H
	DB	04H
	DB	0d0H
	DB	01H
	DB	031H
	DB	011H
	DB	02H
	DB	01H
	DB	081H
	DB	01H
	DB	02H
	DB	082H
	DB	01H
	DB	014H
	DB	0acH
	DB	01H
	DB	03cH
	DB	0f8H
	DB	01H
	DB	05H
	DB	07H
	DB	05H
	DB	050H
	DB	00H
	DB	09H
	DB	060H
	DB	00H
	DB	06H
	DB	060H
	DB	00H
	DB	0aH
	DB	068H
	DB	00H
	DB	012H
	DB	078H
	DB	00H
	DB	022H
	DB	080H
	DB	00H
	DB	042H
	DB	088H
	DB	00H
	DB	04H
	DB	0c8H
	DB	01H
	DB	033H
	DB	014H
	DB	05H
	DB	01H
	DB	083H
	DB	01H
	DB	02H
	DB	084H
	DB	01H
	DB	04H
	DB	085H
	DB	01H
	DB	08H
	DB	086H
	DB	01H
	DB	010H
	DB	087H
	DB	01H
	DB	04H
	DB	0d0H
	DB	01H
	DB	033H
	DB	014H
	DB	05H
	DB	01H
	DB	088H
	DB	01H
	DB	02H
	DB	089H
	DB	01H
	DB	04H
	DB	08aH
	DB	01H
	DB	08H
	DB	08bH
	DB	01H
	DB	010H
	DB	08cH
	DB	01H
	DB	0ffH
	DB	04H
	DB	0f8H
	DB	03H
	DB	031H
	DB	011H
	DB	02H
	DB	01H
	DB	08dH
	DB	01H
	DB	02H
	DB	08eH
	DB	01H
	DB	04H
	DB	00H
	DB	04H
	DB	031H
	DB	011H
	DB	02H
	DB	01H
	DB	08fH
	DB	01H
	DB	02H
	DB	090H
	DB	01H
	DB	014H
	DB	0dcH
	DB	03H
	DB	03cH
	DB	0f8H
	DB	01H
	DB	05H
	DB	07H
	DB	05H
	DB	050H
	DB	00H
	DB	09H
	DB	060H
	DB	00H
	DB	06H
	DB	060H
	DB	00H
	DB	0aH
	DB	068H
	DB	00H
	DB	012H
	DB	078H
	DB	00H
	DB	022H
	DB	080H
	DB	00H
	DB	042H
	DB	088H
	DB	00H
	DB	04H
	DB	0f8H
	DB	03H
	DB	033H
	DB	014H
	DB	05H
	DB	01H
	DB	091H
	DB	01H
	DB	02H
	DB	092H
	DB	01H
	DB	04H
	DB	093H
	DB	01H
	DB	08H
	DB	094H
	DB	01H
	DB	010H
	DB	095H
	DB	01H
	DB	04H
	DB	00H
	DB	04H
	DB	033H
	DB	014H
	DB	05H
	DB	01H
	DB	096H
	DB	01H
	DB	02H
	DB	097H
	DB	01H
	DB	04H
	DB	098H
	DB	01H
	DB	08H
	DB	099H
	DB	01H
	DB	010H
	DB	09aH
	DB	01H
	DB	0ffH
	DB	044H
	DB	038H
	DB	071H
	DB	011H
	DB	0fH
	DB	0b0H
	DB	044H
	DB	01H
	DB	0ffH
	DB	00H
	DB	0ffH
	DB	0f3H
	DB	0c0H
	DB	096H
	DB	01bH
	DB	010H
	DB	080H
	DB	0d1H
	DB	080H
	DB	00H
	DB	00H
	DB	010H
	DB	090H
	DB	0d1H
	DB	080H
	DB	00H
	DB	00H
	DB	010H
	DB	0a0H
	DB	0d1H
	DB	080H
	DB	00H
	DB	00H
	DB	010H
	DB	0b0H
	DB	0d1H
	DB	080H
	DB	00H
	DB	00H
	DB	04H
	DB	084H
	DB	02H
	DB	0dcH
	DB	00H
	DB	0ffH
	DB	0ffH
	DB	04H
	DB	088H
	DB	02H
	DB	0dfH
	DB	00H
	DB	0ffH
	DB	0ffH
	DB	0ffH
	DB	0ffH
	DB	04H
	DB	08cH
	DB	02H
	DB	0dfH
	DB	00H
	DB	0ffH
	DB	0ffH
	DB	0ffH
	DB	0ffH
	DB	0cH
	DB	086H
	DB	00H
	DB	08cH
	DB	02H
	DB	0dfH
	DB	00H
	DB	00H
	DB	00H
	DB	00H
	DB	00H
	DB	04H
	DB	090H
	DB	02H
	DB	0d1H
	DB	010H
	DB	09bH
	DB	01H
	DB	014H
	DB	084H
	DB	02H
	DB	0d2H
	DB	030H
	DB	00H
	DB	020H
	DB	01cH
	DB	046H
	DB	01H
	DB	084H
	DB	02H
	DB	0d2H
	DB	030H
	DB	040H
	DB	01H
	DB	00H
	DB	00H
	DB	00H
	DB	00H
	DB	014H
	DB	084H
	DB	02H
	DB	0d1H
	DB	03fH
	DB	00H
	DB	00H
	DB	014H
	DB	04H
	DB	01H
	DB	0dbH
	DB	0ffH
	DB	03fH
	DB	060H
	DB	00H
	DB	00H
	DB	00H
	DB	00H
	DB	014H
	DB	088H
	DB	01H
	DB	0d1H
	DB	01bH
	DB	00H
	DB	012H
	DB	010H
	DB	048H
	DB	0d1H
	DB	01H
	DB	00H
	DB	01H
	DB	010H
	DB	080H
	DB	0dcH
	DB	0c0H
	DB	03H
	DB	00H
	DB	040H
	DB	02H
	DB	010H
	DB	090H
	DB	0dcH
	DB	0c0H
	DB	03H
	DB	00H
	DB	00H
	DB	02H
	DB	010H
	DB	0a0H
	DB	0dcH
	DB	0c0H
	DB	03H
	DB	00H
	DB	040H
	DB	02H
	DB	010H
	DB	0b0H
	DB	0dcH
	DB	0c0H
	DB	03H
	DB	00H
	DB	00H
	DB	02H
	DB	014H
	DB	0acH
	DB	01H
	DB	0ddH
	DB	0ffH
	DB	01fH
	DB	0c0H
	DB	00H
	DB	00H
	DB	00H
	DB	00H
	DB	04H
	DB	0b4H
	DB	01H
	DB	0dfH
	DB	00H
	DB	00H
	DB	00H
	DB	00H
	DB	00H
	DB	04H
	DB	0b0H
	DB	01H
	DB	0dfH
	DB	00H
	DB	00H
	DB	00H
	DB	00H
	DB	00H
	DB	010H
	DB	048H
	DB	0d2H
	DB	070H
	DB	00H
	DB	010H
	DB	0ffH
	DB	00H
	DB	048H
	DB	0d4H
	DB	010H
	DB	09cH
	DB	01H
	DB	00H
	DB	080H
	DB	0d1H
	DB	010H
	DB	09dH
	DB	01H
	DB	00H
	DB	090H
	DB	0d1H
	DB	010H
	DB	09eH
	DB	01H
	DB	00H
	DB	0a0H
	DB	0d1H
	DB	010H
	DB	09fH
	DB	01H
	DB	00H
	DB	0b0H
	DB	0d1H
	DB	010H
	DB	0a0H
	DB	01H
	DB	0ffH
	DB	010H
	DB	08cH
	DB	0dfH
	DB	0ffH
	DB	0ffH
	DB	0ffH
	DB	07fH
	DB	00H
	DB	00H
	DB	00H
	DB	00H
	DB	00H
	DB	010H
	DB	088H
	DB	0dfH
	DB	0ffH
	DB	0ffH
	DB	0ffH
	DB	03fH
	DB	00H
	DB	00H
	DB	00H
	DB	0aH
	DB	06H
	DB	010H
	DB	09cH
	DB	0dfH
	DB	0ffH
	DB	0ffH
	DB	0ffH
	DB	07fH
	DB	00H
	DB	00H
	DB	00H
	DB	00H
	DB	00H
	DB	010H
	DB	098H
	DB	0dfH
	DB	0ffH
	DB	0ffH
	DB	0ffH
	DB	03fH
	DB	00H
	DB	00H
	DB	00H
	DB	0aH
	DB	06H
	DB	010H
	DB	0acH
	DB	0dfH
	DB	0ffH
	DB	0ffH
	DB	0ffH
	DB	07fH
	DB	00H
	DB	00H
	DB	00H
	DB	00H
	DB	00H
	DB	010H
	DB	0a8H
	DB	0dfH
	DB	0ffH
	DB	0ffH
	DB	0ffH
	DB	03fH
	DB	00H
	DB	00H
	DB	00H
	DB	0aH
	DB	06H
	DB	010H
	DB	0bcH
	DB	0dfH
	DB	0ffH
	DB	0ffH
	DB	0ffH
	DB	07fH
	DB	00H
	DB	00H
	DB	00H
	DB	00H
	DB	00H
	DB	010H
	DB	0b8H
	DB	0dfH
	DB	0ffH
	DB	0ffH
	DB	0ffH
	DB	03fH
	DB	00H
	DB	00H
	DB	00H
	DB	0aH
	DB	06H
	DB	014H
	DB	084H
	DB	01H
	DB	0d7H
	DB	03fH
	DB	07H
	DB	07H
	DB	00H
	DB	00H
	DB	00H
	DB	00H
	DB	04H
	DB	088H
	DB	01H
	DB	0ddH
	DB	010H
	DB	0a1H
	DB	01H
	DB	04H
	DB	0b4H
	DB	01H
	DB	0dfH
	DB	00H
	DB	00H
	DB	00H
	DB	00H
	DB	00H
	DB	04H
	DB	0b0H
	DB	01H
	DB	0dfH
	DB	00H
	DB	00H
	DB	00H
	DB	00H
	DB	00H
	DB	04H
	DB	090H
	DB	01H
	DB	0dfH
	DB	00H
	DB	00H
	DB	0ffH
	DB	0f0H
	DB	0aaH
	DB	04H
	DB	098H
	DB	01H
	DB	0dfH
	DB	00H
	DB	0c0H
	DB	0afH
	DB	055H
	DB	0aaH
	DB	04H
	DB	0a0H
	DB	01H
	DB	0dfH
	DB	00H
	DB	08cH
	DB	0a3H
	DB	01fH
	DB	00H
	DB	04H
	DB	00H
	DB	02H
	DB	0d1H
	DB	00H
	DB	0aaH
	DB	04H
	DB	04H
	DB	02H
	DB	0d1H
	DB	00H
	DB	0ccH
	DB	04H
	DB	028H
	DB	02H
	DB	0d1H
	DB	00H
	DB	0ccH
	DB	04H
	DB	02cH
	DB	02H
	DB	0d1H
	DB	00H
	DB	0ccH
	DB	04H
	DB	030H
	DB	02H
	DB	0d1H
	DB	00H
	DB	0ccH
	DB	04H
	DB	034H
	DB	02H
	DB	0d1H
	DB	00H
	DB	0ccH
	DB	04H
	DB	038H
	DB	02H
	DB	0d1H
	DB	00H
	DB	0ccH
	DB	04H
	DB	03cH
	DB	02H
	DB	0d1H
	DB	00H
	DB	0ccH
	DB	04H
	DB	08H
	DB	02H
	DB	0d1H
	DB	00H
	DB	0ccH
	DB	04H
	DB	0cH
	DB	02H
	DB	0d1H
	DB	00H
	DB	0ccH
	DB	04H
	DB	010H
	DB	02H
	DB	0d1H
	DB	00H
	DB	0ccH
	DB	04H
	DB	014H
	DB	02H
	DB	0d1H
	DB	00H
	DB	0ccH
	DB	04H
	DB	018H
	DB	02H
	DB	0d1H
	DB	00H
	DB	0ccH
	DB	04H
	DB	01cH
	DB	02H
	DB	0d1H
	DB	00H
	DB	0ccH
	DB	04H
	DB	020H
	DB	02H
	DB	0d1H
	DB	00H
	DB	0aaH
	DB	04H
	DB	024H
	DB	02H
	DB	0d1H
	DB	00H
	DB	0ccH
	DB	04H
	DB	08cH
	DB	01H
	DB	0d8H
	DB	010H
	DB	0a2H
	DB	01H
	DB	010H
	DB	048H
	DB	0d9H
	DB	08H
	DB	077H
	DB	00H
	DB	00H
	DB	010H
	DB	00H
	DB	084H
	DB	0d7H
	DB	010H
	DB	0a3H
	DB	01H
	DB	010H
	DB	080H
	DB	0dfH
	DB	080H
	DB	0ffH
	DB	0ffH
	DB	08bH
	DB	00H
	DB	00H
	DB	00H
	DB	040H
	DB	0aH
	DB	00H
	DB	094H
	DB	0d7H
	DB	010H
	DB	0a4H
	DB	01H
	DB	010H
	DB	090H
	DB	0dfH
	DB	080H
	DB	0ffH
	DB	0ffH
	DB	08bH
	DB	00H
	DB	00H
	DB	00H
	DB	00H
	DB	0aH
	DB	00H
	DB	0a4H
	DB	0d7H
	DB	010H
	DB	0a5H
	DB	01H
	DB	010H
	DB	0a0H
	DB	0dfH
	DB	080H
	DB	0ffH
	DB	0ffH
	DB	08bH
	DB	00H
	DB	00H
	DB	00H
	DB	040H
	DB	0aH
	DB	00H
	DB	0b4H
	DB	0d7H
	DB	010H
	DB	0a6H
	DB	01H
	DB	010H
	DB	0b0H
	DB	0dfH
	DB	080H
	DB	0ffH
	DB	0ffH
	DB	08bH
	DB	00H
	DB	00H
	DB	00H
	DB	00H
	DB	0aH
	DB	010H
	DB	048H
	DB	0d2H
	DB	070H
	DB	00H
	DB	010H
	DB	04H
	DB	088H
	DB	01H
	DB	0d2H
	DB	010H
	DB	0a7H
	DB	01H
	DB	010H
	DB	048H
	DB	0d3H
	DB	09H
	DB	0cH
	DB	00H
	DB	01H
	DB	00H
	DB	010H
	DB	04cH
	DB	0d3H
	DB	0ffH
	DB	03H
	DB	00H
	DB	00H
	DB	00H
	DB	014H
	DB	08cH
	DB	01H
	DB	0d7H
	DB	01cH
	DB	01cH
	DB	01cH
	DB	00H
	DB	01cH
	DB	01cH
	DB	01cH
	DB	0ffH
	DB	00H
	DB	08cH
	DB	0dfH
	DB	010H
	DB	0a8H
	DB	01H
	DB	00H
	DB	09cH
	DB	0dfH
	DB	010H
	DB	0a9H
	DB	01H
	DB	00H
	DB	0acH
	DB	0dfH
	DB	010H
	DB	0aaH
	DB	01H
	DB	00H
	DB	0bcH
	DB	0dfH
	DB	010H
	DB	0abH
	DB	01H
	DB	0ffH
	DB	04H
	DB	090H
	DB	01H
	DB	0dfH
	DB	010H
	DB	0acH
	DB	01H
	DB	04H
	DB	098H
	DB	01H
	DB	0dfH
	DB	010H
	DB	0adH
	DB	01H
	DB	0ffH
	DB	00H
	DB	048H
	DB	0d8H
	DB	010H
	DB	0aeH
	DB	01H
	DB	00H
	DB	080H
	DB	0d1H
	DB	010H
	DB	0afH
	DB	01H
	DB	00H
	DB	090H
	DB	0d1H
	DB	010H
	DB	0b0H
	DB	01H
	DB	0ffH
	DB	014H
	DB	040H
	DB	01H
	DB	0dfH
	DB	0ffH
	DB	0ffH
	DB	03H
	DB	0fH
	DB	00H
	DB	0ffH
	DB	0ffH
	DB	00H
	DB	07H
	DB	014H
	DB	048H
	DB	01H
	DB	0dfH
	DB	0ffH
	DB	0ffH
	DB	03H
	DB	0fH
	DB	00H
	DB	055H
	DB	055H
	DB	00H
	DB	05H
	DB	014H
	DB	050H
	DB	01H
	DB	0dfH
	DB	0ffH
	DB	0ffH
	DB	03H
	DB	0fH
	DB	00H
	DB	0aaH
	DB	0aaH
	DB	00H
	DB	02H
	DB	014H
	DB	058H
	DB	01H
	DB	0dfH
	DB	0ffH
	DB	0ffH
	DB	03H
	DB	0fH
	DB	00H
	DB	00H
	DB	00H
	DB	00H
	DB	00H
	DB	014H
	DB	060H
	DB	01H
	DB	0dfH
	DB	0ffH
	DB	0ffH
	DB	03H
	DB	0fH
	DB	00H
	DB	0ffH
	DB	0ffH
	DB	00H
	DB	07H
	DB	014H
	DB	068H
	DB	01H
	DB	0dfH
	DB	0ffH
	DB	0ffH
	DB	03H
	DB	0fH
	DB	00H
	DB	055H
	DB	055H
	DB	00H
	DB	05H
	DB	014H
	DB	070H
	DB	01H
	DB	0dfH
	DB	0ffH
	DB	0ffH
	DB	03H
	DB	0fH
	DB	00H
	DB	0aaH
	DB	0aaH
	DB	00H
	DB	02H
	DB	014H
	DB	078H
	DB	01H
	DB	0dfH
	DB	0ffH
	DB	0ffH
	DB	03H
	DB	0fH
	DB	00H
	DB	00H
	DB	00H
	DB	00H
	DB	00H
	DB	014H
	DB	044H
	DB	01H
	DB	0dfH
	DB	0fH
	DB	07H
	DB	0fH
	DB	0fH
	DB	00H
	DB	00H
	DB	07H
	DB	00H
	DB	00H
	DB	014H
	DB	04cH
	DB	01H
	DB	0dfH
	DB	0fH
	DB	07H
	DB	0fH
	DB	0fH
	DB	00H
	DB	00H
	DB	02H
	DB	00H
	DB	00H
	DB	014H
	DB	054H
	DB	01H
	DB	0dfH
	DB	0fH
	DB	07H
	DB	0fH
	DB	0fH
	DB	00H
	DB	00H
	DB	05H
	DB	00H
	DB	00H
	DB	014H
	DB	05cH
	DB	01H
	DB	0dfH
	DB	0fH
	DB	07H
	DB	0fH
	DB	0fH
	DB	00H
	DB	00H
	DB	00H
	DB	00H
	DB	00H
	DB	014H
	DB	064H
	DB	01H
	DB	0dfH
	DB	0fH
	DB	07H
	DB	0fH
	DB	0fH
	DB	00H
	DB	00H
	DB	07H
	DB	00H
	DB	00H
	DB	014H
	DB	06cH
	DB	01H
	DB	0dfH
	DB	0fH
	DB	07H
	DB	0fH
	DB	0fH
	DB	00H
	DB	00H
	DB	02H
	DB	00H
	DB	00H
	DB	014H
	DB	074H
	DB	01H
	DB	0dfH
	DB	0fH
	DB	07H
	DB	0fH
	DB	0fH
	DB	00H
	DB	00H
	DB	05H
	DB	00H
	DB	00H
	DB	014H
	DB	07cH
	DB	01H
	DB	0dfH
	DB	0fH
	DB	07H
	DB	0fH
	DB	0fH
	DB	00H
	DB	00H
	DB	00H
	DB	00H
	DB	00H
	DB	014H
	DB	08H
	DB	01H
	DB	0d3H
	DB	033H
	DB	03H
	DB	00H
	DB	022H
	DB	02H
	DB	014H
	DB	04H
	DB	01H
	DB	0dbH
	DB	0ffH
	DB	03fH
	DB	060H
	DB	00H
	DB	03cH
	DB	01cH
	DB	00H
	DB	014H
	DB	014H
	DB	01H
	DB	0dfH
	DB	071H
	DB	07H
	DB	07H
	DB	07H
	DB	00H
	DB	00H
	DB	00H
	DB	00H
	DB	00H
	DB	04H
	DB	010H
	DB	01H
	DB	0d3H
	DB	00H
	DB	0d9H
	DB	05H
	DB	014H
	DB	01cH
	DB	01H
	DB	0dfH
	DB	071H
	DB	07H
	DB	07H
	DB	07H
	DB	00H
	DB	00H
	DB	00H
	DB	00H
	DB	00H
	DB	04H
	DB	018H
	DB	01H
	DB	0d3H
	DB	00H
	DB	01eH
	DB	07H
	DB	014H
	DB	024H
	DB	01H
	DB	0dfH
	DB	071H
	DB	07H
	DB	07H
	DB	07H
	DB	00H
	DB	00H
	DB	00H
	DB	00H
	DB	00H
	DB	04H
	DB	020H
	DB	01H
	DB	0d3H
	DB	00H
	DB	00H
	DB	00H
	DB	010H
	DB	084H
	DB	0d7H
	DB	02H
	DB	08fH
	DB	020H
	DB	00H
	DB	00H
	DB	00H
	DB	020H
	DB	010H
	DB	080H
	DB	0deH
	DB	0ffH
	DB	0ffH
	DB	08bH
	DB	00H
	DB	00H
	DB	040H
	DB	02H
	DB	00H
	DB	08cH
	DB	0dfH
	DB	010H
	DB	0b1H
	DB	01H
	DB	010H
	DB	088H
	DB	0dfH
	DB	0ffH
	DB	0ffH
	DB	0ffH
	DB	03fH
	DB	00H
	DB	09dH
	DB	0eH
	DB	0aH
	DB	06H
	DB	010H
	DB	094H
	DB	0d7H
	DB	02H
	DB	08fH
	DB	020H
	DB	00H
	DB	00H
	DB	00H
	DB	020H
	DB	010H
	DB	090H
	DB	0deH
	DB	0ffH
	DB	0ffH
	DB	08bH
	DB	00H
	DB	00H
	DB	00H
	DB	02H
	DB	00H
	DB	09cH
	DB	0dfH
	DB	010H
	DB	0b2H
	DB	01H
	DB	010H
	DB	098H
	DB	0dfH
	DB	0ffH
	DB	0ffH
	DB	0ffH
	DB	03fH
	DB	00H
	DB	09dH
	DB	0eH
	DB	0aH
	DB	06H
	DB	010H
	DB	0a4H
	DB	0d7H
	DB	02H
	DB	08fH
	DB	020H
	DB	00H
	DB	00H
	DB	00H
	DB	020H
	DB	010H
	DB	0a0H
	DB	0deH
	DB	0ffH
	DB	0ffH
	DB	08bH
	DB	00H
	DB	00H
	DB	040H
	DB	02H
	DB	00H
	DB	0acH
	DB	0dfH
	DB	010H
	DB	0b3H
	DB	01H
	DB	00H
	DB	0a8H
	DB	0dfH
	DB	010H
	DB	0b4H
	DB	01H
	DB	010H
	DB	0b4H
	DB	0d7H
	DB	02H
	DB	08fH
	DB	020H
	DB	00H
	DB	00H
	DB	00H
	DB	020H
	DB	010H
	DB	0b0H
	DB	0deH
	DB	0ffH
	DB	0ffH
	DB	08bH
	DB	00H
	DB	00H
	DB	00H
	DB	02H
	DB	00H
	DB	0bcH
	DB	0dfH
	DB	010H
	DB	0b5H
	DB	01H
	DB	00H
	DB	0b8H
	DB	0dfH
	DB	010H
	DB	0b6H
	DB	01H
	DB	014H
	DB	084H
	DB	02H
	DB	0d3H
	DB	03fH
	DB	030H
	DB	00H
	DB	01H
	DB	00H
	DB	010H
	DB	048H
	DB	0daH
	DB	070H
	DB	077H
	DB	00H
	DB	010H
	DB	030H
	DB	014H
	DB	04H
	DB	01H
	DB	0d1H
	DB	03H
	DB	00H
	DB	01H
	DB	0ffH
	DB	04H
	DB	040H
	DB	01H
	DB	0d7H
	DB	010H
	DB	0b7H
	DB	01H
	DB	04H
	DB	048H
	DB	01H
	DB	0d7H
	DB	010H
	DB	0b8H
	DB	01H
	DB	04H
	DB	050H
	DB	01H
	DB	0d7H
	DB	010H
	DB	0b9H
	DB	01H
	DB	04H
	DB	058H
	DB	01H
	DB	0d7H
	DB	010H
	DB	0baH
	DB	01H
	DB	04H
	DB	040H
	DB	01H
	DB	0d8H
	DB	010H
	DB	0bbH
	DB	01H
	DB	04H
	DB	048H
	DB	01H
	DB	0d8H
	DB	010H
	DB	0bcH
	DB	01H
	DB	04H
	DB	050H
	DB	01H
	DB	0d8H
	DB	010H
	DB	0bdH
	DB	01H
	DB	04H
	DB	058H
	DB	01H
	DB	0d8H
	DB	010H
	DB	0beH
	DB	01H
	DB	04H
	DB	044H
	DB	01H
	DB	0d2H
	DB	010H
	DB	0bfH
	DB	01H
	DB	04H
	DB	04cH
	DB	01H
	DB	0d2H
	DB	010H
	DB	0c0H
	DB	01H
	DB	04H
	DB	054H
	DB	01H
	DB	0d2H
	DB	010H
	DB	0c1H
	DB	01H
	DB	04H
	DB	05cH
	DB	01H
	DB	0d2H
	DB	010H
	DB	0c2H
	DB	01H
	DB	014H
	DB	044H
	DB	01H
	DB	0ddH
	DB	0fH
	DB	0fH
	DB	0fH
	DB	00H
	DB	00H
	DB	00H
	DB	00H
	DB	014H
	DB	04cH
	DB	01H
	DB	0ddH
	DB	0fH
	DB	0fH
	DB	0fH
	DB	00H
	DB	00H
	DB	00H
	DB	00H
	DB	014H
	DB	054H
	DB	01H
	DB	0ddH
	DB	0fH
	DB	0fH
	DB	0fH
	DB	00H
	DB	00H
	DB	00H
	DB	00H
	DB	014H
	DB	05cH
	DB	01H
	DB	0ddH
	DB	0fH
	DB	0fH
	DB	0fH
	DB	00H
	DB	00H
	DB	00H
	DB	00H
	DB	0ffH
	DB	010H
	DB	044H
	DB	0d1H
	DB	02H
	DB	040H
	DB	01H
	DB	00H
	DB	00H
	DB	00H
	DB	02H
	DB	010H
	DB	044H
	DB	0d1H
	DB	05H
	DB	040H
	DB	01H
	DB	00H
	DB	00H
	DB	00H
	DB	05H
	DB	00H
	DB	0ffH
	DB	0ffH
	DB	020H
	DB	064H
	DB	00H
	DB	00H
	DB	00H
	DB	010H
	DB	050H
	DB	0d8H
	DB	040H
	DB	080H
	DB	00H
	DB	010H
	DB	044H
	DB	0d1H
	DB	02H
	DB	040H
	DB	01H
	DB	00H
	DB	00H
	DB	00H
	DB	02H
	DB	014H
	DB	0a4H
	DB	02H
	DB	0d2H
	DB	01H
	DB	0b0H
	DB	063H
	DB	01H
	DB	04H
	DB	0a4H
	DB	02H
	DB	0d1H
	DB	0b0H
	DB	064H
	DB	01H
	DB	04H
	DB	098H
	DB	02H
	DB	0dfH
	DB	0b0H
	DB	065H
	DB	01H
	DB	04H
	DB	09cH
	DB	02H
	DB	0dfH
	DB	0b0H
	DB	066H
	DB	01H
	DB	04H
	DB	0a0H
	DB	02H
	DB	0d2H
	DB	0b0H
	DB	067H
	DB	01H
	DB	0ffH
	DB	010H
	DB	044H
	DB	0d1H
	DB	02H
	DB	040H
	DB	01H
	DB	00H
	DB	00H
	DB	00H
	DB	02H
	DB	018H
	DB	068H
	DB	01H
	DB	044H
	DB	0d1H
	DB	01H
	DB	040H
	DB	032H
	DB	00H
	DB	00H
	DB	00H
	DB	01H
	DB	010H
	DB	044H
	DB	0d1H
	DB	02H
	DB	040H
	DB	01H
	DB	00H
	DB	00H
	DB	00H
	DB	02H
	DB	0ffH
	DB	010H
	DB	044H
	DB	0d1H
	DB	02H
	DB	040H
	DB	01H
	DB	00H
	DB	00H
	DB	00H
	DB	02H
	DB	010H
	DB	044H
	DB	0d1H
	DB	04H
	DB	00H
	DB	04H
	DB	0ffH
	DB	018H
	DB	068H
	DB	01H
	DB	044H
	DB	0d1H
	DB	01H
	DB	040H
	DB	032H
	DB	00H
	DB	00H
	DB	00H
	DB	01H
	DB	0ffH
	DB	018H
	DB	068H
	DB	01H
	DB	050H
	DB	0d8H
	DB	040H
	DB	080H
	DB	00H
	DB	010H
	DB	044H
	DB	0d1H
	DB	02H
	DB	040H
	DB	01H
	DB	00H
	DB	00H
	DB	00H
	DB	02H
	DB	014H
	DB	0a4H
	DB	02H
	DB	0d2H
	DB	01H
	DB	0b0H
	DB	063H
	DB	01H
	DB	04H
	DB	0a4H
	DB	02H
	DB	0d1H
	DB	0b0H
	DB	064H
	DB	01H
	DB	04H
	DB	0a0H
	DB	02H
	DB	0d2H
	DB	0b0H
	DB	067H
	DB	01H
	DB	04H
	DB	098H
	DB	02H
	DB	0dfH
	DB	0b0H
	DB	065H
	DB	01H
	DB	04H
	DB	09cH
	DB	02H
	DB	0dfH
	DB	0b0H
	DB	066H
	DB	01H
	DB	04H
	DB	0a0H
	DB	02H
	DB	0d1H
	DB	0b0H
	DB	069H
	DB	01H
	DB	0ffH
	DB	00H
	DB	0ffH
	DB	0f3H
	DB	0c0H
	DB	0b7H
	DB	01eH
	DB	0ffH
	DB	04H
	DB	00H
	DB	02H
	DB	0d1H
	DB	00H
	DB	00H
	DB	04H
	DB	04H
	DB	02H
	DB	0d1H
	DB	00H
	DB	00H
	DB	04H
	DB	028H
	DB	02H
	DB	0d1H
	DB	00H
	DB	00H
	DB	04H
	DB	02cH
	DB	02H
	DB	0d1H
	DB	00H
	DB	00H
	DB	04H
	DB	030H
	DB	02H
	DB	0d1H
	DB	00H
	DB	00H
	DB	04H
	DB	034H
	DB	02H
	DB	0d1H
	DB	00H
	DB	00H
	DB	04H
	DB	038H
	DB	02H
	DB	0d1H
	DB	00H
	DB	00H
	DB	04H
	DB	03cH
	DB	02H
	DB	0d1H
	DB	00H
	DB	00H
	DB	04H
	DB	08H
	DB	02H
	DB	0d1H
	DB	00H
	DB	00H
	DB	04H
	DB	0cH
	DB	02H
	DB	0d1H
	DB	00H
	DB	00H
	DB	04H
	DB	010H
	DB	02H
	DB	0d1H
	DB	00H
	DB	00H
	DB	04H
	DB	014H
	DB	02H
	DB	0d1H
	DB	00H
	DB	00H
	DB	04H
	DB	018H
	DB	02H
	DB	0d1H
	DB	00H
	DB	00H
	DB	04H
	DB	01cH
	DB	02H
	DB	0d1H
	DB	00H
	DB	00H
	DB	04H
	DB	020H
	DB	02H
	DB	0d1H
	DB	00H
	DB	00H
	DB	04H
	DB	024H
	DB	02H
	DB	0d1H
	DB	00H
	DB	00H
	DB	014H
	DB	0acH
	DB	01H
	DB	0d8H
	DB	080H
	DB	00H
	DB	00H
	DB	0ffH
	DB	00H
	DB	088H
	DB	0dfH
	DB	010H
	DB	0c3H
	DB	01H
	DB	00H
	DB	08cH
	DB	0dfH
	DB	010H
	DB	0c4H
	DB	01H
	DB	00H
	DB	098H
	DB	0dfH
	DB	010H
	DB	0c5H
	DB	01H
	DB	00H
	DB	09cH
	DB	0dfH
	DB	010H
	DB	0c6H
	DB	01H
	DB	010H
	DB	080H
	DB	0dfH
	DB	0ffH
	DB	0ffH
	DB	0ffH
	DB	08bH
	DB	00H
	DB	080H
	DB	00H
	DB	040H
	DB	082H
	DB	00H
	DB	084H
	DB	0d7H
	DB	010H
	DB	0c7H
	DB	01H
	DB	010H
	DB	090H
	DB	0dfH
	DB	0ffH
	DB	0ffH
	DB	0ffH
	DB	08bH
	DB	00H
	DB	080H
	DB	00H
	DB	00H
	DB	082H
	DB	00H
	DB	094H
	DB	0d7H
	DB	010H
	DB	0c8H
	DB	01H
	DB	00H
	DB	048H
	DB	0dfH
	DB	010H
	DB	0c9H
	DB	01H
	DB	04H
	DB	084H
	DB	01H
	DB	0d7H
	DB	010H
	DB	0caH
	DB	01H
	DB	014H
	DB	08cH
	DB	01H
	DB	0d8H
	DB	05fH
	DB	00H
	DB	00H
	DB	014H
	DB	0acH
	DB	01H
	DB	0d8H
	DB	080H
	DB	00H
	DB	00H
	DB	04H
	DB	090H
	DB	01H
	DB	0dfH
	DB	00H
	DB	00H
	DB	0ffH
	DB	0f0H
	DB	0aaH
	DB	04H
	DB	098H
	DB	01H
	DB	0dfH
	DB	00H
	DB	0c0H
	DB	0afH
	DB	055H
	DB	0aaH
	DB	04H
	DB	0a0H
	DB	01H
	DB	0dfH
	DB	00H
	DB	08cH
	DB	0a3H
	DB	01fH
	DB	00H
	DB	014H
	DB	088H
	DB	01H
	DB	0d1H
	DB	0dbH
	DB	00H
	DB	092H
	DB	0ffH
	DB	04H
	DB	00H
	DB	02H
	DB	0dfH
	DB	00H
	DB	0fH
	DB	0f0H
	DB	0ccH
	DB	0aaH
	DB	04H
	DB	04H
	DB	02H
	DB	0dfH
	DB	00H
	DB	0faH
	DB	088H
	DB	055H
	DB	033H
	DB	04H
	DB	08H
	DB	02H
	DB	0dfH
	DB	00H
	DB	088H
	DB	0faH
	DB	03cH
	DB	03cH
	DB	04H
	DB	0cH
	DB	02H
	DB	0dfH
	DB	00H
	DB	0f0H
	DB	0fH
	DB	033H
	DB	055H
	DB	04H
	DB	010H
	DB	02H
	DB	0dfH
	DB	00H
	DB	033H
	DB	0fH
	DB	0aaH
	DB	0ccH
	DB	04H
	DB	014H
	DB	02H
	DB	0dfH
	DB	00H
	DB	088H
	DB	0faH
	DB	03cH
	DB	055H
	DB	04H
	DB	018H
	DB	02H
	DB	0dfH
	DB	00H
	DB	0fH
	DB	0f0H
	DB	0ccH
	DB	0aaH
	DB	04H
	DB	01cH
	DB	02H
	DB	0dfH
	DB	00H
	DB	0faH
	DB	088H
	DB	055H
	DB	033H
	DB	04H
	DB	020H
	DB	02H
	DB	0dfH
	DB	00H
	DB	088H
	DB	0faH
	DB	03cH
	DB	03cH
	DB	04H
	DB	024H
	DB	02H
	DB	0dfH
	DB	00H
	DB	0f0H
	DB	0fH
	DB	033H
	DB	055H
	DB	04H
	DB	028H
	DB	02H
	DB	0dfH
	DB	00H
	DB	033H
	DB	0fH
	DB	0aaH
	DB	0ccH
	DB	04H
	DB	02cH
	DB	02H
	DB	0dfH
	DB	00H
	DB	088H
	DB	0faH
	DB	03cH
	DB	055H
	DB	04H
	DB	030H
	DB	02H
	DB	0dfH
	DB	00H
	DB	033H
	DB	0fH
	DB	0aaH
	DB	0ccH
	DB	04H
	DB	034H
	DB	02H
	DB	0dfH
	DB	00H
	DB	033H
	DB	0fH
	DB	03cH
	DB	055H
	DB	04H
	DB	038H
	DB	02H
	DB	0dfH
	DB	00H
	DB	055H
	DB	0faH
	DB	088H
	DB	055H
	DB	04H
	DB	03cH
	DB	02H
	DB	0dfH
	DB	00H
	DB	055H
	DB	088H
	DB	0faH
	DB	03cH
	DB	014H
	DB	0acH
	DB	01H
	DB	0d8H
	DB	080H
	DB	00H
	DB	00H
	DB	0ffH
	DB	00H
	DB	098H
	DB	01fH
	DB	011H
	DB	01H
	DB	02H
	DB	0cbH
	DB	01H
	DB	00H
	DB	098H
	DB	01fH
	DB	011H
	DB	01H
	DB	01H
	DB	0ccH
	DB	01H
	DB	00H
	DB	0ffH
	DB	0ffH
	DB	020H
	DB	064H
	DB	00H
	DB	00H
	DB	00H
	DB	0ffH
	DB	010H
	DB	0cH
	DB	04H
	DB	07H
	DB	00H
	DB	01H
	DB	014H
	DB	0acH
	DB	01H
	DB	028H
	DB	07eH
	DB	00H
	DB	01eH
	DB	014H
	DB	0b0H
	DB	01H
	DB	028H
	DB	06H
	DB	00H
	DB	02H
	DB	014H
	DB	0ccH
	DB	02H
	DB	024H
	DB	02H
	DB	00H
	DB	02H
	DB	0ffH
	DB	04H
	DB	0a4H
	DB	01H
	DB	021H
	DB	010H
	DB	0cdH
	DB	01H
	DB	04H
	DB	0a8H
	DB	01H
	DB	021H
	DB	010H
	DB	0ceH
	DB	01H
	DB	0ffH
	DB	014H
	DB	0a4H
	DB	01H
	DB	021H
	DB	01fH
	DB	0b0H
	DB	070H
	DB	01H
	DB	014H
	DB	0a8H
	DB	01H
	DB	021H
	DB	01fH
	DB	0b0H
	DB	071H
	DB	01H
	DB	0ffH
	DB	04H
	DB	0a4H
	DB	01H
	DB	021H
	DB	010H
	DB	0cfH
	DB	01H
	DB	04H
	DB	0a8H
	DB	01H
	DB	021H
	DB	010H
	DB	0d0H
	DB	01H
	DB	0ffH
	DB	00H
	DB	098H
	DB	01fH
	DB	050H
	DB	064H
	DB	00H
	DB	00H
	DB	00H
	DB	0d1H
	DB	01H
	DB	0ffH
	DB	00H
	DB	0b8H
	DB	01fH
	DB	011H
	DB	01H
	DB	02H
	DB	0d2H
	DB	01H
	DB	00H
	DB	0bcH
	DB	01fH
	DB	011H
	DB	01H
	DB	02H
	DB	0d3H
	DB	01H
	DB	00H
	DB	0c0H
	DB	01fH
	DB	011H
	DB	01H
	DB	02H
	DB	0d4H
	DB	01H
	DB	00H
	DB	0c4H
	DB	017H
	DB	051H
	DB	01H
	DB	00H
	DB	00H
	DB	00H
	DB	01H
	DB	02H
	DB	0d5H
	DB	01H
	DB	010H
	DB	0c4H
	DB	014H
	DB	04H
	DB	01H
	DB	01H
	DB	02H
	DB	04H
	DB	010H
	DB	0c4H
	DB	014H
	DB	04H
	DB	081H
	DB	01H
	DB	02H
	DB	00H
	DB	0ffH
	DB	010H
	DB	0cH
	DB	04H
	DB	07H
	DB	00H
	DB	00H
	DB	0ffH
	DB	014H
	DB	0b0H
	DB	01H
	DB	028H
	DB	02H
	DB	05H
	DB	01H
	DB	07fH
	DB	00H
	DB	014H
	DB	0b0H
	DB	01H
	DB	028H
	DB	04H
	DB	00H
	DB	00H
	DB	014H
	DB	0ccH
	DB	02H
	DB	024H
	DB	02H
	DB	01H
	DB	02H
	DB	02H
	DB	00H
	DB	01H
	DB	02H
	DB	0ffH
	DB	014H
	DB	090H
	DB	01H
	DB	023H
	DB	0c0H
	DB	03fH
	DB	00H
	DB	00H
	DB	01H
	DB	014H
	DB	094H
	DB	01H
	DB	023H
	DB	0c0H
	DB	03fH
	DB	00H
	DB	00H
	DB	01H
	DB	0ffH
	DB	014H
	DB	098H
	DB	01H
	DB	024H
	DB	030H
	DB	00H
	DB	030H
	DB	014H
	DB	09cH
	DB	01H
	DB	024H
	DB	030H
	DB	00H
	DB	030H
	DB	014H
	DB	0acH
	DB	01H
	DB	028H
	DB	07eH
	DB	00H
	DB	01eH
	DB	0ffH
	DB	014H
	DB	0b0H
	DB	01H
	DB	028H
	DB	06H
	DB	00H
	DB	02H
	DB	04H
	DB	090H
	DB	01H
	DB	021H
	DB	010H
	DB	0d6H
	DB	01H
	DB	04H
	DB	094H
	DB	01H
	DB	021H
	DB	010H
	DB	0d7H
	DB	01H
	DB	0cH
	DB	02dH
	DB	00H
	DB	090H
	DB	01H
	DB	021H
	DB	010H
	DB	0d8H
	DB	01H
	DB	0cH
	DB	02dH
	DB	00H
	DB	094H
	DB	01H
	DB	021H
	DB	010H
	DB	0d9H
	DB	01H
	DB	0ffH
	DB	014H
	DB	090H
	DB	01H
	DB	023H
	DB	0c0H
	DB	03fH
	DB	00H
	DB	040H
	DB	015H
	DB	014H
	DB	094H
	DB	01H
	DB	023H
	DB	0c0H
	DB	03fH
	DB	00H
	DB	040H
	DB	015H
	DB	0ffH
	DB	014H
	DB	098H
	DB	01H
	DB	024H
	DB	030H
	DB	00H
	DB	030H
	DB	014H
	DB	09cH
	DB	01H
	DB	024H
	DB	030H
	DB	00H
	DB	030H
	DB	014H
	DB	080H
	DB	01H
	DB	071H
	DB	080H
	DB	00H
	DB	00H
	DB	014H
	DB	080H
	DB	01H
	DB	091H
	DB	080H
	DB	00H
	DB	00H
	DB	014H
	DB	080H
	DB	01H
	DB	022H
	DB	08H
	DB	00H
	DB	00H
	DB	0ffH
	DB	04H
	DB	080H
	DB	01H
	DB	071H
	DB	010H
	DB	0daH
	DB	01H
	DB	04H
	DB	080H
	DB	01H
	DB	091H
	DB	010H
	DB	0dbH
	DB	01H
	DB	04H
	DB	080H
	DB	01H
	DB	022H
	DB	010H
	DB	0dcH
	DB	01H
	DB	0ffH
	DB	04H
	DB	070H
	DB	01H
	DB	012H
	DB	050H
	DB	032H
	DB	00H
	DB	00H
	DB	00H
	DB	0ddH
	DB	01H
	DB	014H
	DB	070H
	DB	01H
	DB	012H
	DB	010H
	DB	00H
	DB	010H
	DB	0ffH
	DB	014H
	DB	070H
	DB	01H
	DB	012H
	DB	0fH
	DB	040H
	DB	032H
	DB	00H
	DB	00H
	DB	00H
	DB	00H
	DB	014H
	DB	070H
	DB	01H
	DB	012H
	DB	010H
	DB	00H
	DB	010H
	DB	0ffH
	DB	014H
	DB	070H
	DB	01H
	DB	012H
	DB	010H
	DB	040H
	DB	032H
	DB	00H
	DB	00H
	DB	00H
	DB	00H
	DB	014H
	DB	070H
	DB	01H
	DB	012H
	DB	0fH
	DB	00H
	DB	00H
	DB	0ffH
	DB	010H
	DB	0cH
	DB	04H
	DB	07H
	DB	00H
	DB	01H
	DB	0ffH
	DB	0ffH
	DB	010H
	DB	0cH
	DB	04H
	DB	07H
	DB	00H
	DB	00H
	DB	0ffH
	DB	0ffH
	DB	04H
	DB	0a0H
	DB	01H
	DB	021H
	DB	010H
	DB	0deH
	DB	01H
	DB	0ffH
	DB	0ffH
	DB	0ffH
	DB	010H
	DB	0cH
	DB	04H
	DB	07H
	DB	00H
	DB	01H
	DB	0ffH
	DB	014H
	DB	070H
	DB	01H
	DB	014H
	DB	020H
	DB	00H
	DB	020H
	DB	0ffH
	DB	014H
	DB	070H
	DB	01H
	DB	014H
	DB	020H
	DB	00H
	DB	00H
	DB	0ffH
	DB	010H
	DB	0cH
	DB	04H
	DB	07H
	DB	00H
	DB	00H
	DB	0ffH
	DB	0ffH
	DB	0ffH
	DB	0ffH
	DB	0ffH
	DB	08H
	DB	07cH
	DB	01H
	DB	0ffH
	DB	0f3H
	DB	0c0H
	DB	0d1H
	DB	01bH
	DB	04H
	DB	068H
	DB	01H
	DB	011H
	DB	010H
	DB	0dfH
	DB	01H
	DB	00H
	DB	0a0H
	DB	012H
	DB	010H
	DB	0e0H
	DB	01H
	DB	04H
	DB	030H
	DB	01H
	DB	0fH
	DB	010H
	DB	0e1H
	DB	01H
	DB	08H
	DB	07cH
	DB	01H
	DB	0ffH
	DB	0f3H
	DB	0c0H
	DB	0a5H
	DB	01bH
	DB	0ffH
	DB	0ffH
	DB	014H
	DB	070H
	DB	01H
	DB	011H
	DB	0fH
	DB	040H
	DB	064H
	DB	00H
	DB	00H
	DB	00H
	DB	0fH
	DB	014H
	DB	070H
	DB	01H
	DB	011H
	DB	010H
	DB	040H
	DB	064H
	DB	00H
	DB	00H
	DB	00H
	DB	00H
	DB	0ffH
	DB	014H
	DB	070H
	DB	01H
	DB	011H
	DB	0fH
	DB	040H
	DB	064H
	DB	00H
	DB	00H
	DB	00H
	DB	0fH
	DB	014H
	DB	070H
	DB	01H
	DB	011H
	DB	010H
	DB	040H
	DB	064H
	DB	00H
	DB	00H
	DB	00H
	DB	010H
	DB	0ffH
	DB	014H
	DB	070H
	DB	01H
	DB	011H
	DB	0fH
	DB	040H
	DB	064H
	DB	00H
	DB	00H
	DB	00H
	DB	00H
	DB	014H
	DB	070H
	DB	01H
	DB	011H
	DB	010H
	DB	040H
	DB	064H
	DB	00H
	DB	00H
	DB	00H
	DB	010H
	DB	0ffH
	DB	010H
	DB	01cH
	DB	051H
	DB	01H
	DB	040H
	DB	064H
	DB	00H
	DB	00H
	DB	00H
	DB	00H
	DB	010H
	DB	01cH
	DB	051H
	DB	02H
	DB	040H
	DB	064H
	DB	00H
	DB	00H
	DB	00H
	DB	02H
	DB	0ffH
	DB	010H
	DB	01cH
	DB	051H
	DB	02H
	DB	040H
	DB	064H
	DB	00H
	DB	00H
	DB	00H
	DB	00H
	DB	010H
	DB	01cH
	DB	051H
	DB	01H
	DB	040H
	DB	064H
	DB	00H
	DB	00H
	DB	00H
	DB	01H
	DB	00H
	DB	0ffH
	DB	0ffH
	DB	020H
	DB	020H
	DB	0a1H
	DB	07H
	DB	00H
	DB	0ffH
	DB	014H
	DB	070H
	DB	01H
	DB	011H
	DB	01fH
	DB	040H
	DB	064H
	DB	00H
	DB	00H
	DB	00H
	DB	01fH
	DB	014H
	DB	070H
	DB	01H
	DB	011H
	DB	01fH
	DB	040H
	DB	088H
	DB	013H
	DB	00H
	DB	00H
	DB	0fH
	DB	0ffH
	DB	014H
	DB	070H
	DB	01H
	DB	011H
	DB	01fH
	DB	040H
	DB	064H
	DB	00H
	DB	00H
	DB	00H
	DB	010H
	DB	010H
	DB	01cH
	DB	081H
	DB	03H
	DB	040H
	DB	064H
	DB	00H
	DB	00H
	DB	00H
	DB	02H
	DB	00H
	DB	0ffH
	DB	0ffH
	DB	020H
	DB	064H
	DB	00H
	DB	00H
	DB	00H
	DB	010H
	DB	01cH
	DB	081H
	DB	03H
	DB	040H
	DB	064H
	DB	00H
	DB	00H
	DB	00H
	DB	01H
	DB	00H
	DB	0ffH
	DB	0ffH
	DB	020H
	DB	094H
	DB	011H
	DB	00H
	DB	00H
	DB	014H
	DB	070H
	DB	01H
	DB	011H
	DB	01fH
	DB	040H
	DB	064H
	DB	00H
	DB	00H
	DB	00H
	DB	01fH
	DB	014H
	DB	070H
	DB	01H
	DB	011H
	DB	01fH
	DB	040H
	DB	064H
	DB	00H
	DB	00H
	DB	00H
	DB	0fH
	DB	0ffH
	DB	054H
	DB	028H
	DB	071H
	DB	011H
	DB	02H
	DB	08H
	DB	0b0H
	DB	07dH
	DB	01H
	DB	050H
	DB	024H
	DB	012H
	DB	04H
	DB	01H
	DB	0b0H
	DB	07eH
	DB	01H
	DB	050H
	DB	01cH
	DB	012H
	DB	02H
	DB	08H
	DB	0b0H
	DB	07fH
	DB	01H
	DB	050H
	DB	024H
	DB	012H
	DB	04H
	DB	01eH
	DB	0b0H
	DB	080H
	DB	01H
	DB	014H
	DB	020H
	DB	01H
	DB	01H
	DB	07H
	DB	0b0H
	DB	081H
	DB	01H
	DB	0ffH
	DB	040H
	DB	01cH
	DB	012H
	DB	07H
	DB	010H
	DB	0e2H
	DB	01H
	DB	04H
	DB	020H
	DB	01H
	DB	01H
	DB	010H
	DB	0e3H
	DB	01H
	DB	0ffH
	DB	00H
	DB	0ffH
	DB	0f3H
	DB	0c0H
	DB	0d9H
	DB	039H
	DB	050H
	DB	0a0H
	DB	013H
	DB	04H
	DB	020H
	DB	0b0H
	DB	084H
	DB	01H
	DB	050H
	DB	0a4H
	DB	013H
	DB	02H
	DB	02H
	DB	0b0H
	DB	085H
	DB	01H
	DB	0ffH
	DB	04H
	DB	014H
	DB	01H
	DB	0fH
	DB	00H
	DB	0efH
	DB	0beH
	DB	0adH
	DB	0deH
	DB	04H
	DB	014H
	DB	01H
	DB	0fH
	DB	0b0H
	DB	086H
	DB	01H
	DB	0ffH
	DB	04H
	DB	088H
	DB	01H
	DB	0dbH
	DB	010H
	DB	0e4H
	DB	01H
	DB	04H
	DB	090H
	DB	01H
	DB	0dfH
	DB	01H
	DB	01H
	DB	01H
	DB	0aaH
	DB	0aaH
	DB	0aaH
	DB	0aaH
	DB	04H
	DB	098H
	DB	01H
	DB	0dfH
	DB	01H
	DB	01H
	DB	01H
	DB	0aaH
	DB	0aaH
	DB	0aaH
	DB	0aaH
	DB	04H
	DB	090H
	DB	01H
	DB	0dfH
	DB	01H
	DB	01H
	DB	02H
	DB	0aaH
	DB	0aaH
	DB	0aaH
	DB	0aaH
	DB	04H
	DB	098H
	DB	01H
	DB	0dfH
	DB	01H
	DB	01H
	DB	02H
	DB	0aaH
	DB	0aaH
	DB	0aaH
	DB	0aaH
	DB	0ffH
	DB	010H
	DB	048H
	DB	0d4H
	DB	01fH
	DB	00H
	DB	01H
	DB	010H
	DB	080H
	DB	0d1H
	DB	080H
	DB	00H
	DB	080H
	DB	010H
	DB	090H
	DB	0d1H
	DB	080H
	DB	00H
	DB	080H
	DB	010H
	DB	0a0H
	DB	0d1H
	DB	080H
	DB	00H
	DB	080H
	DB	010H
	DB	0b0H
	DB	0d1H
	DB	080H
	DB	00H
	DB	080H
	DB	010H
	DB	080H
	DB	0d1H
	DB	07fH
	DB	00H
	DB	01H
	DB	010H
	DB	090H
	DB	0d1H
	DB	07fH
	DB	00H
	DB	01H
	DB	010H
	DB	0a0H
	DB	0d1H
	DB	07fH
	DB	00H
	DB	01H
	DB	010H
	DB	0b0H
	DB	0d1H
	DB	07fH
	DB	00H
	DB	02H
	DB	00H
	DB	08cH
	DB	0dfH
	DB	010H
	DB	0e5H
	DB	01H
	DB	00H
	DB	09cH
	DB	0dfH
	DB	010H
	DB	0e6H
	DB	01H
	DB	00H
	DB	0acH
	DB	0dfH
	DB	010H
	DB	0e7H
	DB	01H
	DB	00H
	DB	0bcH
	DB	0dfH
	DB	010H
	DB	0e8H
	DB	01H
	DB	010H
	DB	080H
	DB	0dcH
	DB	0c0H
	DB	03H
	DB	00H
	DB	040H
	DB	02H
	DB	010H
	DB	090H
	DB	0dcH
	DB	0c0H
	DB	03H
	DB	00H
	DB	040H
	DB	02H
	DB	010H
	DB	0a0H
	DB	0dcH
	DB	0c0H
	DB	03H
	DB	00H
	DB	040H
	DB	02H
	DB	010H
	DB	0b0H
	DB	0dcH
	DB	0c0H
	DB	03H
	DB	00H
	DB	00H
	DB	02H
	DB	04H
	DB	084H
	DB	02H
	DB	0d8H
	DB	00H
	DB	0feH
	DB	010H
	DB	048H
	DB	0d8H
	DB	077H
	DB	00H
	DB	030H
	DB	0ffH
	DB	010H
	DB	080H
	DB	0dcH
	DB	0c0H
	DB	03H
	DB	00H
	DB	040H
	DB	02H
	DB	010H
	DB	090H
	DB	0dcH
	DB	0c0H
	DB	03H
	DB	00H
	DB	00H
	DB	02H
	DB	010H
	DB	0a0H
	DB	0dcH
	DB	0c0H
	DB	03H
	DB	00H
	DB	040H
	DB	02H
	DB	010H
	DB	0b0H
	DB	0dcH
	DB	0c0H
	DB	03H
	DB	00H
	DB	00H
	DB	02H
	DB	04H
	DB	084H
	DB	02H
	DB	0d8H
	DB	00H
	DB	0ffH
	DB	0ffH
	DB	00H
	DB	048H
	DB	0d8H
	DB	010H
	DB	0e9H
	DB	01H
	DB	00H
	DB	080H
	DB	0dcH
	DB	010H
	DB	0eaH
	DB	01H
	DB	00H
	DB	090H
	DB	0dcH
	DB	010H
	DB	0ebH
	DB	01H
	DB	00H
	DB	0a0H
	DB	0dcH
	DB	010H
	DB	0ecH
	DB	01H
	DB	00H
	DB	0b0H
	DB	0dcH
	DB	010H
	DB	0edH
	DB	01H
	DB	00H
	DB	08cH
	DB	0dfH
	DB	010H
	DB	0eeH
	DB	01H
	DB	00H
	DB	09cH
	DB	0dfH
	DB	010H
	DB	0efH
	DB	01H
	DB	00H
	DB	0acH
	DB	0dfH
	DB	010H
	DB	0f0H
	DB	01H
	DB	00H
	DB	0bcH
	DB	0dfH
	DB	010H
	DB	0f1H
	DB	01H
	DB	0ffH
	DB	04H
	DB	00H
	DB	01H
	DB	0fH
	DB	00H
	DB	00H
	DB	00H
	DB	00H
	DB	00H
	DB	04H
	DB	04H
	DB	01H
	DB	0fH
	DB	00H
	DB	00H
	DB	00H
	DB	00H
	DB	00H
	DB	0ffH
	DB	04H
	DB	00H
	DB	01H
	DB	0fH
	DB	0b0H
	DB	08eH
	DB	01H
	DB	04H
	DB	04H
	DB	01H
	DB	0fH
	DB	0b0H
	DB	08fH
	DB	01H
	DB	0ffH
	DB	04H
	DB	088H
	DB	02H
	DB	0dfH
	DB	00H
	DB	0ffH
	DB	0ffH
	DB	0ffH
	DB	0ffH
	DB	04H
	DB	08cH
	DB	02H
	DB	0dfH
	DB	00H
	DB	0ffH
	DB	0ffH
	DB	0ffH
	DB	0ffH
	DB	0cH
	DB	086H
	DB	00H
	DB	08cH
	DB	02H
	DB	0dfH
	DB	00H
	DB	00H
	DB	00H
	DB	00H
	DB	00H
	DB	04H
	DB	090H
	DB	02H
	DB	0d1H
	DB	010H
	DB	0f2H
	DB	01H
	DB	04H
	DB	084H
	DB	02H
	DB	0dcH
	DB	00H
	DB	0ffH
	DB	0ffH
	DB	00H
	DB	0c8H
	DB	013H
	DB	00H
	DB	00H
	DB	00H
	DB	014H
	DB	070H
	DB	01H
	DB	014H
	DB	080H
	DB	00H
	DB	00H
	DB	010H
	DB	00H
	DB	01H
	DB	080H
	DB	00H
	DB	080H
	DB	04H
	DB	088H
	DB	01H
	DB	0d2H
	DB	010H
	DB	0f3H
	DB	01H
	DB	04H
	DB	0b8H
	DB	01H
	DB	0dfH
	DB	00H
	DB	0ffH
	DB	0ffH
	DB	0ffH
	DB	0ffH
	DB	014H
	DB	0bcH
	DB	01H
	DB	0d1H
	DB	0fH
	DB	00H
	DB	0fH
	DB	014H
	DB	0acH
	DB	01H
	DB	0d8H
	DB	080H
	DB	00H
	DB	00H
	DB	014H
	DB	08cH
	DB	01H
	DB	0d7H
	DB	01cH
	DB	01cH
	DB	01cH
	DB	00H
	DB	018H
	DB	018H
	DB	018H
	DB	010H
	DB	048H
	DB	0d2H
	DB	07cH
	DB	00H
	DB	010H
	DB	010H
	DB	04cH
	DB	0d3H
	DB	0ffH
	DB	03H
	DB	00H
	DB	00H
	DB	00H
	DB	00H
	DB	084H
	DB	0d1H
	DB	010H
	DB	0f4H
	DB	01H
	DB	00H
	DB	094H
	DB	0d1H
	DB	010H
	DB	0f5H
	DB	01H
	DB	00H
	DB	0a4H
	DB	0d1H
	DB	010H
	DB	0f6H
	DB	01H
	DB	00H
	DB	0b4H
	DB	0d1H
	DB	010H
	DB	0f7H
	DB	01H
	DB	014H
	DB	084H
	DB	02H
	DB	0dfH
	DB	03fH
	DB	030H
	DB	0ffH
	DB	0ffH
	DB	00H
	DB	00H
	DB	020H
	DB	0ffH
	DB	0ffH
	DB	014H
	DB	04H
	DB	01H
	DB	0dbH
	DB	0ffH
	DB	03fH
	DB	060H
	DB	00H
	DB	00H
	DB	00H
	DB	00H
	DB	010H
	DB	080H
	DB	0d8H
	DB	08H
	DB	00H
	DB	08H
	DB	010H
	DB	090H
	DB	0d8H
	DB	08H
	DB	00H
	DB	08H
	DB	010H
	DB	0a0H
	DB	0d8H
	DB	08H
	DB	00H
	DB	08H
	DB	010H
	DB	0b0H
	DB	0d8H
	DB	08H
	DB	00H
	DB	08H
	DB	010H
	DB	048H
	DB	0d1H
	DB	01H
	DB	00H
	DB	01H
	DB	010H
	DB	08cH
	DB	0dfH
	DB	0ffH
	DB	0ffH
	DB	0ffH
	DB	07fH
	DB	00H
	DB	00H
	DB	00H
	DB	00H
	DB	00H
	DB	010H
	DB	088H
	DB	0dfH
	DB	0ffH
	DB	0ffH
	DB	0ffH
	DB	03fH
	DB	00H
	DB	00H
	DB	00H
	DB	0aH
	DB	06H
	DB	010H
	DB	09cH
	DB	0dfH
	DB	0ffH
	DB	0ffH
	DB	0ffH
	DB	07fH
	DB	00H
	DB	00H
	DB	00H
	DB	00H
	DB	00H
	DB	010H
	DB	098H
	DB	0dfH
	DB	0ffH
	DB	0ffH
	DB	0ffH
	DB	03fH
	DB	00H
	DB	00H
	DB	00H
	DB	0aH
	DB	06H
	DB	010H
	DB	0acH
	DB	0dfH
	DB	0ffH
	DB	0ffH
	DB	0ffH
	DB	07fH
	DB	00H
	DB	00H
	DB	00H
	DB	00H
	DB	00H
	DB	010H
	DB	0a8H
	DB	0dfH
	DB	0ffH
	DB	0ffH
	DB	0ffH
	DB	03fH
	DB	00H
	DB	00H
	DB	00H
	DB	0aH
	DB	06H
	DB	010H
	DB	0bcH
	DB	0dfH
	DB	0ffH
	DB	0ffH
	DB	0ffH
	DB	07fH
	DB	00H
	DB	00H
	DB	00H
	DB	00H
	DB	00H
	DB	010H
	DB	0b8H
	DB	0dfH
	DB	0ffH
	DB	0ffH
	DB	0ffH
	DB	03fH
	DB	00H
	DB	00H
	DB	00H
	DB	0aH
	DB	06H
	DB	010H
	DB	080H
	DB	0d1H
	DB	080H
	DB	00H
	DB	00H
	DB	010H
	DB	090H
	DB	0d1H
	DB	080H
	DB	00H
	DB	00H
	DB	010H
	DB	0a0H
	DB	0d1H
	DB	080H
	DB	00H
	DB	00H
	DB	010H
	DB	0b0H
	DB	0d1H
	DB	080H
	DB	00H
	DB	00H
	DB	0ffH
	DB	014H
	DB	0ccH
	DB	02H
	DB	021H
	DB	04H
	DB	00H
	DB	00H
	DB	014H
	DB	080H
	DB	01H
	DB	021H
	DB	02H
	DB	00H
	DB	00H
	DB	00H
	DB	0ffH
	DB	0ffH
	DB	020H
	DB	064H
	DB	00H
	DB	00H
	DB	00H
	DB	0ffH
	DB	014H
	DB	080H
	DB	01H
	DB	081H
	DB	02H
	DB	00H
	DB	00H
	DB	0ffH
	DB	014H
	DB	0ccH
	DB	02H
	DB	021H
	DB	04H
	DB	00H
	DB	04H
	DB	014H
	DB	080H
	DB	01H
	DB	021H
	DB	02H
	DB	00H
	DB	02H
	DB	00H
	DB	0ffH
	DB	0ffH
	DB	020H
	DB	010H
	DB	027H
	DB	00H
	DB	00H
	DB	0ffH
	DB	014H
	DB	080H
	DB	01H
	DB	081H
	DB	02H
	DB	00H
	DB	02H
	DB	0ffH
	DB	00H
	DB	0ffH
	DB	0f3H
	DB	0c0H
	DB	0a5H
	DB	03cH
	DB	00H
	DB	0ffH
	DB	0f3H
	DB	0c0H
	DB	0c4H
	DB	03cH
	DB	0ffH
	DB	04H
	DB	058H
	DB	01H
	DB	01fH
	DB	0b0H
	DB	090H
	DB	01H
	DB	04H
	DB	074H
	DB	01H
	DB	01fH
	DB	0b0H
	DB	091H
	DB	01H
	DB	00H
	DB	0b4H
	DB	01fH
	DB	0b0H
	DB	092H
	DB	01H
	DB	04H
	DB	048H
	DB	01H
	DB	01fH
	DB	0b0H
	DB	093H
	DB	01H
	DB	04H
	DB	04cH
	DB	01H
	DB	01fH
	DB	0b0H
	DB	094H
	DB	01H
	DB	04H
	DB	050H
	DB	01H
	DB	01fH
	DB	0b0H
	DB	095H
	DB	01H
	DB	04H
	DB	054H
	DB	01H
	DB	01fH
	DB	0b0H
	DB	096H
	DB	01H
	DB	00H
	DB	00H
	DB	0fH
	DB	0b0H
	DB	097H
	DB	01H
	DB	00H
	DB	04H
	DB	0fH
	DB	0b0H
	DB	098H
	DB	01H
	DB	04H
	DB	078H
	DB	01H
	DB	01fH
	DB	0b0H
	DB	099H
	DB	01H
	DB	00H
	DB	0cH
	DB	0fH
	DB	0b0H
	DB	09aH
	DB	01H
	DB	04H
	DB	080H
	DB	01H
	DB	01fH
	DB	0b0H
	DB	09bH
	DB	01H
	DB	00H
	DB	0b0H
	DB	01fH
	DB	0b0H
	DB	09cH
	DB	01H
	DB	04H
	DB	070H
	DB	01H
	DB	01fH
	DB	0b0H
	DB	09dH
	DB	01H
	DB	00H
	DB	018H
	DB	0fH
	DB	0b0H
	DB	09eH
	DB	01H
	DB	00H
	DB	010H
	DB	0fH
	DB	0b0H
	DB	09fH
	DB	01H
	DB	00H
	DB	03cH
	DB	01fH
	DB	0b0H
	DB	0a0H
	DB	01H
	DB	00H
	DB	044H
	DB	01fH
	DB	0b0H
	DB	0a1H
	DB	01H
	DB	00H
	DB	048H
	DB	01fH
	DB	0b0H
	DB	0a2H
	DB	01H
	DB	0ffH
	DB	00H
	DB	0ffH
	DB	0f3H
	DB	0c0H
	DB	0d1H
	DB	01bH
	DB	04H
	DB	058H
	DB	01H
	DB	01fH
	DB	010H
	DB	0f8H
	DB	01H
	DB	04H
	DB	074H
	DB	01H
	DB	01fH
	DB	010H
	DB	0f9H
	DB	01H
	DB	00H
	DB	0b4H
	DB	01fH
	DB	010H
	DB	0faH
	DB	01H
	DB	04H
	DB	048H
	DB	01H
	DB	01fH
	DB	010H
	DB	0fbH
	DB	01H
	DB	04H
	DB	04cH
	DB	01H
	DB	01fH
	DB	010H
	DB	0fcH
	DB	01H
	DB	04H
	DB	050H
	DB	01H
	DB	01fH
	DB	010H
	DB	0fdH
	DB	01H
	DB	04H
	DB	054H
	DB	01H
	DB	01fH
	DB	010H
	DB	0feH
	DB	01H
	DB	00H
	DB	04H
	DB	0fH
	DB	010H
	DB	0ffH
	DB	01H
	DB	04H
	DB	078H
	DB	01H
	DB	01fH
	DB	010H
	DB	00H
	DB	02H
	DB	00H
	DB	0cH
	DB	0fH
	DB	010H
	DB	01H
	DB	02H
	DB	04H
	DB	080H
	DB	01H
	DB	01fH
	DB	010H
	DB	02H
	DB	02H
	DB	00H
	DB	0b0H
	DB	01fH
	DB	010H
	DB	03H
	DB	02H
	DB	04H
	DB	070H
	DB	01H
	DB	01fH
	DB	010H
	DB	04H
	DB	02H
	DB	00H
	DB	018H
	DB	0fH
	DB	010H
	DB	05H
	DB	02H
	DB	00H
	DB	010H
	DB	0fH
	DB	010H
	DB	06H
	DB	02H
	DB	00H
	DB	03cH
	DB	01fH
	DB	010H
	DB	07H
	DB	02H
	DB	00H
	DB	044H
	DB	01fH
	DB	010H
	DB	08H
	DB	02H
	DB	00H
	DB	048H
	DB	01fH
	DB	010H
	DB	09H
	DB	02H
	DB	00H
	DB	00H
	DB	0fH
	DB	010H
	DB	0aH
	DB	02H
	DB	0ffH
	DB	00H
	DB	0ffH
	DB	0f3H
	DB	0c0H
	DB	0d1H
	DB	01bH
	DB	014H
	DB	058H
	DB	01H
	DB	011H
	DB	0fH
	DB	00H
	DB	0fH
	DB	04H
	DB	074H
	DB	01H
	DB	01fH
	DB	010H
	DB	0bH
	DB	02H
	DB	00H
	DB	0b4H
	DB	011H
	DB	010H
	DB	0cH
	DB	02H
	DB	04H
	DB	048H
	DB	01H
	DB	01fH
	DB	010H
	DB	0dH
	DB	02H
	DB	04H
	DB	04cH
	DB	01H
	DB	01fH
	DB	010H
	DB	0eH
	DB	02H
	DB	04H
	DB	050H
	DB	01H
	DB	01fH
	DB	010H
	DB	0fH
	DB	02H
	DB	014H
	DB	054H
	DB	01H
	DB	01fH
	DB	0ffH
	DB	0ffH
	DB	0ffH
	DB	0fH
	DB	00H
	DB	010H
	DB	032H
	DB	054H
	DB	06H
	DB	00H
	DB	0ffH
	DB	0f3H
	DB	0c0H
	DB	0a5H
	DB	01bH
	DB	010H
	DB	00H
	DB	01H
	DB	090H
	DB	00H
	DB	00H
	DB	010H
	DB	04H
	DB	03H
	DB	0ffH
	DB	07H
	DB	00H
	DB	00H
	DB	00H
	DB	014H
	DB	078H
	DB	01H
	DB	014H
	DB	03fH
	DB	00H
	DB	0cH
	DB	010H
	DB	0cH
	DB	04H
	DB	037H
	DB	00H
	DB	01H
	DB	014H
	DB	080H
	DB	01H
	DB	01fH
	DB	0ffH
	DB	0ffH
	DB	03H
	DB	02H
	DB	00H
	DB	00H
	DB	00H
	DB	00H
	DB	00H
	DB	010H
	DB	0b0H
	DB	018H
	DB	080H
	DB	00H
	DB	00H
	DB	014H
	DB	070H
	DB	01H
	DB	014H
	DB	080H
	DB	00H
	DB	00H
	DB	010H
	DB	018H
	DB	07H
	DB	0ffH
	DB	0ffH
	DB	01H
	DB	00H
	DB	00H
	DB	00H
	DB	00H
	DB	018H
	DB	0adH
	DB	01H
	DB	010H
	DB	07H
	DB	0ffH
	DB	0ffH
	DB	0fH
	DB	00H
	DB	066H
	DB	06H
	DB	00H
	DB	018H
	DB	0adH
	DB	01H
	DB	018H
	DB	04H
	DB	07eH
	DB	00H
	DB	06H
	DB	018H
	DB	0adH
	DB	01H
	DB	018H
	DB	07H
	DB	0ffH
	DB	0ffH
	DB	01H
	DB	04H
	DB	05H
	DB	01H
	DB	030H
	DB	0cH
	DB	00H
	DB	02H
	DB	038H
	DB	0eH
	DB	00H
	DB	04H
	DB	040H
	DB	010H
	DB	00H
	DB	08H
	DB	048H
	DB	012H
	DB	00H
	DB	010H
	DB	050H
	DB	014H
	DB	00H
	DB	010H
	DB	03cH
	DB	013H
	DB	0ffH
	DB	0cfH
	DB	00H
	DB	0ffH
	DB	04fH
	DB	00H
	DB	044H
	DB	01fH
	DB	00H
	DB	00H
	DB	00H
	DB	01H
	DB	00H
	DB	00H
	DB	048H
	DB	01fH
	DB	00H
	DB	00H
	DB	00H
	DB	01H
	DB	00H
	DB	00H
	DB	04cH
	DB	01fH
	DB	0b0H
	DB	0aeH
	DB	01H
	DB	00H
	DB	058H
	DB	01fH
	DB	0b0H
	DB	0afH
	DB	01H
	DB	00H
	DB	05cH
	DB	01fH
	DB	0b0H
	DB	0b0H
	DB	01H
	DB	0ffH
	DB	014H
	DB	04H
	DB	01H
	DB	0dbH
	DB	0ffH
	DB	03fH
	DB	060H
	DB	00H
	DB	00H
	DB	00H
	DB	00H
	DB	014H
	DB	0acH
	DB	01H
	DB	0ddH
	DB	0ffH
	DB	01fH
	DB	0c0H
	DB	00H
	DB	00H
	DB	00H
	DB	040H
	DB	04H
	DB	0b0H
	DB	01H
	DB	0dfH
	DB	00H
	DB	00H
	DB	00H
	DB	00H
	DB	00H
	DB	04H
	DB	0b4H
	DB	01H
	DB	0dfH
	DB	00H
	DB	00H
	DB	00H
	DB	00H
	DB	00H
	DB	04H
	DB	0b8H
	DB	01H
	DB	0dfH
	DB	00H
	DB	0ffH
	DB	0ffH
	DB	0ffH
	DB	0ffH
	DB	014H
	DB	0bcH
	DB	01H
	DB	0d1H
	DB	0fH
	DB	00H
	DB	0fH
	DB	04H
	DB	00H
	DB	02H
	DB	0d3H
	DB	00H
	DB	0aaH
	DB	0ccH
	DB	04H
	DB	04H
	DB	02H
	DB	0d3H
	DB	00H
	DB	0aaH
	DB	0ccH
	DB	04H
	DB	08H
	DB	02H
	DB	0d3H
	DB	00H
	DB	0aaH
	DB	0ccH
	DB	04H
	DB	0cH
	DB	02H
	DB	0d3H
	DB	00H
	DB	0aaH
	DB	0ccH
	DB	04H
	DB	010H
	DB	02H
	DB	0d3H
	DB	00H
	DB	0aaH
	DB	0ccH
	DB	04H
	DB	014H
	DB	02H
	DB	0d3H
	DB	00H
	DB	0aaH
	DB	0ccH
	DB	04H
	DB	018H
	DB	02H
	DB	0d3H
	DB	00H
	DB	0aaH
	DB	0ccH
	DB	04H
	DB	01cH
	DB	02H
	DB	0d3H
	DB	00H
	DB	0aaH
	DB	0ccH
	DB	04H
	DB	020H
	DB	02H
	DB	0d3H
	DB	00H
	DB	0aaH
	DB	0ccH
	DB	04H
	DB	024H
	DB	02H
	DB	0d3H
	DB	00H
	DB	0aaH
	DB	0ccH
	DB	04H
	DB	028H
	DB	02H
	DB	0d3H
	DB	00H
	DB	0aaH
	DB	0ccH
	DB	04H
	DB	02cH
	DB	02H
	DB	0d3H
	DB	00H
	DB	0aaH
	DB	0ccH
	DB	04H
	DB	030H
	DB	02H
	DB	0d3H
	DB	00H
	DB	0aaH
	DB	0ccH
	DB	04H
	DB	034H
	DB	02H
	DB	0d3H
	DB	00H
	DB	0aaH
	DB	0ccH
	DB	04H
	DB	038H
	DB	02H
	DB	0d3H
	DB	00H
	DB	0aaH
	DB	0ccH
	DB	04H
	DB	03cH
	DB	02H
	DB	0d3H
	DB	00H
	DB	0aaH
	DB	0ccH
	DB	014H
	DB	0acH
	DB	02H
	DB	0d1H
	DB	01H
	DB	00H
	DB	00H
	DB	014H
	DB	084H
	DB	01H
	DB	0d1H
	DB	07fH
	DB	00H
	DB	00H
	DB	04H
	DB	088H
	DB	01H
	DB	0dfH
	DB	010H
	DB	010H
	DB	02H
	DB	014H
	DB	084H
	DB	02H
	DB	0deH
	DB	030H
	DB	0ffH
	DB	0ffH
	DB	00H
	DB	00H
	DB	0ffH
	DB	0ffH
	DB	04H
	DB	088H
	DB	02H
	DB	0dfH
	DB	00H
	DB	0ffH
	DB	0ffH
	DB	0ffH
	DB	0ffH
	DB	04H
	DB	08cH
	DB	02H
	DB	0dfH
	DB	00H
	DB	0ffH
	DB	0ffH
	DB	0ffH
	DB	0ffH
	DB	0cH
	DB	086H
	DB	00H
	DB	08cH
	DB	02H
	DB	0dfH
	DB	00H
	DB	00H
	DB	00H
	DB	00H
	DB	00H
	DB	04H
	DB	090H
	DB	02H
	DB	0d1H
	DB	010H
	DB	011H
	DB	02H
	DB	04H
	DB	090H
	DB	01H
	DB	0dfH
	DB	010H
	DB	012H
	DB	02H
	DB	04H
	DB	098H
	DB	01H
	DB	0dfH
	DB	010H
	DB	013H
	DB	02H
	DB	010H
	DB	048H
	DB	0d3H
	DB	01H
	DB	070H
	DB	00H
	DB	01H
	DB	010H
	DB	0ffH
	DB	00H
	DB	080H
	DB	0dfH
	DB	010H
	DB	014H
	DB	02H
	DB	010H
	DB	084H
	DB	0d7H
	DB	03H
	DB	08fH
	DB	0e0H
	DB	00H
	DB	01H
	DB	00H
	DB	00H
	DB	00H
	DB	088H
	DB	0dfH
	DB	010H
	DB	015H
	DB	02H
	DB	00H
	DB	08cH
	DB	0dfH
	DB	010H
	DB	016H
	DB	02H
	DB	00H
	DB	090H
	DB	0dfH
	DB	010H
	DB	017H
	DB	02H
	DB	010H
	DB	094H
	DB	0d7H
	DB	03H
	DB	08fH
	DB	0e0H
	DB	00H
	DB	01H
	DB	00H
	DB	00H
	DB	00H
	DB	098H
	DB	0dfH
	DB	010H
	DB	018H
	DB	02H
	DB	00H
	DB	09cH
	DB	0dfH
	DB	010H
	DB	019H
	DB	02H
	DB	014H
	DB	084H
	DB	01H
	DB	0d6H
	DB	07H
	DB	07H
	DB	00H
	DB	01H
	DB	01H
	DB	010H
	DB	048H
	DB	0ddH
	DB	08H
	DB	01fH
	DB	077H
	DB	00H
	DB	00H
	DB	01H
	DB	010H
	DB	0ffH
	DB	00H
	DB	0a0H
	DB	0d1H
	DB	010H
	DB	01aH
	DB	02H
	DB	010H
	DB	048H
	DB	0d4H
	DB	01fH
	DB	00H
	DB	01H
	DB	00H
	DB	0a8H
	DB	0dcH
	DB	010H
	DB	01bH
	DB	02H
	DB	0ffH
	DB	00H
	DB	0a0H
	DB	0d1H
	DB	010H
	DB	01cH
	DB	02H
	DB	010H
	DB	048H
	DB	0d4H
	DB	01fH
	DB	00H
	DB	00H
	DB	00H
	DB	0a8H
	DB	0dcH
	DB	010H
	DB	01dH
	DB	02H
	DB	0ffH
	DB	00H
	DB	0a0H
	DB	0dfH
	DB	010H
	DB	01eH
	DB	02H
	DB	010H
	DB	0a4H
	DB	0d7H
	DB	03H
	DB	08fH
	DB	0e0H
	DB	00H
	DB	01H
	DB	00H
	DB	00H
	DB	010H
	DB	0a8H
	DB	0d7H
	DB	0ffH
	DB	0ffH
	DB	0fH
	DB	00H
	DB	00H
	DB	00H
	DB	0aH
	DB	00H
	DB	0acH
	DB	0dfH
	DB	010H
	DB	01fH
	DB	02H
	DB	014H
	DB	084H
	DB	01H
	DB	0d6H
	DB	07H
	DB	07H
	DB	00H
	DB	00H
	DB	00H
	DB	010H
	DB	048H
	DB	0d9H
	DB	08H
	DB	077H
	DB	00H
	DB	00H
	DB	022H
	DB	0ffH
	DB	00H
	DB	04cH
	DB	01fH
	DB	0b0H
	DB	0aeH
	DB	01H
	DB	00H
	DB	058H
	DB	01fH
	DB	0b0H
	DB	0afH
	DB	01H
	DB	00H
	DB	05cH
	DB	01fH
	DB	0b0H
	DB	0b0H
	DB	01H
	DB	0ffH
	DB	014H
	DB	084H
	DB	02H
	DB	0d1H
	DB	03fH
	DB	00H
	DB	00H
	DB	010H
	DB	044H
	DB	0d1H
	DB	07H
	DB	00H
	DB	07H
	DB	0ffH
	DB	010H
	DB	044H
	DB	0d1H
	DB	02H
	DB	040H
	DB	0aH
	DB	00H
	DB	00H
	DB	00H
	DB	02H
	DB	014H
	DB	0a4H
	DB	02H
	DB	0d2H
	DB	01H
	DB	0b0H
	DB	063H
	DB	01H
	DB	04H
	DB	0a4H
	DB	02H
	DB	0d1H
	DB	0b0H
	DB	064H
	DB	01H
	DB	0ffH
	DB	010H
	DB	044H
	DB	0d1H
	DB	04H
	DB	00H
	DB	04H
	DB	0ffH
	DB	040H
	DB	010H
	DB	014H
	DB	08H
	DB	010H
	DB	020H
	DB	02H
	DB	040H
	DB	014H
	DB	014H
	DB	08H
	DB	010H
	DB	021H
	DB	02H
	DB	040H
	DB	020H
	DB	014H
	DB	08H
	DB	010H
	DB	022H
	DB	02H
	DB	040H
	DB	024H
	DB	014H
	DB	08H
	DB	010H
	DB	023H
	DB	02H
	DB	0ffH
	DB	00H
	DB	018H
	DB	0fH
	DB	0b0H
	DB	09eH
	DB	01H
	DB	00H
	DB	0cH
	DB	0fH
	DB	0b0H
	DB	099H
	DB	01H
	DB	014H
	DB	070H
	DB	01H
	DB	014H
	DB	080H
	DB	0b0H
	DB	09dH
	DB	01H
	DB	00H
	DB	018H
	DB	0fH
	DB	00H
	DB	00H
	DB	00H
	DB	00H
	DB	00H
	DB	010H
	DB	0cH
	DB	04H
	DB	07H
	DB	00H
	DB	00H
	DB	014H
	DB	070H
	DB	01H
	DB	014H
	DB	080H
	DB	00H
	DB	00H
	DB	00H
	DB	0ffH
	DB	0f3H
	DB	0c0H
	DB	0a5H
	DB	01bH
	DB	0ffH
	DB	00H
	DB	018H
	DB	0fH
	DB	010H
	DB	024H
	DB	02H
	DB	00H
	DB	0cH
	DB	0fH
	DB	010H
	DB	025H
	DB	02H
	DB	04H
	DB	070H
	DB	01H
	DB	014H
	DB	010H
	DB	026H
	DB	02H
	DB	00H
	DB	0ffH
	DB	0f3H
	DB	0c0H
	DB	0d1H
	DB	01bH
	DB	0ffH
	DB	04H
	DB	088H
	DB	02H
	DB	0dfH
	DB	00H
	DB	0ffH
	DB	0ffH
	DB	0ffH
	DB	0ffH
	DB	04H
	DB	08cH
	DB	02H
	DB	0dfH
	DB	00H
	DB	0ffH
	DB	0ffH
	DB	0ffH
	DB	0ffH
	DB	0cH
	DB	086H
	DB	00H
	DB	08cH
	DB	02H
	DB	0dfH
	DB	00H
	DB	00H
	DB	00H
	DB	00H
	DB	00H
	DB	04H
	DB	090H
	DB	02H
	DB	0d1H
	DB	010H
	DB	027H
	DB	02H
	DB	014H
	DB	084H
	DB	02H
	DB	0dfH
	DB	03fH
	DB	030H
	DB	0ffH
	DB	0ffH
	DB	00H
	DB	00H
	DB	020H
	DB	0ffH
	DB	0ffH
	DB	014H
	DB	04H
	DB	01H
	DB	0dbH
	DB	0ffH
	DB	03fH
	DB	060H
	DB	00H
	DB	00H
	DB	00H
	DB	00H
	DB	014H
	DB	0acH
	DB	01H
	DB	0ddH
	DB	0ffH
	DB	01fH
	DB	0c0H
	DB	00H
	DB	00H
	DB	010H
	DB	040H
	DB	04H
	DB	0b8H
	DB	01H
	DB	0dfH
	DB	00H
	DB	0ffH
	DB	0ffH
	DB	0ffH
	DB	0ffH
	DB	014H
	DB	0bcH
	DB	01H
	DB	0d1H
	DB	0fH
	DB	00H
	DB	0fH
	DB	014H
	DB	0acH
	DB	02H
	DB	0d1H
	DB	01H
	DB	00H
	DB	00H
	DB	014H
	DB	084H
	DB	01H
	DB	0d7H
	DB	07fH
	DB	07H
	DB	07H
	DB	00H
	DB	00H
	DB	00H
	DB	00H
	DB	04H
	DB	088H
	DB	01H
	DB	0dfH
	DB	010H
	DB	028H
	DB	02H
	DB	014H
	DB	084H
	DB	02H
	DB	0deH
	DB	030H
	DB	0ffH
	DB	0ffH
	DB	00H
	DB	00H
	DB	0ffH
	DB	0ffH
	DB	04H
	DB	088H
	DB	02H
	DB	0dfH
	DB	00H
	DB	0ffH
	DB	0ffH
	DB	0ffH
	DB	0ffH
	DB	04H
	DB	08cH
	DB	02H
	DB	0dfH
	DB	00H
	DB	0ffH
	DB	0ffH
	DB	0ffH
	DB	0ffH
	DB	0cH
	DB	086H
	DB	00H
	DB	08cH
	DB	02H
	DB	0dfH
	DB	00H
	DB	00H
	DB	00H
	DB	00H
	DB	00H
	DB	04H
	DB	090H
	DB	02H
	DB	0d1H
	DB	010H
	DB	029H
	DB	02H
	DB	010H
	DB	048H
	DB	0d2H
	DB	070H
	DB	00H
	DB	010H
	DB	010H
	DB	080H
	DB	0dfH
	DB	0ffH
	DB	0ffH
	DB	03fH
	DB	088H
	DB	00H
	DB	081H
	DB	00H
	DB	00H
	DB	08H
	DB	010H
	DB	084H
	DB	0d7H
	DB	03H
	DB	08fH
	DB	0e0H
	DB	00H
	DB	01H
	DB	00H
	DB	00H
	DB	010H
	DB	088H
	DB	0dfH
	DB	0ffH
	DB	0ffH
	DB	0ffH
	DB	03fH
	DB	00H
	DB	00H
	DB	00H
	DB	0aH
	DB	06H
	DB	010H
	DB	048H
	DB	0ddH
	DB	09H
	DB	01fH
	DB	077H
	DB	00H
	DB	01H
	DB	01H
	DB	00H
	DB	04H
	DB	00H
	DB	02H
	DB	0d1H
	DB	00H
	DB	0aaH
	DB	04H
	DB	04H
	DB	02H
	DB	0d1H
	DB	00H
	DB	0aaH
	DB	04H
	DB	08H
	DB	02H
	DB	0d1H
	DB	00H
	DB	0aaH
	DB	04H
	DB	0cH
	DB	02H
	DB	0d1H
	DB	00H
	DB	0aaH
	DB	04H
	DB	010H
	DB	02H
	DB	0d1H
	DB	00H
	DB	0aaH
	DB	04H
	DB	014H
	DB	02H
	DB	0d1H
	DB	00H
	DB	0aaH
	DB	04H
	DB	018H
	DB	02H
	DB	0d1H
	DB	00H
	DB	0aaH
	DB	04H
	DB	01cH
	DB	02H
	DB	0d1H
	DB	00H
	DB	0aaH
	DB	04H
	DB	020H
	DB	02H
	DB	0d1H
	DB	00H
	DB	0aaH
	DB	04H
	DB	024H
	DB	02H
	DB	0d1H
	DB	00H
	DB	0aaH
	DB	04H
	DB	028H
	DB	02H
	DB	0d1H
	DB	00H
	DB	0aaH
	DB	04H
	DB	02cH
	DB	02H
	DB	0d1H
	DB	00H
	DB	0aaH
	DB	04H
	DB	030H
	DB	02H
	DB	0d1H
	DB	00H
	DB	0aaH
	DB	04H
	DB	034H
	DB	02H
	DB	0d1H
	DB	00H
	DB	0aaH
	DB	04H
	DB	038H
	DB	02H
	DB	0d1H
	DB	00H
	DB	0aaH
	DB	04H
	DB	03cH
	DB	02H
	DB	0d1H
	DB	00H
	DB	0aaH
	DB	014H
	DB	050H
	DB	01H
	DB	018H
	DB	03eH
	DB	0b0H
	DB	0c6H
	DB	01H
	DB	014H
	DB	050H
	DB	01H
	DB	01cH
	DB	0f0H
	DB	01H
	DB	0b0H
	DB	0c7H
	DB	01H
	DB	014H
	DB	050H
	DB	01H
	DB	016H
	DB	080H
	DB	0fH
	DB	0b0H
	DB	0c8H
	DB	01H
	DB	014H
	DB	050H
	DB	01H
	DB	012H
	DB	07cH
	DB	0b0H
	DB	0c9H
	DB	01H
	DB	014H
	DB	050H
	DB	01H
	DB	013H
	DB	0e0H
	DB	03H
	DB	0b0H
	DB	0caH
	DB	01H
	DB	014H
	DB	050H
	DB	01H
	DB	011H
	DB	01fH
	DB	0b0H
	DB	0cbH
	DB	01H
	DB	014H
	DB	04cH
	DB	01H
	DB	018H
	DB	03eH
	DB	0b0H
	DB	0ccH
	DB	01H
	DB	014H
	DB	04cH
	DB	01H
	DB	01cH
	DB	0f0H
	DB	01H
	DB	0b0H
	DB	0cdH
	DB	01H
	DB	014H
	DB	04cH
	DB	01H
	DB	016H
	DB	080H
	DB	0fH
	DB	0b0H
	DB	0ceH
	DB	01H
	DB	014H
	DB	04cH
	DB	01H
	DB	012H
	DB	07cH
	DB	0b0H
	DB	0cfH
	DB	01H
	DB	014H
	DB	04cH
	DB	01H
	DB	013H
	DB	0e0H
	DB	03H
	DB	0b0H
	DB	0d0H
	DB	01H
	DB	014H
	DB	04cH
	DB	01H
	DB	011H
	DB	01fH
	DB	0b0H
	DB	0d1H
	DB	01H
	DB	014H
	DB	048H
	DB	01H
	DB	018H
	DB	03eH
	DB	0b0H
	DB	0d2H
	DB	01H
	DB	014H
	DB	048H
	DB	01H
	DB	01cH
	DB	0f0H
	DB	01H
	DB	0b0H
	DB	0d3H
	DB	01H
	DB	014H
	DB	048H
	DB	01H
	DB	016H
	DB	080H
	DB	0fH
	DB	0b0H
	DB	0d4H
	DB	01H
	DB	014H
	DB	048H
	DB	01H
	DB	012H
	DB	07cH
	DB	0b0H
	DB	0d5H
	DB	01H
	DB	014H
	DB	048H
	DB	01H
	DB	013H
	DB	0e0H
	DB	03H
	DB	0b0H
	DB	0d6H
	DB	01H
	DB	014H
	DB	048H
	DB	01H
	DB	011H
	DB	01fH
	DB	0b0H
	DB	0d7H
	DB	01H
	DB	014H
	DB	074H
	DB	01H
	DB	018H
	DB	03eH
	DB	0b0H
	DB	0d8H
	DB	01H
	DB	014H
	DB	074H
	DB	01H
	DB	01cH
	DB	0f0H
	DB	01H
	DB	0b0H
	DB	0d9H
	DB	01H
	DB	014H
	DB	074H
	DB	01H
	DB	016H
	DB	080H
	DB	0fH
	DB	0b0H
	DB	0daH
	DB	01H
	DB	014H
	DB	074H
	DB	01H
	DB	012H
	DB	07cH
	DB	0b0H
	DB	0dbH
	DB	01H
	DB	014H
	DB	074H
	DB	01H
	DB	013H
	DB	0e0H
	DB	03H
	DB	0b0H
	DB	0dcH
	DB	01H
	DB	014H
	DB	074H
	DB	01H
	DB	011H
	DB	01fH
	DB	0b0H
	DB	0ddH
	DB	01H
	DB	0ffH
	DB	00H
	DB	08cH
	DB	0dfH
	DB	010H
	DB	02aH
	DB	02H
	DB	04H
	DB	0b0H
	DB	01H
	DB	0dfH
	DB	010H
	DB	02bH
	DB	02H
	DB	04H
	DB	0b4H
	DB	01H
	DB	0dfH
	DB	010H
	DB	02cH
	DB	02H
	DB	0ffH
	DB	010H
	DB	0cH
	DB	04H
	DB	07H
	DB	00H
	DB	00H
	DB	04H
	DB	090H
	DB	01H
	DB	0dfH
	DB	00H
	DB	00H
	DB	00H
	DB	00H
	DB	00H
	DB	010H
	DB	080H
	DB	0dcH
	DB	0c0H
	DB	03H
	DB	00H
	DB	040H
	DB	02H
	DB	00H
	DB	0ffH
	DB	0f3H
	DB	0c0H
	DB	01aH
	DB	043H
	DB	0ffH
	DB	010H
	DB	080H
	DB	0dcH
	DB	0c0H
	DB	03H
	DB	00H
	DB	040H
	DB	02H
	DB	00H
	DB	0ffH
	DB	0f3H
	DB	0c0H
	DB	06bH
	DB	043H
	DB	0ffH
	DB	010H
	DB	080H
	DB	0dcH
	DB	0c0H
	DB	03H
	DB	00H
	DB	00H
	DB	02H
	DB	00H
	DB	0ffH
	DB	0f3H
	DB	0c0H
	DB	06bH
	DB	043H
	DB	0ffH
	DB	010H
	DB	0cH
	DB	04H
	DB	07H
	DB	00H
	DB	01H
	DB	04H
	DB	090H
	DB	01H
	DB	0dfH
	DB	00H
	DB	055H
	DB	00H
	DB	00H
	DB	00H
	DB	00H
	DB	08cH
	DB	0dfH
	DB	010H
	DB	02dH
	DB	02H
	DB	04H
	DB	0b0H
	DB	01H
	DB	0dfH
	DB	00H
	DB	00H
	DB	00H
	DB	00H
	DB	00H
	DB	04H
	DB	0b4H
	DB	01H
	DB	0dfH
	DB	00H
	DB	00H
	DB	00H
	DB	00H
	DB	00H
	DB	0ffH
	DB	00H
	DB	0cH
	DB	0fH
	DB	0b0H
	DB	099H
	DB	01H
	DB	014H
	DB	070H
	DB	01H
	DB	014H
	DB	080H
	DB	0b0H
	DB	09dH
	DB	01H
	DB	04H
	DB	058H
	DB	01H
	DB	01fH
	DB	0b0H
	DB	090H
	DB	01H
	DB	04H
	DB	074H
	DB	01H
	DB	01fH
	DB	0b0H
	DB	091H
	DB	01H
	DB	00H
	DB	0b4H
	DB	01fH
	DB	0b0H
	DB	092H
	DB	01H
	DB	04H
	DB	048H
	DB	01H
	DB	01fH
	DB	0b0H
	DB	093H
	DB	01H
	DB	04H
	DB	04cH
	DB	01H
	DB	01fH
	DB	0b0H
	DB	094H
	DB	01H
	DB	04H
	DB	050H
	DB	01H
	DB	01fH
	DB	0b0H
	DB	095H
	DB	01H
	DB	04H
	DB	054H
	DB	01H
	DB	01fH
	DB	0b0H
	DB	096H
	DB	01H
	DB	014H
	DB	058H
	DB	01H
	DB	014H
	DB	01H
	DB	00H
	DB	00H
	DB	010H
	DB	0cH
	DB	04H
	DB	07H
	DB	00H
	DB	01H
	DB	014H
	DB	070H
	DB	01H
	DB	014H
	DB	080H
	DB	00H
	DB	00H
	DB	0ffH
	DB	00H
	DB	0cH
	DB	0fH
	DB	010H
	DB	02eH
	DB	02H
	DB	04H
	DB	070H
	DB	01H
	DB	014H
	DB	010H
	DB	02fH
	DB	02H
	DB	00H
	DB	0ffH
	DB	0f3H
	DB	0c0H
	DB	0d1H
	DB	01bH
	DB	04H
	DB	058H
	DB	01H
	DB	01fH
	DB	010H
	DB	030H
	DB	02H
	DB	04H
	DB	074H
	DB	01H
	DB	01fH
	DB	010H
	DB	031H
	DB	02H
	DB	00H
	DB	0b4H
	DB	01fH
	DB	010H
	DB	032H
	DB	02H
	DB	04H
	DB	048H
	DB	01H
	DB	01fH
	DB	010H
	DB	033H
	DB	02H
	DB	04H
	DB	04cH
	DB	01H
	DB	01fH
	DB	010H
	DB	034H
	DB	02H
	DB	04H
	DB	050H
	DB	01H
	DB	01fH
	DB	010H
	DB	035H
	DB	02H
	DB	04H
	DB	054H
	DB	01H
	DB	01fH
	DB	010H
	DB	036H
	DB	02H
	DB	0ffH
	DB	00H
	DB	0ffH
	DB	0f3H
	DB	0c0H
	DB	0d1H
	DB	01bH
	DB	04H
	DB	058H
	DB	01H
	DB	013H
	DB	010H
	DB	037H
	DB	02H
	DB	04H
	DB	074H
	DB	01H
	DB	01cH
	DB	010H
	DB	038H
	DB	02H
	DB	010H
	DB	0b4H
	DB	011H
	DB	07fH
	DB	00H
	DB	03fH
	DB	04H
	DB	050H
	DB	01H
	DB	01fH
	DB	010H
	DB	039H
	DB	02H
	DB	014H
	DB	04cH
	DB	01H
	DB	01fH
	DB	0ffH
	DB	0ffH
	DB	0ffH
	DB	03fH
	DB	00H
	DB	051H
	DB	04eH
	DB	05aH
	DB	02dH
	DB	014H
	DB	048H
	DB	01H
	DB	01fH
	DB	0ffH
	DB	0ffH
	DB	0ffH
	DB	03fH
	DB	00H
	DB	08bH
	DB	035H
	DB	0f7H
	DB	020H
	DB	014H
	DB	074H
	DB	01H
	DB	017H
	DB	0ffH
	DB	0ffH
	DB	0fH
	DB	00H
	DB	049H
	DB	01dH
	DB	04H
	DB	014H
	DB	054H
	DB	01H
	DB	01fH
	DB	0ffH
	DB	0ffH
	DB	0ffH
	DB	0fH
	DB	00H
	DB	010H
	DB	032H
	DB	054H
	DB	06H
	DB	0ffH
	DB	010H
	DB	048H
	DB	0dfH
	DB	09H
	DB	07cH
	DB	01fH
	DB	077H
	DB	00H
	DB	09H
	DB	010H
	DB	01H
	DB	00H
	DB	010H
	DB	04cH
	DB	0d3H
	DB	0ffH
	DB	03H
	DB	00H
	DB	00H
	DB	00H
	DB	010H
	DB	080H
	DB	0dfH
	DB	0ffH
	DB	0ffH
	DB	0ffH
	DB	08bH
	DB	00H
	DB	080H
	DB	00H
	DB	040H
	DB	082H
	DB	00H
	DB	084H
	DB	0d7H
	DB	010H
	DB	03aH
	DB	02H
	DB	014H
	DB	04H
	DB	01H
	DB	0dbH
	DB	0ffH
	DB	03fH
	DB	070H
	DB	00H
	DB	00H
	DB	00H
	DB	00H
	DB	014H
	DB	084H
	DB	01H
	DB	0d7H
	DB	07fH
	DB	07H
	DB	07H
	DB	00H
	DB	00H
	DB	07H
	DB	07H
	DB	04H
	DB	088H
	DB	01H
	DB	0dfH
	DB	010H
	DB	03bH
	DB	02H
	DB	014H
	DB	08cH
	DB	01H
	DB	0dfH
	DB	01cH
	DB	01cH
	DB	01cH
	DB	05fH
	DB	00H
	DB	00H
	DB	00H
	DB	00H
	DB	00H
	DB	04H
	DB	090H
	DB	01H
	DB	0dfH
	DB	00H
	DB	00H
	DB	00H
	DB	00H
	DB	00H
	DB	014H
	DB	0acH
	DB	01H
	DB	0ddH
	DB	0ffH
	DB	01fH
	DB	0c0H
	DB	00H
	DB	00H
	DB	00H
	DB	00H
	DB	04H
	DB	0b0H
	DB	01H
	DB	0dfH
	DB	00H
	DB	00H
	DB	00H
	DB	00H
	DB	00H
	DB	04H
	DB	0b4H
	DB	01H
	DB	0dfH
	DB	00H
	DB	00H
	DB	00H
	DB	00H
	DB	00H
	DB	04H
	DB	0b8H
	DB	01H
	DB	0dfH
	DB	00H
	DB	0ffH
	DB	0ffH
	DB	0ffH
	DB	0ffH
	DB	014H
	DB	0bcH
	DB	01H
	DB	0d1H
	DB	0fH
	DB	00H
	DB	0fH
	DB	014H
	DB	084H
	DB	02H
	DB	0dfH
	DB	03fH
	DB	030H
	DB	0ffH
	DB	0ffH
	DB	00H
	DB	00H
	DB	010H
	DB	0ffH
	DB	0ffH
	DB	04H
	DB	088H
	DB	02H
	DB	0dfH
	DB	00H
	DB	0ffH
	DB	0ffH
	DB	0ffH
	DB	0ffH
	DB	04H
	DB	08cH
	DB	02H
	DB	0dfH
	DB	00H
	DB	0ffH
	DB	0ffH
	DB	0ffH
	DB	0ffH
	DB	0cH
	DB	086H
	DB	00H
	DB	08cH
	DB	02H
	DB	0dfH
	DB	00H
	DB	00H
	DB	00H
	DB	00H
	DB	00H
	DB	04H
	DB	090H
	DB	02H
	DB	0d1H
	DB	010H
	DB	03cH
	DB	02H
	DB	0ffH
	DB	00H
	DB	088H
	DB	0dfH
	DB	010H
	DB	03dH
	DB	02H
	DB	00H
	DB	08cH
	DB	0dfH
	DB	010H
	DB	03eH
	DB	02H
	DB	0ffH
	DB	00H
	DB	0ffH
	DB	0f3H
	DB	0c0H
	DB	0e3H
	DB	03cH
	DB	0ffH
	DB	014H
	DB	0b0H
	DB	01H
	DB	028H
	DB	04H
	DB	0b0H
	DB	0e5H
	DB	01H
	DB	014H
	DB	0b0H
	DB	01H
	DB	028H
	DB	02H
	DB	0b0H
	DB	0e6H
	DB	01H
	DB	014H
	DB	0acH
	DB	01H
	DB	028H
	DB	010H
	DB	0b0H
	DB	0e7H
	DB	01H
	DB	014H
	DB	0acH
	DB	01H
	DB	028H
	DB	08H
	DB	0b0H
	DB	0e8H
	DB	01H
	DB	0ffH
	DB	014H
	DB	0e8H
	DB	05H
	DB	022H
	DB	0f0H
	DB	0b0H
	DB	0e9H
	DB	01H
	DB	014H
	DB	0e8H
	DB	05H
	DB	022H
	DB	0fH
	DB	0b0H
	DB	0eaH
	DB	01H
	DB	04H
	DB	0f0H
	DB	06H
	DB	082H
	DB	0b0H
	DB	0ebH
	DB	01H
	DB	014H
	DB	08H
	DB	06H
	DB	02cH
	DB	0e0H
	DB	0fH
	DB	0b0H
	DB	0ecH
	DB	01H
	DB	014H
	DB	0e8H
	DB	05H
	DB	022H
	DB	0f0H
	DB	0b0H
	DB	0edH
	DB	01H
	DB	014H
	DB	028H
	DB	06H
	DB	021H
	DB	03fH
	DB	0b0H
	DB	0eeH
	DB	01H
	DB	014H
	DB	08H
	DB	06H
	DB	021H
	DB	07fH
	DB	0b0H
	DB	0efH
	DB	01H
	DB	014H
	DB	0e8H
	DB	05H
	DB	022H
	DB	0fH
	DB	0b0H
	DB	0f0H
	DB	01H
	DB	0ffH
	DB	014H
	DB	0b0H
	DB	01H
	DB	028H
	DB	06H
	DB	00H
	DB	02H
	DB	014H
	DB	0acH
	DB	01H
	DB	028H
	DB	018H
	DB	00H
	DB	018H
	DB	0ffH
	DB	04H
	DB	0e8H
	DB	05H
	DB	022H
	DB	00H
	DB	00H
	DB	04H
	DB	0f0H
	DB	06H
	DB	082H
	DB	00H
	DB	029H
	DB	00H
	DB	0ffH
	DB	0f3H
	DB	0c0H
	DB	05H
	DB	046H
	DB	04H
	DB	01cH
	DB	06H
	DB	028H
	DB	0b0H
	DB	0f1H
	DB	01H
	DB	04H
	DB	08H
	DB	06H
	DB	02cH
	DB	010H
	DB	03fH
	DB	02H
	DB	014H
	DB	0e8H
	DB	05H
	DB	022H
	DB	0f0H
	DB	00H
	DB	040H
	DB	014H
	DB	028H
	DB	06H
	DB	021H
	DB	03fH
	DB	00H
	DB	019H
	DB	00H
	DB	0ffH
	DB	0f3H
	DB	0c0H
	DB	05H
	DB	046H
	DB	04H
	DB	01cH
	DB	06H
	DB	021H
	DB	0b0H
	DB	0f2H
	DB	01H
	DB	04H
	DB	08H
	DB	06H
	DB	021H
	DB	010H
	DB	040H
	DB	02H
	DB	014H
	DB	0e8H
	DB	05H
	DB	022H
	DB	0fH
	DB	00H
	DB	0cH
	DB	0ffH
	DB	014H
	DB	00H
	DB	07H
	DB	051H
	DB	01H
	DB	040H
	DB	0e8H
	DB	03H
	DB	00H
	DB	00H
	DB	01H
	DB	014H
	DB	00H
	DB	07H
	DB	051H
	DB	01H
	DB	080H
	DB	00H
	DB	0ffH
	DB	014H
	DB	080H
	DB	01H
	DB	071H
	DB	080H
	DB	00H
	DB	080H
	DB	014H
	DB	080H
	DB	01H
	DB	091H
	DB	080H
	DB	00H
	DB	080H
	DB	014H
	DB	080H
	DB	01H
	DB	022H
	DB	08H
	DB	00H
	DB	08H
	DB	0ffH
	DB	014H
	DB	080H
	DB	01H
	DB	071H
	DB	080H
	DB	00H
	DB	00H
	DB	014H
	DB	080H
	DB	01H
	DB	091H
	DB	080H
	DB	00H
	DB	00H
	DB	014H
	DB	080H
	DB	01H
	DB	022H
	DB	08H
	DB	00H
	DB	00H
	DB	0ffH
	DB	04H
	DB	0b0H
	DB	01H
	DB	028H
	DB	010H
	DB	041H
	DB	02H
	DB	04H
	DB	0acH
	DB	01H
	DB	028H
	DB	010H
	DB	042H
	DB	02H
	DB	0ffH
	DB	04H
	DB	0e8H
	DB	05H
	DB	022H
	DB	010H
	DB	043H
	DB	02H
	DB	04H
	DB	0f0H
	DB	06H
	DB	082H
	DB	010H
	DB	044H
	DB	02H
	DB	04H
	DB	08H
	DB	06H
	DB	02cH
	DB	010H
	DB	045H
	DB	02H
	DB	04H
	DB	0e8H
	DB	05H
	DB	022H
	DB	010H
	DB	046H
	DB	02H
	DB	04H
	DB	028H
	DB	06H
	DB	021H
	DB	010H
	DB	047H
	DB	02H
	DB	04H
	DB	08H
	DB	06H
	DB	021H
	DB	010H
	DB	048H
	DB	02H
	DB	04H
	DB	0e8H
	DB	05H
	DB	022H
	DB	010H
	DB	049H
	DB	02H
	DB	00H
	DB	0ffH
	DB	0f3H
	DB	0c0H
	DB	05H
	DB	046H
	DB	0ffH
	DB	00H
	DB	0ffH
	DB	0f3H
	DB	0c0H
	DB	04aH
	DB	045H
	DB	00H
	DB	0ffH
	DB	0f3H
	DB	0c0H
	DB	0acH
	DB	045H
	DB	00H
	DB	0ffH
	DB	0f3H
	DB	0c0H
	DB	06bH
	DB	045H
	DB	00H
	DB	0ffH
	DB	0f3H
	DB	0c0H
	DB	0bbH
	DB	045H
	DB	00H
	DB	0ffH
	DB	0f3H
	DB	0c0H
	DB	05H
	DB	046H
	DB	00H
	DB	0ffH
	DB	0f3H
	DB	0c0H
	DB	018H
	DB	046H
	DB	00H
	DB	0ffH
	DB	0f3H
	DB	0c0H
	DB	02eH
	DB	046H
	DB	00H
	DB	0ffH
	DB	0f3H
	DB	0c0H
	DB	044H
	DB	046H
	DB	00H
	DB	0ffH
	DB	0f3H
	DB	0c0H
	DB	053H
	DB	046H
	DB	00H
	DB	0ffH
	DB	0f3H
	DB	0c0H
	DB	0e3H
	DB	03cH
	DB	00H
	DB	0ffH
	DB	0f3H
	DB	0c0H
	DB	033H
	DB	039H
	DB	00H
	DB	0ffH
	DB	0f3H
	DB	0c0H
	DB	04aH
	DB	039H
	DB	00H
	DB	0ffH
	DB	0f3H
	DB	0c0H
	DB	05fH
	DB	039H
	DB	00H
	DB	0ffH
	DB	0f3H
	DB	0c0H
	DB	07cH
	DB	039H
	DB	00H
	DB	0ffH
	DB	0f3H
	DB	0c0H
	DB	07dH
	DB	038H
	DB	00H
	DB	0ffH
	DB	0f3H
	DB	0c0H
	DB	042H
	DB	027H
	DB	00H
	DB	0ffH
	DB	0f3H
	DB	0c0H
	DB	090H
	DB	038H
	DB	00H
	DB	0ffH
	DB	0f3H
	DB	0c0H
	DB	0b2H
	DB	024H
	DB	00H
	DB	0ffH
	DB	0f3H
	DB	0c0H
	DB	0f5H
	DB	026H
	DB	00H
	DB	0ffH
	DB	0f3H
	DB	0c0H
	DB	01cH
	DB	039H
	DB	00H
	DB	0ffH
	DB	0f3H
	DB	0c0H
	DB	05H
	DB	039H
	DB	00H
	DB	0ffH
	DB	0f3H
	DB	0c0H
	DB	06aH
	DB	038H
	DB	00H
	DB	0ffH
	DB	0f3H
	DB	0c0H
	DB	05H
	DB	037H
	DB	0ffH
	DB	0cH
	DB	0f3H
	DB	01H
	DB	0b0H
	DB	02H
	DB	021H
	DB	010H
	DB	04aH
	DB	02H
	DB	04H
	DB	080H
	DB	01H
	DB	024H
	DB	010H
	DB	04bH
	DB	02H
	DB	0ffH
	DB	04H
	DB	0bcH
	DB	02H
	DB	021H
	DB	010H
	DB	04cH
	DB	02H
	DB	0ffH
	DB	04H
	DB	0cH
	DB	01H
	DB	0fH
	DB	0b0H
	DB	0f7H
	DB	01H
	DB	0cH
	DB	0f7H
	DB	01H
	DB	010H
	DB	01H
	DB	0fH
	DB	00H
	DB	080H
	DB	00H
	DB	00H
	DB	00H
	DB	0cH
	DB	0f7H
	DB	01H
	DB	010H
	DB	01H
	DB	0fH
	DB	080H
	DB	00H
	DB	00H
	DB	00H
	DB	00H
	DB	0ffH
	DB	04H
	DB	0cH
	DB	01H
	DB	0fH
	DB	0b0H
	DB	0f8H
	DB	01H
	DB	0ffH
_NumberAlgosGenerated DB 016H
_NumberOfDependantElementsGenerated DB 01H
_NumberOfDelayElementsPerAlgoGenerated DB 03H
_PfctAndIoLevelToBlueprint DW 0ffffH
	DW	0ffffH
	DW	0ffffH
	DW	0ffffH
	DB	01H
	DB	00H
	ORG $+10
_DigitalDllRangesGenerated DW 00H
	ORG $+48
_NumberOfCCElementsGenerated DB 03H
_NumberOfCCRangesGenerated DB 0cH
_UnitStringsGenerated DB 'DUNIT_COMMON   ', 00H
	DB	'DUNIT          ', 00H
	DB	'DDRDQ          ', 00H
	DB	'DDRDQ_PHY      ', 00H
	DB	'DDRCC2_PHY     ', 00H
	DB	'DDRCC1_PHY     ', 00H
	DB	'DDRPLL         ', 00H
	DB	'DDRCC0         ', 00H
	DB	'DDRCC1         ', 00H
	DB	'DDRCC2         ', 00H
	DB	'DDRSAI         ', 00H
	DB	'BUNIT          ', 00H
	DB	'RTF            ', 00H
	DB	'CPGC           ', 00H
	DB	'BUNIT_MCHBAR   ', 00H
	DB	'AUNIT_MCHBAR   ', 00H
	DB	'BUNITMEM       ', 00H
	DB	'PUNITSA        ', 00H
	DB	'PMC_PCI_MMR    ', 00H
	DB	'PMC_PCI_CFG    ', 00H
	DB	'CLTT_CCR       ', 00H
	DB	'SUNIT          ', 00H
	DB	'AUNIT_MSG_MAP_1', 00H
	DB	'BUNIT_MSG_MAP_0', 00H
_FloorPlanGenerated DB 00H
	DB	00H
	DB	00H
	DB	01H
	DB	00H
	DB	02H
	DB	00H
	DB	03H
	DB	00H
	DB	0dH
	DB	00H
	DB	0eH
	DB	00H
	DB	0fH
	DB	00H
	DB	010H
	DB	00H
	DB	08H
	DB	00H
	DB	09H
	DB	00H
	DB	0aH
	DB	00H
	DB	0bH
	DB	00H
	DB	0cH
	DB	00H
	DB	04H
	DB	00H
	DB	05H
	DB	00H
	DB	06H
	DB	00H
	DB	07H
	DB	00H
	DB	011H
	DB	01H
	DB	00H
	DB	01H
	DB	01H
	DB	01H
	DB	02H
	DB	01H
	DB	03H
	DB	01H
	DB	0dH
	DB	01H
	DB	0eH
	DB	01H
	DB	0fH
	DB	01H
	DB	010H
	DB	01H
	DB	08H
	DB	01H
	DB	09H
	DB	01H
	DB	0aH
	DB	01H
	DB	0bH
	DB	01H
	DB	0cH
	DB	01H
	DB	04H
	DB	01H
	DB	05H
	DB	01H
	DB	06H
	DB	01H
	DB	07H
	DB	01H
	DB	011H
_StrobeToRegisterGenerated DW 00H
	DW	00H
	DW	00H
	DW	00H
	DW	00H
	DW	00H
	DW	00H
	DW	00H
	DW	00H
	DW	00H
	DW	00H
	DW	00H
	DW	00H
	DW	00H
	DW	00H
	DW	00H
	DW	00H
	DW	00H
	DW	00H
	DW	00H
	DW	00H
	DW	00H
	DW	00H
	DW	00H
	DW	00H
	DW	00H
	DW	00H
	DW	00H
	DW	00H
	DW	00H
	DW	00H
	DW	00H
	DW	00H
	DW	00H
	DW	00H
	DW	00H
_RankToRegisterGenerated DW 00H
	DW	00H
	DW	00H
	DW	00H
	DW	00H
	DW	00H
	DW	00H
	DW	00H
_NumberOfElementsPerAlgoGenerated DB 06H
_NumberOfFrequenciesGenerated DB 01H
	ORG $+2
_DelayIndexToOffsetLayerGenerated DW 01000H
	DW	01001H
	DW	01002H
	DW	01003H
	DW	01004H
	DW	01005H
	DW	01006H
	DW	01007H
	DW	01008H
	DW	01009H
	DW	0100aH
	DW	0100bH
	DW	0100cH
	DW	0100dH
	DW	0100eH
	DW	0100fH
	DW	01010H
	DW	01011H
	DW	01012H
	DW	01013H
	DW	01014H
	DW	01015H
_GroupIndexToOffsetLayerGenerated DW 02004H
	DW	0200cH
	DW	0200fH
	DW	02011H
	DW	02013H
	ORG $+6
_UniqueIndexToOffsetLayerGenerated DW 084H
	DW	085H
	DW	086H
	DW	087H
	DW	088H
	DW	089H
	DW	08aH
	DW	08bH
	DW	08cH
	DW	08dH
	DW	08eH
	DW	08fH
	DW	090H
	DW	091H
	DW	092H
	DW	093H
	DW	094H
	DW	095H
	DW	096H
	DW	097H
	DW	098H
	DW	099H
	DW	09aH
	DW	09bH
	DW	09cH
	DW	09dH
	DW	09eH
	DW	09fH
	DW	0a0H
	DW	0a1H
	DW	0a2H
	DW	0a3H
	DW	0a4H
	DW	0a5H
	DW	0a6H
	DW	0a7H
	DW	0a8H
	DW	0a9H
	DW	0aaH
	DW	0abH
	DW	0acH
	DW	0adH
	DW	0aeH
	DW	0afH
_ElementsGenerated DB 0ffH
	ORG $+1
	DW	0ffH
	DB	00H
	DB	00H
	DW	0ffH
	DB	00H
	DB	00H
	DW	0ffH
	DB	00H
	DB	00H
	DW	0ffH
	DB	00H
	DB	00H
	DB	0ffH
	DB	00H
	DB	00H
	ORG $+1
	DW	0ffffH
	DB	00H
	ORG $+1
	DW	0ffffH
	DB	00H
	ORG $+1
	DW	0ffffH
	DB	00H
	ORG $+3
	DD	0ffffffffH
	DD	00H
	DB	08H
	ORG $+1
	DW	0190H
	DB	08H
	DB	0cH
	DW	0190H
	DB	0dH
	DB	011H
	DW	0190H
	DB	012H
	DB	016H
	DW	0190H
	DB	017H
	DB	01bH
	DB	08dH
	DB	00H
	DB	00H
	ORG $+1
	DW	00H
	DB	00H
	ORG $+1
	DW	00H
	DB	00H
	ORG $+1
	DW	00H
	DB	00H
	ORG $+3
	DD	01fH
	DD	00H
	DB	08H
	ORG $+1
	DW	0194H
	DB	00H
	DB	05H
	DW	0194H
	DB	06H
	DB	0bH
	DW	0194H
	DB	0cH
	DB	011H
	DW	0198H
	DB	00H
	DB	05H
	DB	08eH
	DB	00H
	DB	00H
	ORG $+1
	DW	00H
	DB	00H
	ORG $+1
	DW	00H
	DB	00H
	ORG $+1
	DW	00H
	DB	00H
	ORG $+3
	DD	03fH
	DD	00H
	DB	08H
	ORG $+1
	DW	0190H
	DB	00H
	DB	01H
	DW	0190H
	DB	02H
	DB	03H
	DW	0190H
	DB	04H
	DB	05H
	DW	0190H
	DB	06H
	DB	07H
	DB	08dH
	DB	00H
	DB	00H
	ORG $+1
	DW	00H
	DB	00H
	ORG $+1
	DW	00H
	DB	00H
	ORG $+1
	DW	00H
	DB	00H
	ORG $+3
	DD	03H
	DD	00H
	DB	0ffH
	ORG $+1
	DW	0ffH
	DB	00H
	DB	00H
	DW	0ffH
	DB	00H
	DB	00H
	DW	0ffH
	DB	00H
	DB	00H
	DW	0ffH
	DB	00H
	DB	00H
	DB	0ffH
	DB	00H
	DB	00H
	ORG $+1
	DW	0ffffH
	DB	00H
	ORG $+1
	DW	0ffffH
	DB	00H
	ORG $+1
	DW	0ffffH
	DB	00H
	ORG $+3
	DD	0ffffffffH
	DD	00H
	DB	08H
	ORG $+1
	DW	0190H
	DB	08H
	DB	0cH
	DW	0190H
	DB	0dH
	DB	011H
	DW	0190H
	DB	012H
	DB	016H
	DW	0190H
	DB	017H
	DB	01bH
	DB	08dH
	DB	021H
	DB	00H
	ORG $+1
	DW	00H
	DB	00H
	ORG $+1
	DW	00H
	DB	00H
	ORG $+1
	DW	00H
	DB	00H
	ORG $+3
	DD	01fH
	DD	00H
	DB	02H
	ORG $+1
	DW	01a4H
	DB	00H
	DB	04H
	DW	01a4H
	DB	00H
	DB	04H
	DW	01a4H
	DB	00H
	DB	04H
	DW	01a4H
	DB	00H
	DB	04H
	DB	00H
	DB	00H
	DB	00H
	ORG $+1
	DW	00H
	DB	00H
	ORG $+1
	DW	04H
	DB	00H
	ORG $+1
	DW	00H
	DB	00H
	ORG $+3
	DD	01fH
	DD	00H
	DB	02H
	ORG $+1
	DW	01fcH
	DB	08H
	DB	0bH
	DW	01fcH
	DB	0cH
	DB	0fH
	DW	01fcH
	DB	010H
	DB	013H
	DW	01fcH
	DB	014H
	DB	017H
	DB	080H
	DB	00H
	DB	00H
	ORG $+1
	DW	00H
	DB	00H
	ORG $+1
	DW	04H
	DB	00H
	ORG $+1
	DW	00H
	DB	00H
	ORG $+3
	DD	0fH
	DD	00H
	DB	02H
	ORG $+1
	DW	0204H
	DB	00H
	DB	05H
	DW	0204H
	DB	06H
	DB	0bH
	DW	0204H
	DB	0cH
	DB	011H
	DW	0204H
	DB	012H
	DB	017H
	DB	081H
	DB	00H
	DB	00H
	ORG $+1
	DW	00H
	DB	00H
	ORG $+1
	DW	04H
	DB	00H
	ORG $+1
	DW	00H
	DB	00H
	ORG $+3
	DD	03fH
	DD	00H
	DB	02H
	ORG $+1
	DW	01fcH
	DB	00H
	DB	01H
	DW	01fcH
	DB	02H
	DB	03H
	DW	01fcH
	DB	04H
	DB	05H
	DW	01fcH
	DB	06H
	DB	07H
	DB	080H
	DB	00H
	DB	00H
	ORG $+1
	DW	00H
	DB	00H
	ORG $+1
	DW	04H
	DB	00H
	ORG $+1
	DW	00H
	DB	00H
	ORG $+3
	DD	03H
	DD	00H
	DB	0ffH
	ORG $+1
	DW	0ffH
	DB	00H
	DB	00H
	DW	0ffH
	DB	00H
	DB	00H
	DW	0ffH
	DB	00H
	DB	00H
	DW	0ffH
	DB	00H
	DB	00H
	DB	0ffH
	DB	00H
	DB	00H
	ORG $+1
	DW	0ffffH
	DB	00H
	ORG $+1
	DW	0ffffH
	DB	00H
	ORG $+1
	DW	0ffffH
	DB	00H
	ORG $+3
	DD	0ffffffffH
	DD	00H
	DB	02H
	ORG $+1
	DW	01fcH
	DB	08H
	DB	0bH
	DW	01fcH
	DB	0cH
	DB	0fH
	DW	01fcH
	DB	010H
	DB	013H
	DW	01fcH
	DB	014H
	DB	017H
	DB	080H
	DB	021H
	DB	00H
	ORG $+1
	DW	00H
	DB	00H
	ORG $+1
	DW	04H
	DB	00H
	ORG $+1
	DW	00H
	DB	00H
	ORG $+3
	DD	0fH
	DD	00H
	DB	0ffH
	ORG $+1
	DW	0ffH
	DB	00H
	DB	00H
	DW	0ffH
	DB	00H
	DB	00H
	DW	0ffH
	DB	00H
	DB	00H
	DW	0ffH
	DB	00H
	DB	00H
	DB	0ffH
	DB	00H
	DB	00H
	ORG $+1
	DW	0ffffH
	DB	00H
	ORG $+1
	DW	0ffffH
	DB	00H
	ORG $+1
	DW	0ffffH
	DB	00H
	ORG $+3
	DD	0ffffffffH
	DD	00H
	DB	0ffH
	ORG $+1
	DW	0ffH
	DB	00H
	DB	00H
	DW	0ffH
	DB	00H
	DB	00H
	DW	0ffH
	DB	00H
	DB	00H
	DW	0ffH
	DB	00H
	DB	00H
	DB	0ffH
	DB	00H
	DB	00H
	ORG $+1
	DW	0ffffH
	DB	00H
	ORG $+1
	DW	0ffffH
	DB	00H
	ORG $+1
	DW	0ffffH
	DB	00H
	ORG $+3
	DD	0ffffffffH
	DD	00H
	DB	02H
	ORG $+1
	DW	0320H
	DB	00H
	DB	09H
	DW	0320H
	DB	0aH
	DB	013H
	DW	0324H
	DB	00H
	DB	09H
	DW	0324H
	DB	0aH
	DB	013H
	DB	040H
	DB	010H
	DB	00H
	ORG $+1
	DW	00H
	DB	00H
	ORG $+1
	DW	020H
	DB	00H
	ORG $+1
	DW	08H
	DB	00H
	ORG $+3
	DD	03ffH
	DD	00H
	DB	0ffH
	ORG $+1
	DW	0ffH
	DB	00H
	DB	00H
	DW	0ffH
	DB	00H
	DB	00H
	DW	0ffH
	DB	00H
	DB	00H
	DW	0ffH
	DB	00H
	DB	00H
	DB	0ffH
	DB	00H
	DB	00H
	ORG $+1
	DW	0ffffH
	DB	00H
	ORG $+1
	DW	0ffffH
	DB	00H
	ORG $+1
	DW	0ffffH
	DB	00H
	ORG $+3
	DD	0ffffffffH
	DD	00H
	DB	0ffH
	ORG $+1
	DW	0ffH
	DB	00H
	DB	00H
	DW	0ffH
	DB	00H
	DB	00H
	DW	0ffH
	DB	00H
	DB	00H
	DW	0ffH
	DB	00H
	DB	00H
	DB	0ffH
	DB	00H
	DB	00H
	ORG $+1
	DW	0ffffH
	DB	00H
	ORG $+1
	DW	0ffffH
	DB	00H
	ORG $+1
	DW	0ffffH
	DB	00H
	ORG $+3
	DD	0ffffffffH
	DD	00H
	DB	0ffH
	ORG $+1
	DW	0ffH
	DB	00H
	DB	00H
	DW	0ffH
	DB	00H
	DB	00H
	DW	0ffH
	DB	00H
	DB	00H
	DW	0ffH
	DB	00H
	DB	00H
	DB	0ffH
	DB	00H
	DB	00H
	ORG $+1
	DW	0ffffH
	DB	00H
	ORG $+1
	DW	0ffffH
	DB	00H
	ORG $+1
	DW	0ffffH
	DB	00H
	ORG $+3
	DD	0ffffffffH
	DD	00H
	DB	0ffH
	ORG $+1
	DW	0ffH
	DB	00H
	DB	00H
	DW	0ffH
	DB	00H
	DB	00H
	DW	0ffH
	DB	00H
	DB	00H
	DW	0ffH
	DB	00H
	DB	00H
	DB	0ffH
	DB	00H
	DB	00H
	ORG $+1
	DW	0ffffH
	DB	00H
	ORG $+1
	DW	0ffffH
	DB	00H
	ORG $+1
	DW	0ffffH
	DB	00H
	ORG $+3
	DD	0ffffffffH
	DD	00H
	DB	0ffH
	ORG $+1
	DW	0ffH
	DB	00H
	DB	00H
	DW	0ffH
	DB	00H
	DB	00H
	DW	0ffH
	DB	00H
	DB	00H
	DW	0ffH
	DB	00H
	DB	00H
	DB	0ffH
	DB	00H
	DB	00H
	ORG $+1
	DW	0ffffH
	DB	00H
	ORG $+1
	DW	0ffffH
	DB	00H
	ORG $+1
	DW	0ffffH
	DB	00H
	ORG $+3
	DD	0ffffffffH
	DD	00H
	DB	02H
	ORG $+1
	DW	02d0H
	DB	00H
	DB	09H
	DW	02d0H
	DB	0aH
	DB	013H
	DW	02d4H
	DB	00H
	DB	09H
	DW	02d4H
	DB	0aH
	DB	013H
	DB	041H
	DB	010H
	DB	00H
	ORG $+1
	DW	00H
	DB	00H
	ORG $+1
	DW	020H
	DB	00H
	ORG $+1
	DW	08H
	DB	00H
	ORG $+3
	DD	03ffH
	DD	00H
	DB	0ffH
	ORG $+1
	DW	0ffH
	DB	00H
	DB	00H
	DW	0ffH
	DB	00H
	DB	00H
	DW	0ffH
	DB	00H
	DB	00H
	DW	0ffH
	DB	00H
	DB	00H
	DB	0ffH
	DB	00H
	DB	00H
	ORG $+1
	DW	0ffffH
	DB	00H
	ORG $+1
	DW	0ffffH
	DB	00H
	ORG $+1
	DW	0ffffH
	DB	00H
	ORG $+3
	DD	0ffffffffH
	DD	00H
	DB	0ffH
	ORG $+1
	DW	0ffH
	DB	00H
	DB	00H
	DW	0ffH
	DB	00H
	DB	00H
	DW	0ffH
	DB	00H
	DB	00H
	DW	0ffH
	DB	00H
	DB	00H
	DB	0ffH
	DB	00H
	DB	00H
	ORG $+1
	DW	0ffffH
	DB	00H
	ORG $+1
	DW	0ffffH
	DB	00H
	ORG $+1
	DW	0ffffH
	DB	00H
	ORG $+3
	DD	0ffffffffH
	DD	00H
	DB	0ffH
	ORG $+1
	DW	0ffH
	DB	00H
	DB	00H
	DW	0ffH
	DB	00H
	DB	00H
	DW	0ffH
	DB	00H
	DB	00H
	DW	0ffH
	DB	00H
	DB	00H
	DB	0ffH
	DB	00H
	DB	00H
	ORG $+1
	DW	0ffffH
	DB	00H
	ORG $+1
	DW	0ffffH
	DB	00H
	ORG $+1
	DW	0ffffH
	DB	00H
	ORG $+3
	DD	0ffffffffH
	DD	00H
	DB	0ffH
	ORG $+1
	DW	0ffH
	DB	00H
	DB	00H
	DW	0ffH
	DB	00H
	DB	00H
	DW	0ffH
	DB	00H
	DB	00H
	DW	0ffH
	DB	00H
	DB	00H
	DB	0ffH
	DB	00H
	DB	00H
	ORG $+1
	DW	0ffffH
	DB	00H
	ORG $+1
	DW	0ffffH
	DB	00H
	ORG $+1
	DW	0ffffH
	DB	00H
	ORG $+3
	DD	0ffffffffH
	DD	00H
	DB	07H
	ORG $+1
	DW	01a0H
	DB	02H
	DB	06H
	DW	01a0H
	DB	02H
	DB	06H
	DW	01a0H
	DB	02H
	DB	06H
	DW	01a0H
	DB	02H
	DB	06H
	DB	094H
	DB	00H
	DB	00H
	ORG $+1
	DW	00H
	DB	00H
	ORG $+1
	DW	00H
	DB	00H
	ORG $+1
	DW	00H
	DB	00H
	ORG $+3
	DD	01fH
	DD	00H
	DB	07H
	ORG $+1
	DW	0194H
	DB	0cH
	DB	011H
	DW	0194H
	DB	0cH
	DB	011H
	DW	0194H
	DB	0cH
	DB	011H
	DW	0194H
	DB	0cH
	DB	011H
	DB	093H
	DB	00H
	DB	00H
	ORG $+1
	DW	00H
	DB	00H
	ORG $+1
	DW	00H
	DB	00H
	ORG $+1
	DW	00H
	DB	00H
	ORG $+3
	DD	03fH
	DD	00H
	DB	07H
	ORG $+1
	DW	01a0H
	DB	00H
	DB	01H
	DW	01a0H
	DB	00H
	DB	01H
	DW	01a0H
	DB	00H
	DB	01H
	DW	01a0H
	DB	00H
	DB	01H
	DB	094H
	DB	00H
	DB	00H
	ORG $+1
	DW	00H
	DB	00H
	ORG $+1
	DW	00H
	DB	00H
	ORG $+1
	DW	00H
	DB	00H
	ORG $+3
	DD	03H
	DD	00H
	DB	0ffH
	ORG $+1
	DW	0ffH
	DB	00H
	DB	00H
	DW	0ffH
	DB	00H
	DB	00H
	DW	0ffH
	DB	00H
	DB	00H
	DW	0ffH
	DB	00H
	DB	00H
	DB	0ffH
	DB	00H
	DB	00H
	ORG $+1
	DW	0ffffH
	DB	00H
	ORG $+1
	DW	0ffffH
	DB	00H
	ORG $+1
	DW	0ffffH
	DB	00H
	ORG $+3
	DD	0ffffffffH
	DD	00H
	DB	07H
	ORG $+1
	DW	01a0H
	DB	02H
	DB	06H
	DW	01a0H
	DB	02H
	DB	06H
	DW	01a0H
	DB	02H
	DB	06H
	DW	01a0H
	DB	02H
	DB	06H
	DB	094H
	DB	021H
	DB	00H
	ORG $+1
	DW	00H
	DB	00H
	ORG $+1
	DW	00H
	DB	00H
	ORG $+1
	DW	00H
	DB	00H
	ORG $+3
	DD	01fH
	DD	00H
	DB	0ffH
	ORG $+1
	DW	0ffH
	DB	00H
	DB	00H
	DW	0ffH
	DB	00H
	DB	00H
	DW	0ffH
	DB	00H
	DB	00H
	DW	0ffH
	DB	00H
	DB	00H
	DB	0ffH
	DB	00H
	DB	00H
	ORG $+1
	DW	0ffffH
	DB	00H
	ORG $+1
	DW	0ffffH
	DB	00H
	ORG $+1
	DW	0ffffH
	DB	00H
	ORG $+3
	DD	0ffffffffH
	DD	00H
	DB	07H
	ORG $+1
	DW	01a0H
	DB	09H
	DB	0dH
	DW	01a0H
	DB	09H
	DB	0dH
	DW	01a0H
	DB	09H
	DB	0dH
	DW	01a0H
	DB	09H
	DB	0dH
	DB	094H
	DB	00H
	DB	00H
	ORG $+1
	DW	00H
	DB	00H
	ORG $+1
	DW	00H
	DB	00H
	ORG $+1
	DW	00H
	DB	00H
	ORG $+3
	DD	01fH
	DD	00H
	DB	07H
	ORG $+1
	DW	0198H
	DB	00H
	DB	05H
	DW	0198H
	DB	00H
	DB	05H
	DW	0198H
	DB	00H
	DB	05H
	DW	0198H
	DB	00H
	DB	05H
	DB	095H
	DB	00H
	DB	00H
	ORG $+1
	DW	00H
	DB	00H
	ORG $+1
	DW	00H
	DB	00H
	ORG $+1
	DW	00H
	DB	00H
	ORG $+3
	DD	03fH
	DD	00H
	DB	07H
	ORG $+1
	DW	01a0H
	DB	07H
	DB	08H
	DW	01a0H
	DB	07H
	DB	08H
	DW	01a0H
	DB	07H
	DB	08H
	DW	01a0H
	DB	07H
	DB	08H
	DB	094H
	DB	00H
	DB	00H
	ORG $+1
	DW	00H
	DB	00H
	ORG $+1
	DW	00H
	DB	00H
	ORG $+1
	DW	00H
	DB	00H
	ORG $+3
	DD	03H
	DD	00H
	DB	0ffH
	ORG $+1
	DW	0ffH
	DB	00H
	DB	00H
	DW	0ffH
	DB	00H
	DB	00H
	DW	0ffH
	DB	00H
	DB	00H
	DW	0ffH
	DB	00H
	DB	00H
	DB	0ffH
	DB	00H
	DB	00H
	ORG $+1
	DW	0ffffH
	DB	00H
	ORG $+1
	DW	0ffffH
	DB	00H
	ORG $+1
	DW	0ffffH
	DB	00H
	ORG $+3
	DD	0ffffffffH
	DD	00H
	DB	07H
	ORG $+1
	DW	01a0H
	DB	09H
	DB	0dH
	DW	01a0H
	DB	09H
	DB	0dH
	DW	01a0H
	DB	09H
	DB	0dH
	DW	01a0H
	DB	09H
	DB	0dH
	DB	094H
	DB	021H
	DB	00H
	ORG $+1
	DW	00H
	DB	00H
	ORG $+1
	DW	00H
	DB	00H
	ORG $+1
	DW	00H
	DB	00H
	ORG $+3
	DD	01fH
	DD	00H
	DB	0ffH
	ORG $+1
	DW	0ffH
	DB	00H
	DB	00H
	DW	0ffH
	DB	00H
	DB	00H
	DW	0ffH
	DB	00H
	DB	00H
	DW	0ffH
	DB	00H
	DB	00H
	DB	0ffH
	DB	00H
	DB	00H
	ORG $+1
	DW	0ffffH
	DB	00H
	ORG $+1
	DW	0ffffH
	DB	00H
	ORG $+1
	DW	0ffffH
	DB	00H
	ORG $+3
	DD	0ffffffffH
	DD	00H
	DB	07H
	ORG $+1
	DW	0188H
	DB	02H
	DB	06H
	DW	0188H
	DB	02H
	DB	06H
	DW	0188H
	DB	02H
	DB	06H
	DW	0188H
	DB	02H
	DB	06H
	DB	096H
	DB	00H
	DB	00H
	ORG $+1
	DW	00H
	DB	00H
	ORG $+1
	DW	00H
	DB	00H
	ORG $+1
	DW	00H
	DB	00H
	ORG $+3
	DD	01fH
	DD	00H
	DB	07H
	ORG $+1
	DW	0198H
	DB	06H
	DB	0bH
	DW	0198H
	DB	06H
	DB	0bH
	DW	0198H
	DB	06H
	DB	0bH
	DW	0198H
	DB	06H
	DB	0bH
	DB	095H
	DB	00H
	DB	00H
	ORG $+1
	DW	00H
	DB	00H
	ORG $+1
	DW	00H
	DB	00H
	ORG $+1
	DW	00H
	DB	00H
	ORG $+3
	DD	03fH
	DD	00H
	DB	07H
	ORG $+1
	DW	0188H
	DB	00H
	DB	01H
	DW	0188H
	DB	00H
	DB	01H
	DW	0188H
	DB	00H
	DB	01H
	DW	0188H
	DB	00H
	DB	01H
	DB	096H
	DB	00H
	DB	00H
	ORG $+1
	DW	00H
	DB	00H
	ORG $+1
	DW	00H
	DB	00H
	ORG $+1
	DW	00H
	DB	00H
	ORG $+3
	DD	03H
	DD	00H
	DB	0ffH
	ORG $+1
	DW	0ffH
	DB	00H
	DB	00H
	DW	0ffH
	DB	00H
	DB	00H
	DW	0ffH
	DB	00H
	DB	00H
	DW	0ffH
	DB	00H
	DB	00H
	DB	0ffH
	DB	00H
	DB	00H
	ORG $+1
	DW	0ffffH
	DB	00H
	ORG $+1
	DW	0ffffH
	DB	00H
	ORG $+1
	DW	0ffffH
	DB	00H
	ORG $+3
	DD	0ffffffffH
	DD	00H
	DB	07H
	ORG $+1
	DW	0188H
	DB	02H
	DB	06H
	DW	0188H
	DB	02H
	DB	06H
	DW	0188H
	DB	02H
	DB	06H
	DW	0188H
	DB	02H
	DB	06H
	DB	096H
	DB	021H
	DB	00H
	ORG $+1
	DW	00H
	DB	00H
	ORG $+1
	DW	00H
	DB	00H
	ORG $+1
	DW	00H
	DB	00H
	ORG $+3
	DD	01fH
	DD	00H
	DB	0ffH
	ORG $+1
	DW	0ffH
	DB	00H
	DB	00H
	DW	0ffH
	DB	00H
	DB	00H
	DW	0ffH
	DB	00H
	DB	00H
	DW	0ffH
	DB	00H
	DB	00H
	DB	0ffH
	DB	00H
	DB	00H
	ORG $+1
	DW	0ffffH
	DB	00H
	ORG $+1
	DW	0ffffH
	DB	00H
	ORG $+1
	DW	0ffffH
	DB	00H
	ORG $+3
	DD	0ffffffffH
	DD	00H
	DB	07H
	ORG $+1
	DW	0188H
	DB	09H
	DB	0dH
	DW	0188H
	DB	09H
	DB	0dH
	DW	0188H
	DB	09H
	DB	0dH
	DW	0188H
	DB	09H
	DB	0dH
	DB	096H
	DB	00H
	DB	00H
	ORG $+1
	DW	00H
	DB	00H
	ORG $+1
	DW	00H
	DB	00H
	ORG $+1
	DW	00H
	DB	00H
	ORG $+3
	DD	01fH
	DD	00H
	DB	07H
	ORG $+1
	DW	0198H
	DB	0cH
	DB	011H
	DW	0198H
	DB	0cH
	DB	011H
	DW	0198H
	DB	0cH
	DB	011H
	DW	0198H
	DB	0cH
	DB	011H
	DB	095H
	DB	00H
	DB	00H
	ORG $+1
	DW	00H
	DB	00H
	ORG $+1
	DW	00H
	DB	00H
	ORG $+1
	DW	00H
	DB	00H
	ORG $+3
	DD	03fH
	DD	00H
	DB	07H
	ORG $+1
	DW	0188H
	DB	07H
	DB	08H
	DW	0188H
	DB	07H
	DB	08H
	DW	0188H
	DB	07H
	DB	08H
	DW	0188H
	DB	07H
	DB	08H
	DB	096H
	DB	00H
	DB	00H
	ORG $+1
	DW	00H
	DB	00H
	ORG $+1
	DW	00H
	DB	00H
	ORG $+1
	DW	00H
	DB	00H
	ORG $+3
	DD	03H
	DD	00H
	DB	0ffH
	ORG $+1
	DW	0ffH
	DB	00H
	DB	00H
	DW	0ffH
	DB	00H
	DB	00H
	DW	0ffH
	DB	00H
	DB	00H
	DW	0ffH
	DB	00H
	DB	00H
	DB	0ffH
	DB	00H
	DB	00H
	ORG $+1
	DW	0ffffH
	DB	00H
	ORG $+1
	DW	0ffffH
	DB	00H
	ORG $+1
	DW	0ffffH
	DB	00H
	ORG $+3
	DD	0ffffffffH
	DD	00H
	DB	07H
	ORG $+1
	DW	0188H
	DB	09H
	DB	0dH
	DW	0188H
	DB	09H
	DB	0dH
	DW	0188H
	DB	09H
	DB	0dH
	DW	0188H
	DB	09H
	DB	0dH
	DB	096H
	DB	021H
	DB	00H
	ORG $+1
	DW	00H
	DB	00H
	ORG $+1
	DW	00H
	DB	00H
	ORG $+1
	DW	00H
	DB	00H
	ORG $+3
	DD	01fH
	DD	00H
	DB	0ffH
	ORG $+1
	DW	0ffH
	DB	00H
	DB	00H
	DW	0ffH
	DB	00H
	DB	00H
	DW	0ffH
	DB	00H
	DB	00H
	DW	0ffH
	DB	00H
	DB	00H
	DB	0ffH
	DB	00H
	DB	00H
	ORG $+1
	DW	0ffffH
	DB	00H
	ORG $+1
	DW	0ffffH
	DB	00H
	ORG $+1
	DW	0ffffH
	DB	00H
	ORG $+3
	DD	0ffffffffH
	DD	00H
	DB	08H
	ORG $+1
	DW	0188H
	DB	09H
	DB	0dH
	DW	0188H
	DB	09H
	DB	0dH
	DW	0188H
	DB	09H
	DB	0dH
	DW	0188H
	DB	09H
	DB	0dH
	DB	097H
	DB	00H
	DB	00H
	ORG $+1
	DW	00H
	DB	00H
	ORG $+1
	DW	00H
	DB	00H
	ORG $+1
	DW	00H
	DB	00H
	ORG $+3
	DD	01fH
	DD	00H
	DB	08H
	ORG $+1
	DW	0198H
	DB	06H
	DB	0bH
	DW	0198H
	DB	06H
	DB	0bH
	DW	0198H
	DB	06H
	DB	0bH
	DW	0198H
	DB	06H
	DB	0bH
	DB	098H
	DB	00H
	DB	00H
	ORG $+1
	DW	00H
	DB	00H
	ORG $+1
	DW	00H
	DB	00H
	ORG $+1
	DW	00H
	DB	00H
	ORG $+3
	DD	03fH
	DD	00H
	DB	08H
	ORG $+1
	DW	0188H
	DB	07H
	DB	08H
	DW	0188H
	DB	07H
	DB	08H
	DW	0188H
	DB	07H
	DB	08H
	DW	0188H
	DB	07H
	DB	08H
	DB	097H
	DB	00H
	DB	00H
	ORG $+1
	DW	00H
	DB	00H
	ORG $+1
	DW	00H
	DB	00H
	ORG $+1
	DW	00H
	DB	00H
	ORG $+3
	DD	03H
	DD	00H
	DB	0ffH
	ORG $+1
	DW	0ffH
	DB	00H
	DB	00H
	DW	0ffH
	DB	00H
	DB	00H
	DW	0ffH
	DB	00H
	DB	00H
	DW	0ffH
	DB	00H
	DB	00H
	DB	0ffH
	DB	00H
	DB	00H
	ORG $+1
	DW	0ffffH
	DB	00H
	ORG $+1
	DW	0ffffH
	DB	00H
	ORG $+1
	DW	0ffffH
	DB	00H
	ORG $+3
	DD	0ffffffffH
	DD	00H
	DB	08H
	ORG $+1
	DW	0188H
	DB	09H
	DB	0dH
	DW	0188H
	DB	09H
	DB	0dH
	DW	0188H
	DB	09H
	DB	0dH
	DW	0188H
	DB	09H
	DB	0dH
	DB	097H
	DB	021H
	DB	00H
	ORG $+1
	DW	00H
	DB	00H
	ORG $+1
	DW	00H
	DB	00H
	ORG $+1
	DW	00H
	DB	00H
	ORG $+3
	DD	01fH
	DD	00H
	DB	0ffH
	ORG $+1
	DW	0ffH
	DB	00H
	DB	00H
	DW	0ffH
	DB	00H
	DB	00H
	DW	0ffH
	DB	00H
	DB	00H
	DW	0ffH
	DB	00H
	DB	00H
	DB	0ffH
	DB	00H
	DB	00H
	ORG $+1
	DW	0ffffH
	DB	00H
	ORG $+1
	DW	0ffffH
	DB	00H
	ORG $+1
	DW	0ffffH
	DB	00H
	ORG $+3
	DD	0ffffffffH
	DD	00H
	DB	08H
	ORG $+1
	DW	0188H
	DB	02H
	DB	06H
	DW	0188H
	DB	02H
	DB	06H
	DW	0188H
	DB	02H
	DB	06H
	DW	0188H
	DB	02H
	DB	06H
	DB	097H
	DB	00H
	DB	00H
	ORG $+1
	DW	00H
	DB	00H
	ORG $+1
	DW	00H
	DB	00H
	ORG $+1
	DW	00H
	DB	00H
	ORG $+3
	DD	01fH
	DD	00H
	DB	08H
	ORG $+1
	DW	0198H
	DB	0cH
	DB	011H
	DW	0198H
	DB	0cH
	DB	011H
	DW	0198H
	DB	0cH
	DB	011H
	DW	0198H
	DB	0cH
	DB	011H
	DB	098H
	DB	00H
	DB	00H
	ORG $+1
	DW	00H
	DB	00H
	ORG $+1
	DW	00H
	DB	00H
	ORG $+1
	DW	00H
	DB	00H
	ORG $+3
	DD	03fH
	DD	00H
	DB	08H
	ORG $+1
	DW	0188H
	DB	00H
	DB	01H
	DW	0188H
	DB	00H
	DB	01H
	DW	0188H
	DB	00H
	DB	01H
	DW	0188H
	DB	00H
	DB	01H
	DB	097H
	DB	00H
	DB	00H
	ORG $+1
	DW	00H
	DB	00H
	ORG $+1
	DW	00H
	DB	00H
	ORG $+1
	DW	00H
	DB	00H
	ORG $+3
	DD	03H
	DD	00H
	DB	0ffH
	ORG $+1
	DW	0ffH
	DB	00H
	DB	00H
	DW	0ffH
	DB	00H
	DB	00H
	DW	0ffH
	DB	00H
	DB	00H
	DW	0ffH
	DB	00H
	DB	00H
	DB	0ffH
	DB	00H
	DB	00H
	ORG $+1
	DW	0ffffH
	DB	00H
	ORG $+1
	DW	0ffffH
	DB	00H
	ORG $+1
	DW	0ffffH
	DB	00H
	ORG $+3
	DD	0ffffffffH
	DD	00H
	DB	08H
	ORG $+1
	DW	0188H
	DB	02H
	DB	06H
	DW	0188H
	DB	02H
	DB	06H
	DW	0188H
	DB	02H
	DB	06H
	DW	0188H
	DB	02H
	DB	06H
	DB	097H
	DB	021H
	DB	00H
	ORG $+1
	DW	00H
	DB	00H
	ORG $+1
	DW	00H
	DB	00H
	ORG $+1
	DW	00H
	DB	00H
	ORG $+3
	DD	01fH
	DD	00H
	DB	0ffH
	ORG $+1
	DW	0ffH
	DB	00H
	DB	00H
	DW	0ffH
	DB	00H
	DB	00H
	DW	0ffH
	DB	00H
	DB	00H
	DW	0ffH
	DB	00H
	DB	00H
	DB	0ffH
	DB	00H
	DB	00H
	ORG $+1
	DW	0ffffH
	DB	00H
	ORG $+1
	DW	0ffffH
	DB	00H
	ORG $+1
	DW	0ffffH
	DB	00H
	ORG $+3
	DD	0ffffffffH
	DD	00H
	DB	09H
	ORG $+1
	DW	0188H
	DB	02H
	DB	06H
	DW	0188H
	DB	02H
	DB	06H
	DW	0188H
	DB	02H
	DB	06H
	DW	0188H
	DB	02H
	DB	06H
	DB	099H
	DB	00H
	DB	00H
	ORG $+1
	DW	00H
	DB	00H
	ORG $+1
	DW	00H
	DB	00H
	ORG $+1
	DW	00H
	DB	00H
	ORG $+3
	DD	01fH
	DD	00H
	DB	09H
	ORG $+1
	DW	0198H
	DB	06H
	DB	0bH
	DW	0198H
	DB	06H
	DB	0bH
	DW	0198H
	DB	06H
	DB	0bH
	DW	0198H
	DB	06H
	DB	0bH
	DB	09aH
	DB	00H
	DB	00H
	ORG $+1
	DW	00H
	DB	00H
	ORG $+1
	DW	00H
	DB	00H
	ORG $+1
	DW	00H
	DB	00H
	ORG $+3
	DD	03fH
	DD	00H
	DB	09H
	ORG $+1
	DW	0188H
	DB	00H
	DB	01H
	DW	0188H
	DB	00H
	DB	01H
	DW	0188H
	DB	00H
	DB	01H
	DW	0188H
	DB	00H
	DB	01H
	DB	099H
	DB	00H
	DB	00H
	ORG $+1
	DW	00H
	DB	00H
	ORG $+1
	DW	00H
	DB	00H
	ORG $+1
	DW	00H
	DB	00H
	ORG $+3
	DD	03H
	DD	00H
	DB	0ffH
	ORG $+1
	DW	0ffH
	DB	00H
	DB	00H
	DW	0ffH
	DB	00H
	DB	00H
	DW	0ffH
	DB	00H
	DB	00H
	DW	0ffH
	DB	00H
	DB	00H
	DB	0ffH
	DB	00H
	DB	00H
	ORG $+1
	DW	0ffffH
	DB	00H
	ORG $+1
	DW	0ffffH
	DB	00H
	ORG $+1
	DW	0ffffH
	DB	00H
	ORG $+3
	DD	0ffffffffH
	DD	00H
	DB	09H
	ORG $+1
	DW	0188H
	DB	02H
	DB	06H
	DW	0188H
	DB	02H
	DB	06H
	DW	0188H
	DB	02H
	DB	06H
	DW	0188H
	DB	02H
	DB	06H
	DB	099H
	DB	021H
	DB	00H
	ORG $+1
	DW	00H
	DB	00H
	ORG $+1
	DW	00H
	DB	00H
	ORG $+1
	DW	00H
	DB	00H
	ORG $+3
	DD	01fH
	DD	00H
	DB	0ffH
	ORG $+1
	DW	0ffH
	DB	00H
	DB	00H
	DW	0ffH
	DB	00H
	DB	00H
	DW	0ffH
	DB	00H
	DB	00H
	DW	0ffH
	DB	00H
	DB	00H
	DB	0ffH
	DB	00H
	DB	00H
	ORG $+1
	DW	0ffffH
	DB	00H
	ORG $+1
	DW	0ffffH
	DB	00H
	ORG $+1
	DW	0ffffH
	DB	00H
	ORG $+3
	DD	0ffffffffH
	DD	00H
	DB	09H
	ORG $+1
	DW	0188H
	DB	09H
	DB	0dH
	DW	0188H
	DB	09H
	DB	0dH
	DW	0188H
	DB	09H
	DB	0dH
	DW	0188H
	DB	09H
	DB	0dH
	DB	099H
	DB	00H
	DB	00H
	ORG $+1
	DW	00H
	DB	00H
	ORG $+1
	DW	00H
	DB	00H
	ORG $+1
	DW	00H
	DB	00H
	ORG $+3
	DD	01fH
	DD	00H
	DB	09H
	ORG $+1
	DW	0198H
	DB	0cH
	DB	011H
	DW	0198H
	DB	0cH
	DB	011H
	DW	0198H
	DB	0cH
	DB	011H
	DW	0198H
	DB	0cH
	DB	011H
	DB	09aH
	DB	00H
	DB	00H
	ORG $+1
	DW	00H
	DB	00H
	ORG $+1
	DW	00H
	DB	00H
	ORG $+1
	DW	00H
	DB	00H
	ORG $+3
	DD	03fH
	DD	00H
	DB	09H
	ORG $+1
	DW	0188H
	DB	07H
	DB	08H
	DW	0188H
	DB	07H
	DB	08H
	DW	0188H
	DB	07H
	DB	08H
	DW	0188H
	DB	07H
	DB	08H
	DB	099H
	DB	00H
	DB	00H
	ORG $+1
	DW	00H
	DB	00H
	ORG $+1
	DW	00H
	DB	00H
	ORG $+1
	DW	00H
	DB	00H
	ORG $+3
	DD	03H
	DD	00H
	DB	0ffH
	ORG $+1
	DW	0ffH
	DB	00H
	DB	00H
	DW	0ffH
	DB	00H
	DB	00H
	DW	0ffH
	DB	00H
	DB	00H
	DW	0ffH
	DB	00H
	DB	00H
	DB	0ffH
	DB	00H
	DB	00H
	ORG $+1
	DW	0ffffH
	DB	00H
	ORG $+1
	DW	0ffffH
	DB	00H
	ORG $+1
	DW	0ffffH
	DB	00H
	ORG $+3
	DD	0ffffffffH
	DD	00H
	DB	09H
	ORG $+1
	DW	0188H
	DB	09H
	DB	0dH
	DW	0188H
	DB	09H
	DB	0dH
	DW	0188H
	DB	09H
	DB	0dH
	DW	0188H
	DB	09H
	DB	0dH
	DB	099H
	DB	021H
	DB	00H
	ORG $+1
	DW	00H
	DB	00H
	ORG $+1
	DW	00H
	DB	00H
	ORG $+1
	DW	00H
	DB	00H
	ORG $+3
	DD	01fH
	DD	00H
	DB	0ffH
	ORG $+1
	DW	0ffH
	DB	00H
	DB	00H
	DW	0ffH
	DB	00H
	DB	00H
	DW	0ffH
	DB	00H
	DB	00H
	DW	0ffH
	DB	00H
	DB	00H
	DB	0ffH
	DB	00H
	DB	00H
	ORG $+1
	DW	0ffffH
	DB	00H
	ORG $+1
	DW	0ffffH
	DB	00H
	ORG $+1
	DW	0ffffH
	DB	00H
	ORG $+3
	DD	0ffffffffH
	DD	00H
	DB	09H
	ORG $+1
	DW	0190H
	DB	02H
	DB	06H
	DW	0190H
	DB	02H
	DB	06H
	DW	0190H
	DB	09H
	DB	0dH
	DW	0190H
	DB	09H
	DB	0dH
	DB	08fH
	DB	00H
	DB	00H
	ORG $+1
	DW	00H
	DB	00H
	ORG $+1
	DW	00H
	DB	00H
	ORG $+1
	DW	00H
	DB	00H
	ORG $+3
	DD	01fH
	DD	00H
	DB	09H
	ORG $+1
	DW	0194H
	DB	00H
	DB	05H
	DW	0194H
	DB	00H
	DB	05H
	DW	0194H
	DB	06H
	DB	0bH
	DW	0194H
	DB	06H
	DB	0bH
	DB	090H
	DB	00H
	DB	00H
	ORG $+1
	DW	00H
	DB	00H
	ORG $+1
	DW	00H
	DB	00H
	ORG $+1
	DW	00H
	DB	00H
	ORG $+3
	DD	03fH
	DD	00H
	DB	09H
	ORG $+1
	DW	0190H
	DB	00H
	DB	01H
	DW	0190H
	DB	00H
	DB	01H
	DW	0190H
	DB	07H
	DB	08H
	DW	0190H
	DB	07H
	DB	08H
	DB	08fH
	DB	00H
	DB	00H
	ORG $+1
	DW	00H
	DB	00H
	ORG $+1
	DW	00H
	DB	00H
	ORG $+1
	DW	00H
	DB	00H
	ORG $+3
	DD	03H
	DD	00H
	DB	0ffH
	ORG $+1
	DW	0ffH
	DB	00H
	DB	00H
	DW	0ffH
	DB	00H
	DB	00H
	DW	0ffH
	DB	00H
	DB	00H
	DW	0ffH
	DB	00H
	DB	00H
	DB	0ffH
	DB	00H
	DB	00H
	ORG $+1
	DW	0ffffH
	DB	00H
	ORG $+1
	DW	0ffffH
	DB	00H
	ORG $+1
	DW	0ffffH
	DB	00H
	ORG $+3
	DD	0ffffffffH
	DD	00H
	DB	09H
	ORG $+1
	DW	0190H
	DB	02H
	DB	06H
	DW	0190H
	DB	02H
	DB	06H
	DW	0190H
	DB	09H
	DB	0dH
	DW	0190H
	DB	09H
	DB	0dH
	DB	08fH
	DB	021H
	DB	00H
	ORG $+1
	DW	00H
	DB	00H
	ORG $+1
	DW	00H
	DB	00H
	ORG $+1
	DW	00H
	DB	00H
	ORG $+3
	DD	01fH
	DD	00H
	DB	0ffH
	ORG $+1
	DW	0ffH
	DB	00H
	DB	00H
	DW	0ffH
	DB	00H
	DB	00H
	DW	0ffH
	DB	00H
	DB	00H
	DW	0ffH
	DB	00H
	DB	00H
	DB	0ffH
	DB	00H
	DB	00H
	ORG $+1
	DW	0ffffH
	DB	00H
	ORG $+1
	DW	0ffffH
	DB	00H
	ORG $+1
	DW	0ffffH
	DB	00H
	ORG $+3
	DD	0ffffffffH
	DD	00H
	DB	09H
	ORG $+1
	DW	01a0H
	DB	02H
	DB	06H
	DW	01a0H
	DB	02H
	DB	06H
	DW	01a0H
	DB	09H
	DB	0dH
	DW	01a0H
	DB	09H
	DB	0dH
	DB	091H
	DB	00H
	DB	00H
	ORG $+1
	DW	00H
	DB	00H
	ORG $+1
	DW	00H
	DB	00H
	ORG $+1
	DW	00H
	DB	00H
	ORG $+3
	DD	01fH
	DD	00H
	DB	09H
	ORG $+1
	DW	0194H
	DB	0cH
	DB	011H
	DW	0194H
	DB	0cH
	DB	011H
	DW	0198H
	DB	00H
	DB	05H
	DW	0198H
	DB	00H
	DB	05H
	DB	090H
	DB	00H
	DB	00H
	ORG $+1
	DW	00H
	DB	00H
	ORG $+1
	DW	00H
	DB	00H
	ORG $+1
	DW	00H
	DB	00H
	ORG $+3
	DD	03fH
	DD	00H
	DB	09H
	ORG $+1
	DW	01a0H
	DB	00H
	DB	01H
	DW	01a0H
	DB	00H
	DB	01H
	DW	01a0H
	DB	07H
	DB	08H
	DW	01a0H
	DB	07H
	DB	08H
	DB	091H
	DB	00H
	DB	00H
	ORG $+1
	DW	00H
	DB	00H
	ORG $+1
	DW	00H
	DB	00H
	ORG $+1
	DW	00H
	DB	00H
	ORG $+3
	DD	03H
	DD	00H
	DB	0ffH
	ORG $+1
	DW	0ffH
	DB	00H
	DB	00H
	DW	0ffH
	DB	00H
	DB	00H
	DW	0ffH
	DB	00H
	DB	00H
	DW	0ffH
	DB	00H
	DB	00H
	DB	0ffH
	DB	00H
	DB	00H
	ORG $+1
	DW	0ffffH
	DB	00H
	ORG $+1
	DW	0ffffH
	DB	00H
	ORG $+1
	DW	0ffffH
	DB	00H
	ORG $+3
	DD	0ffffffffH
	DD	00H
	DB	09H
	ORG $+1
	DW	01a0H
	DB	02H
	DB	06H
	DW	01a0H
	DB	02H
	DB	06H
	DW	01a0H
	DB	09H
	DB	0dH
	DW	01a0H
	DB	09H
	DB	0dH
	DB	091H
	DB	021H
	DB	00H
	ORG $+1
	DW	00H
	DB	00H
	ORG $+1
	DW	00H
	DB	00H
	ORG $+1
	DW	00H
	DB	00H
	ORG $+3
	DD	01fH
	DD	00H
	DB	0ffH
	ORG $+1
	DW	0ffH
	DB	00H
	DB	00H
	DW	0ffH
	DB	00H
	DB	00H
	DW	0ffH
	DB	00H
	DB	00H
	DW	0ffH
	DB	00H
	DB	00H
	DB	0ffH
	DB	00H
	DB	00H
	ORG $+1
	DW	0ffffH
	DB	00H
	ORG $+1
	DW	0ffffH
	DB	00H
	ORG $+1
	DW	0ffffH
	DB	00H
	ORG $+3
	DD	0ffffffffH
	DD	00H
	DB	07H
	ORG $+1
	DW	0190H
	DB	02H
	DB	06H
	DW	0190H
	DB	02H
	DB	06H
	DW	0190H
	DB	09H
	DB	0dH
	DW	0190H
	DB	09H
	DB	0dH
	DB	092H
	DB	00H
	DB	00H
	ORG $+1
	DW	00H
	DB	00H
	ORG $+1
	DW	00H
	DB	00H
	ORG $+1
	DW	00H
	DB	00H
	ORG $+3
	DD	01fH
	DD	00H
	DB	07H
	ORG $+1
	DW	0194H
	DB	00H
	DB	05H
	DW	0194H
	DB	00H
	DB	05H
	DW	0194H
	DB	06H
	DB	0bH
	DW	0194H
	DB	06H
	DB	0bH
	DB	093H
	DB	00H
	DB	00H
	ORG $+1
	DW	00H
	DB	00H
	ORG $+1
	DW	00H
	DB	00H
	ORG $+1
	DW	00H
	DB	00H
	ORG $+3
	DD	03fH
	DD	00H
	DB	07H
	ORG $+1
	DW	0190H
	DB	00H
	DB	01H
	DW	0190H
	DB	00H
	DB	01H
	DW	0190H
	DB	07H
	DB	08H
	DW	0190H
	DB	07H
	DB	08H
	DB	092H
	DB	00H
	DB	00H
	ORG $+1
	DW	00H
	DB	00H
	ORG $+1
	DW	00H
	DB	00H
	ORG $+1
	DW	00H
	DB	00H
	ORG $+3
	DD	03H
	DD	00H
	DB	0ffH
	ORG $+1
	DW	0ffH
	DB	00H
	DB	00H
	DW	0ffH
	DB	00H
	DB	00H
	DW	0ffH
	DB	00H
	DB	00H
	DW	0ffH
	DB	00H
	DB	00H
	DB	0ffH
	DB	00H
	DB	00H
	ORG $+1
	DW	0ffffH
	DB	00H
	ORG $+1
	DW	0ffffH
	DB	00H
	ORG $+1
	DW	0ffffH
	DB	00H
	ORG $+3
	DD	0ffffffffH
	DD	00H
	DB	07H
	ORG $+1
	DW	0190H
	DB	02H
	DB	06H
	DW	0190H
	DB	02H
	DB	06H
	DW	0190H
	DB	09H
	DB	0dH
	DW	0190H
	DB	09H
	DB	0dH
	DB	092H
	DB	021H
	DB	00H
	ORG $+1
	DW	00H
	DB	00H
	ORG $+1
	DW	00H
	DB	00H
	ORG $+1
	DW	00H
	DB	00H
	ORG $+3
	DD	01fH
	DD	00H
	DB	0ffH
	ORG $+1
	DW	0ffH
	DB	00H
	DB	00H
	DW	0ffH
	DB	00H
	DB	00H
	DW	0ffH
	DB	00H
	DB	00H
	DW	0ffH
	DB	00H
	DB	00H
	DB	0ffH
	DB	00H
	DB	00H
	ORG $+1
	DW	0ffffH
	DB	00H
	ORG $+1
	DW	0ffffH
	DB	00H
	ORG $+1
	DW	0ffffH
	DB	00H
	ORG $+3
	DD	0ffffffffH
	DD	00H
	DB	0ffH
	ORG $+1
	DW	0ffH
	DB	00H
	DB	00H
	DW	0ffH
	DB	00H
	DB	00H
	DW	0ffH
	DB	00H
	DB	00H
	DW	0ffH
	DB	00H
	DB	00H
	DB	0ffH
	DB	00H
	DB	00H
	ORG $+1
	DW	0ffffH
	DB	00H
	ORG $+1
	DW	0ffffH
	DB	00H
	ORG $+1
	DW	0ffffH
	DB	00H
	ORG $+3
	DD	0ffffffffH
	DD	00H
	DB	02H
	ORG $+1
	DW	0214H
	DB	00H
	DB	06H
	DW	0214H
	DB	07H
	DB	0dH
	DW	0214H
	DB	0eH
	DB	014H
	DW	0214H
	DB	015H
	DB	01bH
	DB	08aH
	DB	00H
	DB	00H
	ORG $+1
	DW	00H
	DB	00H
	ORG $+1
	DW	04H
	DB	00H
	ORG $+1
	DW	00H
	DB	00H
	ORG $+3
	DD	07fH
	DD	00H
	DB	0ffH
	ORG $+1
	DW	0ffH
	DB	00H
	DB	00H
	DW	0ffH
	DB	00H
	DB	00H
	DW	0ffH
	DB	00H
	DB	00H
	DW	0ffH
	DB	00H
	DB	00H
	DB	0ffH
	DB	00H
	DB	00H
	ORG $+1
	DW	0ffffH
	DB	00H
	ORG $+1
	DW	0ffffH
	DB	00H
	ORG $+1
	DW	0ffffH
	DB	00H
	ORG $+3
	DD	0ffffffffH
	DD	00H
	DB	0ffH
	ORG $+1
	DW	0ffH
	DB	00H
	DB	00H
	DW	0ffH
	DB	00H
	DB	00H
	DW	0ffH
	DB	00H
	DB	00H
	DW	0ffH
	DB	00H
	DB	00H
	DB	0ffH
	DB	00H
	DB	00H
	ORG $+1
	DW	0ffffH
	DB	00H
	ORG $+1
	DW	0ffffH
	DB	00H
	ORG $+1
	DW	0ffffH
	DB	00H
	ORG $+3
	DD	0ffffffffH
	DD	00H
	DB	0ffH
	ORG $+1
	DW	0ffH
	DB	00H
	DB	00H
	DW	0ffH
	DB	00H
	DB	00H
	DW	0ffH
	DB	00H
	DB	00H
	DW	0ffH
	DB	00H
	DB	00H
	DB	0ffH
	DB	00H
	DB	00H
	ORG $+1
	DW	0ffffH
	DB	00H
	ORG $+1
	DW	0ffffH
	DB	00H
	ORG $+1
	DW	0ffffH
	DB	00H
	ORG $+3
	DD	0ffffffffH
	DD	00H
	DB	0ffH
	ORG $+1
	DW	0ffH
	DB	00H
	DB	00H
	DW	0ffH
	DB	00H
	DB	00H
	DW	0ffH
	DB	00H
	DB	00H
	DW	0ffH
	DB	00H
	DB	00H
	DB	0ffH
	DB	00H
	DB	00H
	ORG $+1
	DW	0ffffH
	DB	00H
	ORG $+1
	DW	0ffffH
	DB	00H
	ORG $+1
	DW	0ffffH
	DB	00H
	ORG $+3
	DD	0ffffffffH
	DD	00H
	DB	0ffH
	ORG $+1
	DW	0ffH
	DB	00H
	DB	00H
	DW	0ffH
	DB	00H
	DB	00H
	DW	0ffH
	DB	00H
	DB	00H
	DW	0ffH
	DB	00H
	DB	00H
	DB	0ffH
	DB	00H
	DB	00H
	ORG $+1
	DW	0ffffH
	DB	00H
	ORG $+1
	DW	0ffffH
	DB	00H
	ORG $+1
	DW	0ffffH
	DB	00H
	ORG $+3
	DD	0ffffffffH
	DD	00H
	DB	02H
	ORG $+1
	DW	020cH
	DB	00H
	DB	06H
	DW	020cH
	DB	07H
	DB	0dH
	DW	020cH
	DB	0eH
	DB	014H
	DW	020cH
	DB	015H
	DB	01bH
	DB	089H
	DB	00H
	DB	00H
	ORG $+1
	DW	00H
	DB	00H
	ORG $+1
	DW	04H
	DB	00H
	ORG $+1
	DW	00H
	DB	00H
	ORG $+3
	DD	07fH
	DD	00H
	DB	0ffH
	ORG $+1
	DW	0ffH
	DB	00H
	DB	00H
	DW	0ffH
	DB	00H
	DB	00H
	DW	0ffH
	DB	00H
	DB	00H
	DW	0ffH
	DB	00H
	DB	00H
	DB	0ffH
	DB	00H
	DB	00H
	ORG $+1
	DW	0ffffH
	DB	00H
	ORG $+1
	DW	0ffffH
	DB	00H
	ORG $+1
	DW	0ffffH
	DB	00H
	ORG $+3
	DD	0ffffffffH
	DD	00H
	DB	0ffH
	ORG $+1
	DW	0ffH
	DB	00H
	DB	00H
	DW	0ffH
	DB	00H
	DB	00H
	DW	0ffH
	DB	00H
	DB	00H
	DW	0ffH
	DB	00H
	DB	00H
	DB	0ffH
	DB	00H
	DB	00H
	ORG $+1
	DW	0ffffH
	DB	00H
	ORG $+1
	DW	0ffffH
	DB	00H
	ORG $+1
	DW	0ffffH
	DB	00H
	ORG $+3
	DD	0ffffffffH
	DD	00H
	DB	0ffH
	ORG $+1
	DW	0ffH
	DB	00H
	DB	00H
	DW	0ffH
	DB	00H
	DB	00H
	DW	0ffH
	DB	00H
	DB	00H
	DW	0ffH
	DB	00H
	DB	00H
	DB	0ffH
	DB	00H
	DB	00H
	ORG $+1
	DW	0ffffH
	DB	00H
	ORG $+1
	DW	0ffffH
	DB	00H
	ORG $+1
	DW	0ffffH
	DB	00H
	ORG $+3
	DD	0ffffffffH
	DD	00H
	DB	0ffH
	ORG $+1
	DW	0ffH
	DB	00H
	DB	00H
	DW	0ffH
	DB	00H
	DB	00H
	DW	0ffH
	DB	00H
	DB	00H
	DW	0ffH
	DB	00H
	DB	00H
	DB	0ffH
	DB	00H
	DB	00H
	ORG $+1
	DW	0ffffH
	DB	00H
	ORG $+1
	DW	0ffffH
	DB	00H
	ORG $+1
	DW	0ffffH
	DB	00H
	ORG $+3
	DD	0ffffffffH
	DD	00H
	DB	02H
	ORG $+1
	DW	01d4H
	DB	08H
	DB	0cH
	DW	01d4H
	DB	0dH
	DB	011H
	DW	01d4H
	DB	012H
	DB	016H
	DW	01d4H
	DB	017H
	DB	01bH
	DB	082H
	DB	00H
	DB	00H
	ORG $+1
	DW	00H
	DB	00H
	ORG $+1
	DW	04H
	DB	00H
	ORG $+1
	DW	00H
	DB	00H
	ORG $+3
	DD	01fH
	DD	00H
	DB	02H
	ORG $+1
	DW	01e4H
	DB	00H
	DB	05H
	DW	01e4H
	DB	06H
	DB	0bH
	DW	01e4H
	DB	0cH
	DB	011H
	DW	01e4H
	DB	012H
	DB	017H
	DB	083H
	DB	00H
	DB	00H
	ORG $+1
	DW	00H
	DB	00H
	ORG $+1
	DW	04H
	DB	00H
	ORG $+1
	DW	00H
	DB	00H
	ORG $+3
	DD	03fH
	DD	00H
	DB	02H
	ORG $+1
	DW	01d4H
	DB	00H
	DB	01H
	DW	01d4H
	DB	02H
	DB	03H
	DW	01d4H
	DB	04H
	DB	05H
	DW	01d4H
	DB	06H
	DB	07H
	DB	082H
	DB	00H
	DB	00H
	ORG $+1
	DW	00H
	DB	00H
	ORG $+1
	DW	04H
	DB	00H
	ORG $+1
	DW	00H
	DB	00H
	ORG $+3
	DD	03H
	DD	00H
	DB	0ffH
	ORG $+1
	DW	0ffH
	DB	00H
	DB	00H
	DW	0ffH
	DB	00H
	DB	00H
	DW	0ffH
	DB	00H
	DB	00H
	DW	0ffH
	DB	00H
	DB	00H
	DB	0ffH
	DB	00H
	DB	00H
	ORG $+1
	DW	0ffffH
	DB	00H
	ORG $+1
	DW	0ffffH
	DB	00H
	ORG $+1
	DW	0ffffH
	DB	00H
	ORG $+3
	DD	0ffffffffH
	DD	00H
	DB	02H
	ORG $+1
	DW	01d4H
	DB	08H
	DB	0cH
	DW	01d4H
	DB	0dH
	DB	011H
	DW	01d4H
	DB	012H
	DB	016H
	DW	01d4H
	DB	017H
	DB	01bH
	DB	082H
	DB	021H
	DB	00H
	ORG $+1
	DW	00H
	DB	00H
	ORG $+1
	DW	04H
	DB	00H
	ORG $+1
	DW	00H
	DB	00H
	ORG $+3
	DD	01fH
	DD	00H
	DB	0ffH
	ORG $+1
	DW	0ffH
	DB	00H
	DB	00H
	DW	0ffH
	DB	00H
	DB	00H
	DW	0ffH
	DB	00H
	DB	00H
	DW	0ffH
	DB	00H
	DB	00H
	DB	0ffH
	DB	00H
	DB	00H
	ORG $+1
	DW	0ffffH
	DB	00H
	ORG $+1
	DW	0ffffH
	DB	00H
	ORG $+1
	DW	0ffffH
	DB	00H
	ORG $+3
	DD	0ffffffffH
	DD	00H
	DB	02H
	ORG $+1
	DW	01dcH
	DB	08H
	DB	0bH
	DW	01dcH
	DB	0cH
	DB	0fH
	DW	01dcH
	DB	010H
	DB	013H
	DW	01dcH
	DB	014H
	DB	017H
	DB	084H
	DB	00H
	DB	00H
	ORG $+1
	DW	00H
	DB	00H
	ORG $+1
	DW	04H
	DB	00H
	ORG $+1
	DW	00H
	DB	00H
	ORG $+3
	DD	0fH
	DD	00H
	DB	02H
	ORG $+1
	DW	01e4H
	DB	00H
	DB	05H
	DW	01e4H
	DB	06H
	DB	0bH
	DW	01e4H
	DB	0cH
	DB	011H
	DW	01e4H
	DB	012H
	DB	017H
	DB	085H
	DB	00H
	DB	00H
	ORG $+1
	DW	00H
	DB	00H
	ORG $+1
	DW	04H
	DB	00H
	ORG $+1
	DW	00H
	DB	00H
	ORG $+3
	DD	03fH
	DD	00H
	DB	02H
	ORG $+1
	DW	01dcH
	DB	00H
	DB	01H
	DW	01dcH
	DB	02H
	DB	03H
	DW	01dcH
	DB	04H
	DB	05H
	DW	01dcH
	DB	06H
	DB	07H
	DB	084H
	DB	00H
	DB	00H
	ORG $+1
	DW	00H
	DB	00H
	ORG $+1
	DW	04H
	DB	00H
	ORG $+1
	DW	00H
	DB	00H
	ORG $+3
	DD	03H
	DD	00H
	DB	0ffH
	ORG $+1
	DW	0ffH
	DB	00H
	DB	00H
	DW	0ffH
	DB	00H
	DB	00H
	DW	0ffH
	DB	00H
	DB	00H
	DW	0ffH
	DB	00H
	DB	00H
	DB	0ffH
	DB	00H
	DB	00H
	ORG $+1
	DW	0ffffH
	DB	00H
	ORG $+1
	DW	0ffffH
	DB	00H
	ORG $+1
	DW	0ffffH
	DB	00H
	ORG $+3
	DD	0ffffffffH
	DD	00H
	DB	02H
	ORG $+1
	DW	01dcH
	DB	08H
	DB	0bH
	DW	01dcH
	DB	0cH
	DB	0fH
	DW	01dcH
	DB	010H
	DB	013H
	DW	01dcH
	DB	014H
	DB	017H
	DB	084H
	DB	021H
	DB	00H
	ORG $+1
	DW	00H
	DB	00H
	ORG $+1
	DW	04H
	DB	00H
	ORG $+1
	DW	00H
	DB	00H
	ORG $+3
	DD	0fH
	DD	00H
	DB	0ffH
	ORG $+1
	DW	0ffH
	DB	00H
	DB	00H
	DW	0ffH
	DB	00H
	DB	00H
	DW	0ffH
	DB	00H
	DB	00H
	DW	0ffH
	DB	00H
	DB	00H
	DB	0ffH
	DB	00H
	DB	00H
	ORG $+1
	DW	0ffffH
	DB	00H
	ORG $+1
	DW	0ffffH
	DB	00H
	ORG $+1
	DW	0ffffH
	DB	00H
	ORG $+3
	DD	0ffffffffH
	DD	00H
	DB	02H
	ORG $+1
	DW	01d4H
	DB	08H
	DB	0cH
	DW	01d4H
	DB	0dH
	DB	011H
	DW	01d4H
	DB	012H
	DB	016H
	DW	01d4H
	DB	017H
	DB	01bH
	DB	082H
	DB	00H
	DB	00H
	ORG $+1
	DW	00H
	DB	00H
	ORG $+1
	DW	04H
	DB	00H
	ORG $+1
	DW	00H
	DB	00H
	ORG $+3
	DD	01fH
	DD	00H
	DB	02H
	ORG $+1
	DW	01e4H
	DB	00H
	DB	05H
	DW	01e4H
	DB	06H
	DB	0bH
	DW	01e4H
	DB	0cH
	DB	011H
	DW	01e4H
	DB	012H
	DB	017H
	DB	083H
	DB	00H
	DB	00H
	ORG $+1
	DW	00H
	DB	00H
	ORG $+1
	DW	04H
	DB	00H
	ORG $+1
	DW	00H
	DB	00H
	ORG $+3
	DD	03fH
	DD	00H
	DB	02H
	ORG $+1
	DW	01d4H
	DB	00H
	DB	01H
	DW	01d4H
	DB	02H
	DB	03H
	DW	01d4H
	DB	04H
	DB	05H
	DW	01d4H
	DB	06H
	DB	07H
	DB	082H
	DB	00H
	DB	00H
	ORG $+1
	DW	00H
	DB	00H
	ORG $+1
	DW	04H
	DB	00H
	ORG $+1
	DW	00H
	DB	00H
	ORG $+3
	DD	03H
	DD	00H
	DB	0ffH
	ORG $+1
	DW	0ffH
	DB	00H
	DB	00H
	DW	0ffH
	DB	00H
	DB	00H
	DW	0ffH
	DB	00H
	DB	00H
	DW	0ffH
	DB	00H
	DB	00H
	DB	0ffH
	DB	00H
	DB	00H
	ORG $+1
	DW	0ffffH
	DB	00H
	ORG $+1
	DW	0ffffH
	DB	00H
	ORG $+1
	DW	0ffffH
	DB	00H
	ORG $+3
	DD	0ffffffffH
	DD	00H
	DB	02H
	ORG $+1
	DW	01d4H
	DB	08H
	DB	0cH
	DW	01d4H
	DB	0dH
	DB	011H
	DW	01d4H
	DB	012H
	DB	016H
	DW	01d4H
	DB	017H
	DB	01bH
	DB	082H
	DB	021H
	DB	00H
	ORG $+1
	DW	00H
	DB	00H
	ORG $+1
	DW	04H
	DB	00H
	ORG $+1
	DW	00H
	DB	00H
	ORG $+3
	DD	01fH
	DD	00H
	DB	0ffH
	ORG $+1
	DW	0ffH
	DB	00H
	DB	00H
	DW	0ffH
	DB	00H
	DB	00H
	DW	0ffH
	DB	00H
	DB	00H
	DW	0ffH
	DB	00H
	DB	00H
	DB	0ffH
	DB	00H
	DB	00H
	ORG $+1
	DW	0ffffH
	DB	00H
	ORG $+1
	DW	0ffffH
	DB	00H
	ORG $+1
	DW	0ffffH
	DB	00H
	ORG $+3
	DD	0ffffffffH
	DD	00H
	DB	02H
	ORG $+1
	DW	01dcH
	DB	08H
	DB	0bH
	DW	01dcH
	DB	0cH
	DB	0fH
	DW	01dcH
	DB	010H
	DB	013H
	DW	01dcH
	DB	014H
	DB	017H
	DB	084H
	DB	00H
	DB	00H
	ORG $+1
	DW	00H
	DB	00H
	ORG $+1
	DW	04H
	DB	00H
	ORG $+1
	DW	00H
	DB	00H
	ORG $+3
	DD	0fH
	DD	00H
	DB	02H
	ORG $+1
	DW	01e4H
	DB	00H
	DB	05H
	DW	01e4H
	DB	06H
	DB	0bH
	DW	01e4H
	DB	0cH
	DB	011H
	DW	01e4H
	DB	012H
	DB	017H
	DB	085H
	DB	00H
	DB	00H
	ORG $+1
	DW	00H
	DB	00H
	ORG $+1
	DW	04H
	DB	00H
	ORG $+1
	DW	00H
	DB	00H
	ORG $+3
	DD	03fH
	DD	00H
	DB	02H
	ORG $+1
	DW	01dcH
	DB	00H
	DB	01H
	DW	01dcH
	DB	02H
	DB	03H
	DW	01dcH
	DB	04H
	DB	05H
	DW	01dcH
	DB	06H
	DB	07H
	DB	084H
	DB	00H
	DB	00H
	ORG $+1
	DW	00H
	DB	00H
	ORG $+1
	DW	04H
	DB	00H
	ORG $+1
	DW	00H
	DB	00H
	ORG $+3
	DD	03H
	DD	00H
	DB	0ffH
	ORG $+1
	DW	0ffH
	DB	00H
	DB	00H
	DW	0ffH
	DB	00H
	DB	00H
	DW	0ffH
	DB	00H
	DB	00H
	DW	0ffH
	DB	00H
	DB	00H
	DB	0ffH
	DB	00H
	DB	00H
	ORG $+1
	DW	0ffffH
	DB	00H
	ORG $+1
	DW	0ffffH
	DB	00H
	ORG $+1
	DW	0ffffH
	DB	00H
	ORG $+3
	DD	0ffffffffH
	DD	00H
	DB	02H
	ORG $+1
	DW	01dcH
	DB	08H
	DB	0bH
	DW	01dcH
	DB	0cH
	DB	0fH
	DW	01dcH
	DB	010H
	DB	013H
	DW	01dcH
	DB	014H
	DB	017H
	DB	084H
	DB	021H
	DB	00H
	ORG $+1
	DW	00H
	DB	00H
	ORG $+1
	DW	04H
	DB	00H
	ORG $+1
	DW	00H
	DB	00H
	ORG $+3
	DD	0fH
	DD	00H
	DB	0ffH
	ORG $+1
	DW	0ffH
	DB	00H
	DB	00H
	DW	0ffH
	DB	00H
	DB	00H
	DW	0ffH
	DB	00H
	DB	00H
	DW	0ffH
	DB	00H
	DB	00H
	DB	0ffH
	DB	00H
	DB	00H
	ORG $+1
	DW	0ffffH
	DB	00H
	ORG $+1
	DW	0ffffH
	DB	00H
	ORG $+1
	DW	0ffffH
	DB	00H
	ORG $+3
	DD	0ffffffffH
	DD	00H
	DB	02H
	ORG $+1
	DW	01ecH
	DB	08H
	DB	0bH
	DW	01ecH
	DB	0cH
	DB	0fH
	DW	01ecH
	DB	010H
	DB	013H
	DW	01ecH
	DB	014H
	DB	017H
	DB	087H
	DB	00H
	DB	00H
	ORG $+1
	DW	00H
	DB	00H
	ORG $+1
	DW	04H
	DB	00H
	ORG $+1
	DW	00H
	DB	00H
	ORG $+3
	DD	0fH
	DD	00H
	DB	02H
	ORG $+1
	DW	01f4H
	DB	00H
	DB	05H
	DW	01f4H
	DB	06H
	DB	0bH
	DW	01f4H
	DB	0cH
	DB	011H
	DW	01f4H
	DB	012H
	DB	017H
	DB	088H
	DB	00H
	DB	00H
	ORG $+1
	DW	00H
	DB	00H
	ORG $+1
	DW	04H
	DB	00H
	ORG $+1
	DW	00H
	DB	00H
	ORG $+3
	DD	03fH
	DD	00H
	DB	02H
	ORG $+1
	DW	01ecH
	DB	00H
	DB	01H
	DW	01ecH
	DB	02H
	DB	03H
	DW	01ecH
	DB	04H
	DB	05H
	DW	01ecH
	DB	06H
	DB	07H
	DB	087H
	DB	00H
	DB	00H
	ORG $+1
	DW	00H
	DB	00H
	ORG $+1
	DW	04H
	DB	00H
	ORG $+1
	DW	00H
	DB	00H
	ORG $+3
	DD	03H
	DD	00H
	DB	0ffH
	ORG $+1
	DW	0ffH
	DB	00H
	DB	00H
	DW	0ffH
	DB	00H
	DB	00H
	DW	0ffH
	DB	00H
	DB	00H
	DW	0ffH
	DB	00H
	DB	00H
	DB	0ffH
	DB	00H
	DB	00H
	ORG $+1
	DW	0ffffH
	DB	00H
	ORG $+1
	DW	0ffffH
	DB	00H
	ORG $+1
	DW	0ffffH
	DB	00H
	ORG $+3
	DD	0ffffffffH
	DD	00H
	DB	02H
	ORG $+1
	DW	01ecH
	DB	08H
	DB	0bH
	DW	01ecH
	DB	0cH
	DB	0fH
	DW	01ecH
	DB	010H
	DB	013H
	DW	01ecH
	DB	014H
	DB	017H
	DB	087H
	DB	021H
	DB	00H
	ORG $+1
	DW	00H
	DB	00H
	ORG $+1
	DW	04H
	DB	00H
	ORG $+1
	DW	00H
	DB	00H
	ORG $+3
	DD	0fH
	DD	00H
	DB	0feH
	ORG $+1
	DW	00H
	DB	00H
	DB	00H
	DW	00H
	DB	00H
	DB	00H
	DW	00H
	DB	00H
	DB	00H
	DW	00H
	DB	00H
	DB	00H
	DB	04H
	DB	00H
	DB	00H
	ORG $+1
	DW	00H
	DB	00H
	ORG $+1
	DW	00H
	DB	00H
	ORG $+1
	DW	00H
	DB	00H
	ORG $+3
	DD	05fH
	DD	00H
	DB	02H
	ORG $+1
	DW	02c0H
	DB	01H
	DB	03H
	DW	02c0H
	DB	01H
	DB	03H
	DW	02c0H
	DB	01H
	DB	03H
	DW	02c0H
	DB	01H
	DB	03H
	DB	09bH
	DB	00H
	DB	00H
	ORG $+1
	DW	00H
	DB	00H
	ORG $+1
	DW	00H
	DB	00H
	ORG $+1
	DW	00H
	DB	00H
	ORG $+3
	DD	07H
	DD	00H
	DB	02H
	ORG $+1
	DW	02c0H
	DB	07H
	DB	08H
	DW	02c0H
	DB	07H
	DB	08H
	DW	02c0H
	DB	07H
	DB	08H
	DW	02c0H
	DB	07H
	DB	08H
	DB	09bH
	DB	00H
	DB	00H
	ORG $+1
	DW	00H
	DB	00H
	ORG $+1
	DW	00H
	DB	00H
	ORG $+1
	DW	00H
	DB	00H
	ORG $+3
	DD	03H
	DD	00H
	DB	02H
	ORG $+1
	DW	02ccH
	DB	0bH
	DB	0cH
	DW	02ccH
	DB	0bH
	DB	0cH
	DW	02ccH
	DB	0bH
	DB	0cH
	DW	02ccH
	DB	0bH
	DB	0cH
	DB	09cH
	DB	00H
	DB	00H
	ORG $+1
	DW	00H
	DB	00H
	ORG $+1
	DW	00H
	DB	00H
	ORG $+1
	DW	00H
	DB	00H
	ORG $+3
	DD	03H
	DD	00H
	DB	02H
	ORG $+1
	DW	02c0H
	DB	06H
	DB	06H
	DW	02c0H
	DB	06H
	DB	06H
	DW	02c0H
	DB	06H
	DB	06H
	DW	02c0H
	DB	06H
	DB	06H
	DB	09bH
	DB	00H
	DB	00H
	ORG $+1
	DW	00H
	DB	00H
	ORG $+1
	DW	00H
	DB	00H
	ORG $+1
	DW	00H
	DB	00H
	ORG $+3
	DD	01H
	DD	00H
	DB	0feH
	ORG $+1
	DW	01H
	DB	00H
	DB	00H
	DW	01H
	DB	00H
	DB	00H
	DW	01H
	DB	00H
	DB	00H
	DW	01H
	DB	00H
	DB	00H
	DB	08H
	DB	00H
	DB	01H
	ORG $+1
	DW	00H
	DB	00H
	ORG $+1
	DW	00H
	DB	00H
	ORG $+1
	DW	00H
	DB	00H
	ORG $+3
	DD	027H
	DD	00H
	DB	02H
	ORG $+1
	DW	01acH
	DB	013H
	DB	018H
	DW	01acH
	DB	013H
	DB	018H
	DW	01acH
	DB	013H
	DB	018H
	DW	01acH
	DB	013H
	DB	018H
	DB	0bH
	DB	00H
	DB	00H
	ORG $+1
	DW	00H
	DB	00H
	ORG $+1
	DW	00H
	DB	00H
	ORG $+1
	DW	00H
	DB	00H
	ORG $+3
	DD	03fH
	DD	00H
	DB	02H
	ORG $+1
	DW	0198H
	DB	014H
	DB	015H
	DW	0198H
	DB	014H
	DB	015H
	DW	0198H
	DB	014H
	DB	015H
	DW	0198H
	DB	014H
	DB	015H
	DB	09fH
	DB	00H
	DB	00H
	ORG $+1
	DW	00H
	DB	00H
	ORG $+1
	DW	04H
	DB	00H
	ORG $+1
	DW	00H
	DB	00H
	ORG $+3
	DD	03H
	DD	00H
	DB	02H
	ORG $+1
	DW	01c4H
	DB	012H
	DB	012H
	DW	01c4H
	DB	012H
	DB	012H
	DW	01c4H
	DB	012H
	DB	012H
	DW	01c4H
	DB	012H
	DB	012H
	DB	0fH
	DB	00H
	DB	00H
	ORG $+1
	DW	00H
	DB	00H
	ORG $+1
	DW	08H
	DB	00H
	ORG $+1
	DW	00H
	DB	00H
	ORG $+3
	DD	01H
	DD	00H
	DB	02H
	ORG $+1
	DW	01b4H
	DB	00H
	DB	03H
	DW	01b4H
	DB	04H
	DB	07H
	DW	01b4H
	DB	08H
	DB	0bH
	DW	01b4H
	DB	0cH
	DB	0fH
	DB	09dH
	DB	00H
	DB	00H
	ORG $+1
	DW	00H
	DB	00H
	ORG $+1
	DW	00H
	DB	00H
	ORG $+1
	DW	00H
	DB	00H
	ORG $+3
	DD	0fH
	DD	00H
	DB	02H
	ORG $+1
	DW	01bcH
	DB	00H
	DB	03H
	DW	01bcH
	DB	04H
	DB	07H
	DW	01bcH
	DB	08H
	DB	0bH
	DW	01bcH
	DB	0cH
	DB	0fH
	DB	09eH
	DB	00H
	DB	00H
	ORG $+1
	DW	00H
	DB	00H
	ORG $+1
	DW	00H
	DB	00H
	ORG $+1
	DW	00H
	DB	00H
	ORG $+3
	DD	0fH
	DD	00H
	DB	02H
	ORG $+1
	DW	01a0H
	DB	00H
	DB	04H
	DW	01a0H
	DB	00H
	DB	04H
	DW	01a0H
	DB	00H
	DB	04H
	DW	01a0H
	DB	00H
	DB	04H
	DB	0eH
	DB	00H
	DB	00H
	ORG $+1
	DW	00H
	DB	00H
	ORG $+1
	DW	00H
	DB	00H
	ORG $+1
	DW	00H
	DB	00H
	ORG $+3
	DD	01fH
	DD	00H
	DB	02H
	ORG $+1
	DW	01c8H
	DB	05H
	DB	09H
	DW	01c8H
	DB	05H
	DB	09H
	DW	01c8H
	DB	05H
	DB	09H
	DW	01c8H
	DB	05H
	DB	09H
	DB	010H
	DB	00H
	DB	00H
	ORG $+1
	DW	00H
	DB	00H
	ORG $+1
	DW	08H
	DB	00H
	ORG $+1
	DW	00H
	DB	00H
	ORG $+3
	DD	01fH
	DD	00H
	DB	02H
	ORG $+1
	DW	01c4H
	DB	015H
	DB	015H
	DW	01c4H
	DB	015H
	DB	015H
	DW	01c4H
	DB	015H
	DB	015H
	DW	01c4H
	DB	015H
	DB	015H
	DB	0fH
	DB	00H
	DB	00H
	ORG $+1
	DW	00H
	DB	00H
	ORG $+1
	DW	08H
	DB	00H
	ORG $+1
	DW	00H
	DB	00H
	ORG $+3
	DD	01H
	DD	00H
	DB	02H
	ORG $+1
	DW	01c4H
	DB	014H
	DB	014H
	DW	01c4H
	DB	014H
	DB	014H
	DW	01c4H
	DB	014H
	DB	014H
	DW	01c4H
	DB	014H
	DB	014H
	DB	0fH
	DB	00H
	DB	00H
	ORG $+1
	DW	00H
	DB	00H
	ORG $+1
	DW	08H
	DB	00H
	ORG $+1
	DW	00H
	DB	00H
	ORG $+3
	DD	01H
	DD	00H
	DB	02H
	ORG $+1
	DW	0228H
	DB	00H
	DB	00H
	DW	0228H
	DB	00H
	DB	00H
	DW	0228H
	DB	00H
	DB	00H
	DW	0228H
	DB	00H
	DB	00H
	DB	086H
	DB	00H
	DB	00H
	ORG $+1
	DW	00H
	DB	00H
	ORG $+1
	DW	00H
	DB	01H
	ORG $+1
	DW	00H
	DB	00H
	ORG $+3
	DD	01H
	DD	00H
	DB	02H
	ORG $+1
	DW	01c4H
	DB	016H
	DB	016H
	DW	01c4H
	DB	016H
	DB	016H
	DW	01c4H
	DB	016H
	DB	016H
	DW	01c4H
	DB	016H
	DB	016H
	DB	0fH
	DB	00H
	DB	00H
	ORG $+1
	DW	00H
	DB	00H
	ORG $+1
	DW	08H
	DB	00H
	ORG $+1
	DW	00H
	DB	00H
	ORG $+3
	DD	01H
	DD	00H
	DB	02H
	ORG $+1
	DW	01c4H
	DB	013H
	DB	013H
	DW	01c4H
	DB	013H
	DB	013H
	DW	01c4H
	DB	013H
	DB	013H
	DW	01c4H
	DB	013H
	DB	013H
	DB	0fH
	DB	00H
	DB	00H
	ORG $+1
	DW	00H
	DB	00H
	ORG $+1
	DW	08H
	DB	00H
	ORG $+1
	DW	00H
	DB	00H
	ORG $+3
	DD	01H
	DD	00H
	DB	0feH
	ORG $+1
	DW	02H
	DB	00H
	DB	00H
	DW	02H
	DB	00H
	DB	00H
	DW	02H
	DB	00H
	DB	00H
	DW	02H
	DB	00H
	DB	00H
	DB	0a0H
	DB	00H
	DB	01H
	ORG $+1
	DW	00H
	DB	00H
	ORG $+1
	DW	00H
	DB	00H
	ORG $+1
	DW	00H
	DB	00H
	ORG $+3
	DD	0127H
	DD	00H
	DB	02H
	ORG $+1
	DW	02c0H
	DB	00H
	DB	00H
	DW	02c0H
	DB	00H
	DB	00H
	DW	02c0H
	DB	00H
	DB	00H
	DW	02c0H
	DB	00H
	DB	00H
	DB	09bH
	DB	00H
	DB	00H
	ORG $+1
	DW	00H
	DB	00H
	ORG $+1
	DW	00H
	DB	00H
	ORG $+1
	DW	00H
	DB	00H
	ORG $+3
	DD	01H
	DD	00H
	DB	02H
	ORG $+1
	DW	0224H
	DB	00H
	DB	03H
	DW	0224H
	DB	00H
	DB	03H
	DW	0224H
	DB	00H
	DB	03H
	DW	0224H
	DB	00H
	DB	03H
	DB	08cH
	DB	00H
	DB	00H
	ORG $+1
	DW	00H
	DB	00H
	ORG $+1
	DW	00H
	DB	06H
	ORG $+1
	DW	00H
	DB	00H
	ORG $+3
	DD	0fH
	DD	00H
	DB	02H
	ORG $+1
	DW	02c4H
	DB	00H
	DB	03H
	DW	02c4H
	DB	00H
	DB	03H
	DW	02c4H
	DB	00H
	DB	03H
	DW	02c4H
	DB	00H
	DB	03H
	DB	05H
	DB	00H
	DB	00H
	ORG $+1
	DW	00H
	DB	00H
	ORG $+1
	DW	04H
	DB	00H
	ORG $+1
	DW	00H
	DB	00H
	ORG $+3
	DD	0fH
	DD	00H
	DB	02H
	ORG $+1
	DW	02c4H
	DB	04H
	DB	07H
	DW	02c4H
	DB	04H
	DB	07H
	DW	02c4H
	DB	04H
	DB	07H
	DW	02c4H
	DB	04H
	DB	07H
	DB	05H
	DB	00H
	DB	00H
	ORG $+1
	DW	00H
	DB	00H
	ORG $+1
	DW	04H
	DB	00H
	ORG $+1
	DW	00H
	DB	00H
	ORG $+3
	DD	0fH
	DD	00H
	DB	02H
	ORG $+1
	DW	02c4H
	DB	08H
	DB	0bH
	DW	02c4H
	DB	08H
	DB	0bH
	DW	02c4H
	DB	08H
	DB	0bH
	DW	02c4H
	DB	08H
	DB	0bH
	DB	05H
	DB	00H
	DB	00H
	ORG $+1
	DW	00H
	DB	00H
	ORG $+1
	DW	04H
	DB	00H
	ORG $+1
	DW	00H
	DB	00H
	ORG $+3
	DD	0fH
	DD	00H
	DB	02H
	ORG $+1
	DW	02c4H
	DB	0cH
	DB	0fH
	DW	02c4H
	DB	0cH
	DB	0fH
	DW	02c4H
	DB	0cH
	DB	0fH
	DW	02c4H
	DB	0cH
	DB	0fH
	DB	05H
	DB	00H
	DB	00H
	ORG $+1
	DW	00H
	DB	00H
	ORG $+1
	DW	04H
	DB	00H
	ORG $+1
	DW	00H
	DB	00H
	ORG $+3
	DD	0fH
	DD	00H
	DB	02H
	ORG $+1
	DW	02c8H
	DB	00H
	DB	03H
	DW	02c8H
	DB	00H
	DB	03H
	DW	02c8H
	DB	00H
	DB	03H
	DW	02c8H
	DB	00H
	DB	03H
	DB	06H
	DB	00H
	DB	00H
	ORG $+1
	DW	00H
	DB	00H
	ORG $+1
	DW	04H
	DB	00H
	ORG $+1
	DW	00H
	DB	00H
	ORG $+3
	DD	0fH
	DD	00H
	DB	02H
	ORG $+1
	DW	02c8H
	DB	04H
	DB	07H
	DW	02c8H
	DB	04H
	DB	07H
	DW	02c8H
	DB	04H
	DB	07H
	DW	02c8H
	DB	04H
	DB	07H
	DB	06H
	DB	00H
	DB	00H
	ORG $+1
	DW	00H
	DB	00H
	ORG $+1
	DW	04H
	DB	00H
	ORG $+1
	DW	00H
	DB	00H
	ORG $+3
	DD	0fH
	DD	00H
	DB	02H
	ORG $+1
	DW	02c8H
	DB	08H
	DB	0bH
	DW	02c8H
	DB	08H
	DB	0bH
	DW	02c8H
	DB	08H
	DB	0bH
	DW	02c8H
	DB	08H
	DB	0bH
	DB	06H
	DB	00H
	DB	00H
	ORG $+1
	DW	00H
	DB	00H
	ORG $+1
	DW	04H
	DB	00H
	ORG $+1
	DW	00H
	DB	00H
	ORG $+3
	DD	0fH
	DD	00H
	DB	02H
	ORG $+1
	DW	02c8H
	DB	0cH
	DB	0fH
	DW	02c8H
	DB	0cH
	DB	0fH
	DW	02c8H
	DB	0cH
	DB	0fH
	DW	02c8H
	DB	0cH
	DB	0fH
	DB	06H
	DB	00H
	DB	00H
	ORG $+1
	DW	00H
	DB	00H
	ORG $+1
	DW	04H
	DB	00H
	ORG $+1
	DW	00H
	DB	00H
	ORG $+3
	DD	0fH
	DD	00H
	DB	0feH
	ORG $+1
	DW	03H
	DB	00H
	DB	00H
	DW	03H
	DB	00H
	DB	00H
	DW	03H
	DB	00H
	DB	00H
	DW	03H
	DB	00H
	DB	00H
	DB	02H
	DB	00H
	DB	01H
	ORG $+1
	DW	00H
	DB	00H
	ORG $+1
	DW	00H
	DB	00H
	ORG $+1
	DW	00H
	DB	00H
	ORG $+3
	DD	071H
	DD	00H
	DB	02H
	ORG $+1
	DW	0380H
	DB	01H
	DB	06H
	DW	0380H
	DB	01H
	DB	06H
	DW	0380H
	DB	01H
	DB	06H
	DW	0380H
	DB	01H
	DB	06H
	DB	03H
	DB	00H
	DB	00H
	ORG $+1
	DW	00H
	DB	00H
	ORG $+1
	DW	00H
	DB	00H
	ORG $+1
	DW	00H
	DB	00H
	ORG $+3
	DD	03fH
	DD	00H
	DB	02H
	ORG $+1
	DW	0380H
	DB	07H
	DB	07H
	DW	0380H
	DB	07H
	DB	07H
	DW	0380H
	DB	07H
	DB	07H
	DW	0380H
	DB	07H
	DB	07H
	DB	03H
	DB	00H
	DB	00H
	ORG $+1
	DW	00H
	DB	00H
	ORG $+1
	DW	00H
	DB	00H
	ORG $+1
	DW	00H
	DB	00H
	ORG $+3
	DD	01H
	DD	00H
	DB	02H
	ORG $+1
	DW	01c4H
	DB	010H
	DB	010H
	DW	01c4H
	DB	010H
	DB	010H
	DW	01c4H
	DB	010H
	DB	010H
	DW	01c4H
	DB	010H
	DB	010H
	DB	0fH
	DB	00H
	DB	00H
	ORG $+1
	DW	00H
	DB	00H
	ORG $+1
	DW	08H
	DB	00H
	ORG $+1
	DW	00H
	DB	00H
	ORG $+3
	DD	01H
	DD	00H
	DB	0feH
	ORG $+1
	DW	04H
	DB	00H
	DB	00H
	DW	04H
	DB	00H
	DB	00H
	DW	04H
	DB	00H
	DB	00H
	DW	04H
	DB	00H
	DB	00H
	DB	0dH
	DB	00H
	DB	01H
	ORG $+1
	DW	00H
	DB	00H
	ORG $+1
	DW	00H
	DB	00H
	ORG $+1
	DW	00H
	DB	00H
	ORG $+3
	DD	0ffffH
	DD	00H
	DB	02H
	ORG $+1
	DW	01c4H
	DB	011H
	DB	011H
	DW	01c4H
	DB	011H
	DB	011H
	DW	01c4H
	DB	011H
	DB	011H
	DW	01c4H
	DB	011H
	DB	011H
	DB	0fH
	DB	00H
	DB	00H
	ORG $+1
	DW	00H
	DB	00H
	ORG $+1
	DW	08H
	DB	00H
	ORG $+1
	DW	00H
	DB	00H
	ORG $+3
	DD	01H
	DD	00H
	DB	0feH
	ORG $+1
	DW	05H
	DB	00H
	DB	00H
	DW	05H
	DB	00H
	DB	00H
	DW	05H
	DB	00H
	DB	00H
	DW	05H
	DB	00H
	DB	00H
	DB	07H
	DB	00H
	DB	00H
	ORG $+1
	DW	00H
	DB	00H
	ORG $+1
	DW	00H
	DB	00H
	ORG $+1
	DW	00H
	DB	00H
	ORG $+3
	DD	0fH
	DD	00H
	DB	02H
	ORG $+1
	DW	02b0H
	DB	05H
	DB	08H
	DW	02b0H
	DB	05H
	DB	08H
	DW	02b0H
	DB	05H
	DB	08H
	DW	02b0H
	DB	05H
	DB	08H
	DB	0aH
	DB	00H
	DB	00H
	ORG $+1
	DW	00H
	DB	00H
	ORG $+1
	DW	00H
	DB	05H
	ORG $+1
	DW	00H
	DB	00H
	ORG $+3
	DD	0fH
	DD	00H
	DB	02H
	ORG $+1
	DW	02b0H
	DB	09H
	DB	09H
	DW	02b0H
	DB	09H
	DB	09H
	DW	02b0H
	DB	09H
	DB	09H
	DW	02b0H
	DB	09H
	DB	09H
	DB	0aH
	DB	00H
	DB	00H
	ORG $+1
	DW	00H
	DB	00H
	ORG $+1
	DW	00H
	DB	05H
	ORG $+1
	DW	00H
	DB	00H
	ORG $+3
	DD	01H
	DD	00H
	DB	0feH
	ORG $+1
	DW	06H
	DB	00H
	DB	00H
	DW	06H
	DB	00H
	DB	00H
	DW	06H
	DB	00H
	DB	00H
	DW	06H
	DB	00H
	DB	00H
	DB	09H
	DB	00H
	DB	00H
	ORG $+1
	DW	00H
	DB	00H
	ORG $+1
	DW	00H
	DB	00H
	ORG $+1
	DW	00H
	DB	00H
	ORG $+3
	DD	03fH
	DD	00H
	DB	0feH
	ORG $+1
	DW	07H
	DB	00H
	DB	00H
	DW	07H
	DB	00H
	DB	00H
	DW	07H
	DB	00H
	DB	00H
	DW	07H
	DB	00H
	DB	00H
	DB	01H
	DB	00H
	DB	00H
	ORG $+1
	DW	00H
	DB	00H
	ORG $+1
	DW	00H
	DB	00H
	ORG $+1
	DW	00H
	DB	00H
	ORG $+3
	DD	05fH
	DD	00H
	DB	02H
	ORG $+1
	DW	01c8H
	DB	00H
	DB	04H
	DW	01c8H
	DB	00H
	DB	04H
	DW	01c8H
	DB	00H
	DB	04H
	DW	01c8H
	DB	00H
	DB	04H
	DB	010H
	DB	00H
	DB	00H
	ORG $+1
	DW	00H
	DB	00H
	ORG $+1
	DW	08H
	DB	00H
	ORG $+1
	DW	00H
	DB	00H
	ORG $+3
	DD	01fH
	DD	00H
	DB	0feH
	ORG $+1
	DW	08H
	DB	00H
	DB	00H
	DW	08H
	DB	00H
	DB	00H
	DW	08H
	DB	00H
	DB	00H
	DW	08H
	DB	00H
	DB	00H
	DB	0cH
	DB	00H
	DB	01H
	ORG $+1
	DW	00H
	DB	00H
	ORG $+1
	DW	00H
	DB	00H
	ORG $+1
	DW	00H
	DB	00H
	ORG $+3
	DD	0ffffH
	DD	00H
	DB	0feH
	ORG $+1
	DW	09H
	DB	00H
	DB	00H
	DW	09H
	DB	00H
	DB	00H
	DW	09H
	DB	00H
	DB	00H
	DW	09H
	DB	00H
	DB	00H
	DB	08bH
	DB	00H
	DB	01H
	ORG $+1
	DW	00H
	DB	00H
	ORG $+1
	DW	00H
	DB	00H
	ORG $+1
	DW	00H
	DB	00H
	ORG $+3
	DD	01H
	DD	00H
	DB	02H
	ORG $+1
	DW	0224H
	DB	05H
	DB	05H
	DW	0224H
	DB	05H
	DB	05H
	DW	0224H
	DB	05H
	DB	05H
	DW	0224H
	DB	05H
	DB	05H
	DB	08cH
	DB	00H
	DB	00H
	ORG $+1
	DW	00H
	DB	00H
	ORG $+1
	DW	00H
	DB	06H
	ORG $+1
	DW	00H
	DB	00H
	ORG $+3
	DD	01H
	DD	00H
CONST	ENDS
;	COMDAT ??_C@_0CC@OECEBEPJ@DummyFunctionToCreateDynVariable@
CONST	SEGMENT
??_C@_0CC@OECEBEPJ@DummyFunctionToCreateDynVariable@ DB 'DummyFunctionToC'
	DB	'reateDynVariables', 00H			; `string'
CONST	ENDS
;	COMDAT ??_C@_0O@EILGAILE@BREAKPOINTMRC?$AA@
CONST	SEGMENT
??_C@_0O@EILGAILE@BREAKPOINTMRC?$AA@ DB 'BREAKPOINTMRC', 00H ; `string'
CONST	ENDS
;	COMDAT ??_C@_0BA@HDEMPNJ@TxSwingBoostSet?$AA@
CONST	SEGMENT
??_C@_0BA@HDEMPNJ@TxSwingBoostSet?$AA@ DB 'TxSwingBoostSet', 00H ; `string'
CONST	ENDS
;	COMDAT ??_C@_07NDOGAEDD@TxEqSet?$AA@
CONST	SEGMENT
??_C@_07NDOGAEDD@TxEqSet?$AA@ DB 'TxEqSet', 00H		; `string'
CONST	ENDS
;	COMDAT ??_C@_0BD@LPDGBFBD@DUMMY_VOC_SUBTASKS?$AA@
CONST	SEGMENT
??_C@_0BD@LPDGBFBD@DUMMY_VOC_SUBTASKS?$AA@ DB 'DUMMY_VOC_SUBTASKS', 00H ; `string'
CONST	ENDS
;	COMDAT ??_C@_0BJ@MDHLFIOB@VOC_TRAINING_EXIT_COMMON?$AA@
CONST	SEGMENT
??_C@_0BJ@MDHLFIOB@VOC_TRAINING_EXIT_COMMON?$AA@ DB 'VOC_TRAINING_EXIT_CO'
	DB	'MMON', 00H					; `string'
CONST	ENDS
;	COMDAT ??_C@_0BC@JIHAPEKO@VOC_TRAINING_EXIT?$AA@
CONST	SEGMENT
??_C@_0BC@JIHAPEKO@VOC_TRAINING_EXIT?$AA@ DB 'VOC_TRAINING_EXIT', 00H ; `string'
CONST	ENDS
;	COMDAT ??_C@_0BD@EHNCKOML@VOC_DISABLE_WLMODE?$AA@
CONST	SEGMENT
??_C@_0BD@EHNCKOML@VOC_DISABLE_WLMODE?$AA@ DB 'VOC_DISABLE_WLMODE', 00H ; `string'
CONST	ENDS
;	COMDAT ??_C@_0BC@HIKCNLBC@VOC_ENABLE_WLMODE?$AA@
CONST	SEGMENT
??_C@_0BC@HIKCNLBC@VOC_ENABLE_WLMODE?$AA@ DB 'VOC_ENABLE_WLMODE', 00H ; `string'
CONST	ENDS
;	COMDAT ??_C@_09IEEAHBMJ@VOC_RCOMP?$AA@
CONST	SEGMENT
??_C@_09IEEAHBMJ@VOC_RCOMP?$AA@ DB 'VOC_RCOMP', 00H	; `string'
CONST	ENDS
;	COMDAT ??_C@_0BE@KGJNECOK@VOC_PHY_INIT_COMMON?$AA@
CONST	SEGMENT
??_C@_0BE@KGJNECOK@VOC_PHY_INIT_COMMON?$AA@ DB 'VOC_PHY_INIT_COMMON', 00H ; `string'
CONST	ENDS
;	COMDAT ??_C@_0N@FAKNGODK@VOC_PHY_INIT?$AA@
CONST	SEGMENT
??_C@_0N@FAKNGODK@VOC_PHY_INIT?$AA@ DB 'VOC_PHY_INIT', 00H ; `string'
CONST	ENDS
;	COMDAT ??_C@_0BK@ELMAEOIH@VOC_TRAINING_ENTRY_COMMON?$AA@
CONST	SEGMENT
??_C@_0BK@ELMAEOIH@VOC_TRAINING_ENTRY_COMMON?$AA@ DB 'VOC_TRAINING_ENTRY_'
	DB	'COMMON', 00H				; `string'
CONST	ENDS
;	COMDAT ??_C@_0BD@BDNBIJNE@VOC_TRAINING_ENTRY?$AA@
CONST	SEGMENT
??_C@_0BD@BDNBIJNE@VOC_TRAINING_ENTRY?$AA@ DB 'VOC_TRAINING_ENTRY', 00H ; `string'
CONST	ENDS
;	COMDAT ??_C@_0BD@HJOOIJGL@FIFO_RESET_ENABLE2?$AA@
CONST	SEGMENT
??_C@_0BD@HJOOIJGL@FIFO_RESET_ENABLE2?$AA@ DB 'FIFO_RESET_ENABLE2', 00H ; `string'
CONST	ENDS
;	COMDAT ??_C@_0L@EBGEALMO@INIT_SETUP?$AA@
CONST	SEGMENT
??_C@_0L@EBGEALMO@INIT_SETUP?$AA@ DB 'INIT_SETUP', 00H	; `string'
CONST	ENDS
;	COMDAT ??_C@_0M@GMAIKBCM@INIT_STATIC?$AA@
CONST	SEGMENT
??_C@_0M@GMAIKBCM@INIT_STATIC?$AA@ DB 'INIT_STATIC', 00H ; `string'
CONST	ENDS
;	COMDAT ??_C@_09HLPEAJPM@INIT_DMAP?$AA@
CONST	SEGMENT
??_C@_09HLPEAJPM@INIT_DMAP?$AA@ DB 'INIT_DMAP', 00H	; `string'
CONST	ENDS
;	COMDAT ??_C@_09ELCMBDFN@INIT_EXIT?$AA@
CONST	SEGMENT
??_C@_09ELCMBDFN@INIT_EXIT?$AA@ DB 'INIT_EXIT', 00H	; `string'
CONST	ENDS
;	COMDAT ??_C@_0L@DHLGHGJF@INIT_ENTRY?$AA@
CONST	SEGMENT
??_C@_0L@DHLGHGJF@INIT_ENTRY?$AA@ DB 'INIT_ENTRY', 00H	; `string'
CONST	ENDS
;	COMDAT ??_C@_0BE@KNIAAMLH@PPR_BASIC_WR_COMMON?$AA@
CONST	SEGMENT
??_C@_0BE@KNIAAMLH@PPR_BASIC_WR_COMMON?$AA@ DB 'PPR_BASIC_WR_COMMON', 00H ; `string'
CONST	ENDS
;	COMDAT ??_C@_0P@KHLJHAKB@PPR_BASIC_READ?$AA@
CONST	SEGMENT
??_C@_0P@KHLJHAKB@PPR_BASIC_READ?$AA@ DB 'PPR_BASIC_READ', 00H ; `string'
CONST	ENDS
;	COMDAT ??_C@_0BA@HHOHMAPA@PPR_BASIC_WRITE?$AA@
CONST	SEGMENT
??_C@_0BA@HHOHMAPA@PPR_BASIC_WRITE?$AA@ DB 'PPR_BASIC_WRITE', 00H ; `string'
CONST	ENDS
;	COMDAT ??_C@_08OOJJFBJC@PPR_MODE?$AA@
CONST	SEGMENT
??_C@_08OOJJFBJC@PPR_MODE?$AA@ DB 'PPR_MODE', 00H	; `string'
CONST	ENDS
;	COMDAT ??_C@_0O@BFEDAKEJ@PPR_DYN_SETUP?$AA@
CONST	SEGMENT
??_C@_0O@BFEDAKEJ@PPR_DYN_SETUP?$AA@ DB 'PPR_DYN_SETUP', 00H ; `string'
CONST	ENDS
;	COMDAT ??_C@_0BB@EBMOKHCA@PPR_STATIC_SETUP?$AA@
CONST	SEGMENT
??_C@_0BB@EBMOKHCA@PPR_STATIC_SETUP?$AA@ DB 'PPR_STATIC_SETUP', 00H ; `string'
CONST	ENDS
;	COMDAT ??_C@_08EICGMFDG@PPR_EXIT?$AA@
CONST	SEGMENT
??_C@_08EICGMFDG@PPR_EXIT?$AA@ DB 'PPR_EXIT', 00H	; `string'
CONST	ENDS
;	COMDAT ??_C@_09ONNFMEJD@PPR_ENTRY?$AA@
CONST	SEGMENT
??_C@_09ONNFMEJD@PPR_ENTRY?$AA@ DB 'PPR_ENTRY', 00H	; `string'
CONST	ENDS
;	COMDAT ??_C@_0BD@MCKFKDJJ@SmbusAddressToCltt?$AA@
CONST	SEGMENT
??_C@_0BD@MCKFKDJJ@SmbusAddressToCltt?$AA@ DB 'SmbusAddressToCltt', 00H ; `string'
CONST	ENDS
;	COMDAT ??_C@_0BC@OAPCIEMP@CPGC_CLEAR_ERRORS?$AA@
CONST	SEGMENT
??_C@_0BC@OAPCIEMP@CPGC_CLEAR_ERRORS?$AA@ DB 'CPGC_CLEAR_ERRORS', 00H ; `string'
CONST	ENDS
;	COMDAT ??_C@_0BE@BLMIELCF@PASS_GATE_STOP_TEST?$AA@
CONST	SEGMENT
??_C@_0BE@BLMIELCF@PASS_GATE_STOP_TEST?$AA@ DB 'PASS_GATE_STOP_TEST', 00H ; `string'
CONST	ENDS
;	COMDAT ??_C@_0BF@FKFCFMHO@PASS_GATE_START_TEST?$AA@
CONST	SEGMENT
??_C@_0BF@FKFCFMHO@PASS_GATE_START_TEST?$AA@ DB 'PASS_GATE_START_TEST', 00H ; `string'
CONST	ENDS
;	COMDAT ??_C@_0BN@JAHGKGJE@PASS_GATE_READ_RAPL_COUNTERS?$AA@
CONST	SEGMENT
??_C@_0BN@JAHGKGJE@PASS_GATE_READ_RAPL_COUNTERS?$AA@ DB 'PASS_GATE_READ_R'
	DB	'APL_COUNTERS', 00H				; `string'
CONST	ENDS
;	COMDAT ??_C@_0BP@MGHBGLDB@PASS_GATE_CPGC_AGGRESSOR_SETUP?$AA@
CONST	SEGMENT
??_C@_0BP@MGHBGLDB@PASS_GATE_CPGC_AGGRESSOR_SETUP?$AA@ DB 'PASS_GATE_CPGC'
	DB	'_AGGRESSOR_SETUP', 00H			; `string'
CONST	ENDS
;	COMDAT ??_C@_0BP@NCDKMOCC@PASS_GATE_CPGC_AGG_READS_SETUP?$AA@
CONST	SEGMENT
??_C@_0BP@NCDKMOCC@PASS_GATE_CPGC_AGG_READS_SETUP?$AA@ DB 'PASS_GATE_CPGC'
	DB	'_AGG_READS_SETUP', 00H			; `string'
CONST	ENDS
;	COMDAT ??_C@_0CA@OOGGEPEJ@PASS_GATE_CPGC_AGG_WRITES_SETUP?$AA@
CONST	SEGMENT
??_C@_0CA@OOGGEPEJ@PASS_GATE_CPGC_AGG_WRITES_SETUP?$AA@ DB 'PASS_GATE_CPG'
	DB	'C_AGG_WRITES_SETUP', 00H			; `string'
CONST	ENDS
;	COMDAT ??_C@_0BN@KBEHKCGM@PASS_GATE_CPGC_VICTIMS_SETUP?$AA@
CONST	SEGMENT
??_C@_0BN@KBEHKCGM@PASS_GATE_CPGC_VICTIMS_SETUP?$AA@ DB 'PASS_GATE_CPGC_V'
	DB	'ICTIMS_SETUP', 00H				; `string'
CONST	ENDS
;	COMDAT ??_C@_0BM@PEPGNBAC@PASS_GATE_CPGC_STATIC_SETUP?$AA@
CONST	SEGMENT
??_C@_0BM@PEPGNBAC@PASS_GATE_CPGC_STATIC_SETUP?$AA@ DB 'PASS_GATE_CPGC_ST'
	DB	'ATIC_SETUP', 00H				; `string'
CONST	ENDS
;	COMDAT ??_C@_0BE@KDDOMKNN@PASS_GATE_SET_ENTRY?$AA@
CONST	SEGMENT
??_C@_0BE@KDDOMKNN@PASS_GATE_SET_ENTRY?$AA@ DB 'PASS_GATE_SET_ENTRY', 00H ; `string'
CONST	ENDS
;	COMDAT ??_C@_0P@NONODMDK@PASS_GATE_EXIT?$AA@
CONST	SEGMENT
??_C@_0P@NONODMDK@PASS_GATE_EXIT?$AA@ DB 'PASS_GATE_EXIT', 00H ; `string'
CONST	ENDS
;	COMDAT ??_C@_0BF@PDNJNPPM@PASS_GATE_SAVE_ENTRY?$AA@
CONST	SEGMENT
??_C@_0BF@PDNJNPPM@PASS_GATE_SAVE_ENTRY?$AA@ DB 'PASS_GATE_SAVE_ENTRY', 00H ; `string'
CONST	ENDS
;	COMDAT ??_C@_0BD@FOMHEFLL@PERFORM_FIFO_RESET?$AA@
CONST	SEGMENT
??_C@_0BD@FOMHEFLL@PERFORM_FIFO_RESET?$AA@ DB 'PERFORM_FIFO_RESET', 00H ; `string'
CONST	ENDS
;	COMDAT ??_C@_0BE@MFBCMIIK@FIFO_RESET_DISABLEx?$AA@
CONST	SEGMENT
??_C@_0BE@MFBCMIIK@FIFO_RESET_DISABLEx?$AA@ DB 'FIFO_RESET_DISABLEx', 00H ; `string'
CONST	ENDS
;	COMDAT ??_C@_0BD@PGCNMNLG@FIFO_RESET_DISABLE?$AA@
CONST	SEGMENT
??_C@_0BD@PGCNMNLG@FIFO_RESET_DISABLE?$AA@ DB 'FIFO_RESET_DISABLE', 00H ; `string'
CONST	ENDS
;	COMDAT ??_C@_0BD@HDHICOOE@FIFO_RESET_ENABLEx?$AA@
CONST	SEGMENT
??_C@_0BD@HDHICOOE@FIFO_RESET_ENABLEx?$AA@ DB 'FIFO_RESET_ENABLEx', 00H ; `string'
CONST	ENDS
;	COMDAT ??_C@_0BC@PKOGJOIJ@FIFO_RESET_ENABLE?$AA@
CONST	SEGMENT
??_C@_0BC@PKOGJOIJ@FIFO_RESET_ENABLE?$AA@ DB 'FIFO_RESET_ENABLE', 00H ; `string'
CONST	ENDS
;	COMDAT ??_C@_0BC@LNPALID@CPGC_ONETIME_INIT?$AA@
CONST	SEGMENT
??_C@_0BC@LNPALID@CPGC_ONETIME_INIT?$AA@ DB 'CPGC_ONETIME_INIT', 00H ; `string'
CONST	ENDS
;	COMDAT ??_C@_0BG@HNPMJBFA@RMT_GET_CMD_AND_VALUE?$AA@
CONST	SEGMENT
??_C@_0BG@HNPMJBFA@RMT_GET_CMD_AND_VALUE?$AA@ DB 'RMT_GET_CMD_AND_VALUE', 00H ; `string'
CONST	ENDS
;	COMDAT ??_C@_0BE@FOJHFJNN@RMT_CLEAR_REGISTERS?$AA@
CONST	SEGMENT
??_C@_0BE@FOJHFJNN@RMT_CLEAR_REGISTERS?$AA@ DB 'RMT_CLEAR_REGISTERS', 00H ; `string'
CONST	ENDS
;	COMDAT ??_C@_0BK@NOAOANIM@CPGC_TURNAROUNDS_RECONFIG?$AA@
CONST	SEGMENT
??_C@_0BK@NOAOANIM@CPGC_TURNAROUNDS_RECONFIG?$AA@ DB 'CPGC_TURNAROUNDS_RE'
	DB	'CONFIG', 00H				; `string'
CONST	ENDS
;	COMDAT ??_C@_0BF@CPLNMPDD@CPGC_CWL_SIM_RESTORE?$AA@
CONST	SEGMENT
??_C@_0BF@CPLNMPDD@CPGC_CWL_SIM_RESTORE?$AA@ DB 'CPGC_CWL_SIM_RESTORE', 00H ; `string'
CONST	ENDS
;	COMDAT ??_C@_0BD@KBEHHOAO@CPGC_CWL_SIM_SETUP?$AA@
CONST	SEGMENT
??_C@_0BD@KBEHHOAO@CPGC_CWL_SIM_SETUP?$AA@ DB 'CPGC_CWL_SIM_SETUP', 00H ; `string'
CONST	ENDS
;	COMDAT ??_C@_0BC@GDAEFKBP@CPGC_MPR_TRAINING?$AA@
CONST	SEGMENT
??_C@_0BC@GDAEFKBP@CPGC_MPR_TRAINING?$AA@ DB 'CPGC_MPR_TRAINING', 00H ; `string'
CONST	ENDS
;	COMDAT ??_C@_0BA@OHPJMBNL@IsDunitEmuModel?$AA@
CONST	SEGMENT
??_C@_0BA@OHPJMBNL@IsDunitEmuModel?$AA@ DB 'IsDunitEmuModel', 00H ; `string'
CONST	ENDS
;	COMDAT ??_C@_0BH@BBICHCKL@DetermineBootModeEntry?$AA@
CONST	SEGMENT
??_C@_0BH@BBICHCKL@DetermineBootModeEntry?$AA@ DB 'DetermineBootModeEntry'
	DB	00H						; `string'
CONST	ENDS
;	COMDAT ??_C@_0P@CAKGEBMK@SetSpdResetPmc?$AA@
CONST	SEGMENT
??_C@_0P@CAKGEBMK@SetSpdResetPmc?$AA@ DB 'SetSpdResetPmc', 00H ; `string'
CONST	ENDS
;	COMDAT ??_C@_0BE@LLBBHLCP@SpdResetNeededEntry?$AA@
CONST	SEGMENT
??_C@_0BE@LLBBHLCP@SpdResetNeededEntry?$AA@ DB 'SpdResetNeededEntry', 00H ; `string'
CONST	ENDS
;	COMDAT ??_C@_0P@MHKNBIDG@RESETDRAMS_SIM?$AA@
CONST	SEGMENT
??_C@_0P@MHKNBIDG@RESETDRAMS_SIM?$AA@ DB 'RESETDRAMS_SIM', 00H ; `string'
CONST	ENDS
;	COMDAT ??_C@_0BD@OPGFONPC@ENABLE_RELEASE_CKE?$AA@
CONST	SEGMENT
??_C@_0BD@OPGFONPC@ENABLE_RELEASE_CKE?$AA@ DB 'ENABLE_RELEASE_CKE', 00H ; `string'
CONST	ENDS
;	COMDAT ??_C@_0BI@EBOLLILN@RESETDRAMS_COMMON_CLEAR?$AA@
CONST	SEGMENT
??_C@_0BI@EBOLLILN@RESETDRAMS_COMMON_CLEAR?$AA@ DB 'RESETDRAMS_COMMON_CLE'
	DB	'AR', 00H					; `string'
CONST	ENDS
;	COMDAT ??_C@_0BG@BKAHLPBH@RESETDRAMS_COMMON_SET?$AA@
CONST	SEGMENT
??_C@_0BG@BKAHLPBH@RESETDRAMS_COMMON_SET?$AA@ DB 'RESETDRAMS_COMMON_SET', 00H ; `string'
CONST	ENDS
;	COMDAT ??_C@_0M@PECFIPJA@DISABLE_CKE?$AA@
CONST	SEGMENT
??_C@_0M@PECFIPJA@DISABLE_CKE?$AA@ DB 'DISABLE_CKE', 00H ; `string'
CONST	ENDS
;	COMDAT ??_C@_0L@PFIOMAD@ENABLE_CKE?$AA@
CONST	SEGMENT
??_C@_0L@PFIOMAD@ENABLE_CKE?$AA@ DB 'ENABLE_CKE', 00H	; `string'
CONST	ENDS
;	COMDAT ??_C@_0M@IJEKDFOG@RELEASE_CKE?$AA@
CONST	SEGMENT
??_C@_0M@IJEKDFOG@RELEASE_CKE?$AA@ DB 'RELEASE_CKE', 00H ; `string'
CONST	ENDS
;	COMDAT ??_C@_0BK@CAOJJDPN@COMMANDCLOCKTRAINING_EXIT?$AA@
CONST	SEGMENT
??_C@_0BK@CAOJJDPN@COMMANDCLOCKTRAINING_EXIT?$AA@ DB 'COMMANDCLOCKTRAININ'
	DB	'G_EXIT', 00H				; `string'
CONST	ENDS
;	COMDAT ??_C@_0BL@OBALBAPN@COMMANDCLOCKTRAINING_ENTRY?$AA@
CONST	SEGMENT
??_C@_0BL@OBALBAPN@COMMANDCLOCKTRAINING_ENTRY?$AA@ DB 'COMMANDCLOCKTRAINI'
	DB	'NG_ENTRY', 00H				; `string'
CONST	ENDS
;	COMDAT ??_C@_0BD@KFDIOKFJ@WRITETRAINING_EXIT?$AA@
CONST	SEGMENT
??_C@_0BD@KFDIOKFJ@WRITETRAINING_EXIT?$AA@ DB 'WRITETRAINING_EXIT', 00H ; `string'
CONST	ENDS
;	COMDAT ??_C@_0BE@DADFKGHF@WRITETRAINING_ENTRY?$AA@
CONST	SEGMENT
??_C@_0BE@DADFKGHF@WRITETRAINING_ENTRY?$AA@ DB 'WRITETRAINING_ENTRY', 00H ; `string'
CONST	ENDS
;	COMDAT ??_C@_0BC@LMMCOACD@READTRAINING_EXIT?$AA@
CONST	SEGMENT
??_C@_0BC@LMMCOACD@READTRAINING_EXIT?$AA@ DB 'READTRAINING_EXIT', 00H ; `string'
CONST	ENDS
;	COMDAT ??_C@_0BD@IAPMMEFN@READTRAINING_ENTRY?$AA@
CONST	SEGMENT
??_C@_0BD@IAPMMEFN@READTRAINING_ENTRY?$AA@ DB 'READTRAINING_ENTRY', 00H ; `string'
CONST	ENDS
;	COMDAT ??_C@_0BC@HEOKFNOG@DISABLE_MPR_MODEx?$AA@
CONST	SEGMENT
??_C@_0BC@HEOKFNOG@DISABLE_MPR_MODEx?$AA@ DB 'DISABLE_MPR_MODEx', 00H ; `string'
CONST	ENDS
;	COMDAT ??_C@_0BB@FFBIFIN@DISABLE_MPR_MODE?$AA@
CONST	SEGMENT
??_C@_0BB@FFBIFIN@DISABLE_MPR_MODE?$AA@ DB 'DISABLE_MPR_MODE', 00H ; `string'
CONST	ENDS
;	COMDAT ??_C@_0BA@BBAFEDNF@ENABLE_MPR_MODE?$AA@
CONST	SEGMENT
??_C@_0BA@BBAFEDNF@ENABLE_MPR_MODE?$AA@ DB 'ENABLE_MPR_MODE', 00H ; `string'
CONST	ENDS
;	COMDAT ??_C@_0BB@BBEONAOG@ENABLE_MPR_MODEx?$AA@
CONST	SEGMENT
??_C@_0BB@BBEONAOG@ENABLE_MPR_MODEx?$AA@ DB 'ENABLE_MPR_MODEx', 00H ; `string'
CONST	ENDS
;	COMDAT ??_C@_0BJ@GMEOMPAN@EARLY_READ_TRAINING_EXIT?$AA@
CONST	SEGMENT
??_C@_0BJ@GMEOMPAN@EARLY_READ_TRAINING_EXIT?$AA@ DB 'EARLY_READ_TRAINING_'
	DB	'EXIT', 00H					; `string'
CONST	ENDS
;	COMDAT ??_C@_0BK@FMPKEFLN@EARLY_READ_TRAINING_ENTRY?$AA@
CONST	SEGMENT
??_C@_0BK@FMPKEFLN@EARLY_READ_TRAINING_ENTRY?$AA@ DB 'EARLY_READ_TRAINING'
	DB	'_ENTRY', 00H				; `string'
CONST	ENDS
;	COMDAT ??_C@_0BL@FCGKMGIK@EARLY_READ_TRAINING_ENTRYx?$AA@
CONST	SEGMENT
??_C@_0BL@FCGKMGIK@EARLY_READ_TRAINING_ENTRYx?$AA@ DB 'EARLY_READ_TRAININ'
	DB	'G_ENTRYx', 00H				; `string'
CONST	ENDS
;	COMDAT ??_C@_0BG@KJCHAIFP@COARSEWRITELEVEL_EXIT?$AA@
CONST	SEGMENT
??_C@_0BG@KJCHAIFP@COARSEWRITELEVEL_EXIT?$AA@ DB 'COARSEWRITELEVEL_EXIT', 00H ; `string'
CONST	ENDS
;	COMDAT ??_C@_0BH@BMJLJIJD@COARSEWRITELEVEL_EXITx?$AA@
CONST	SEGMENT
??_C@_0BH@BMJLJIJD@COARSEWRITELEVEL_EXITx?$AA@ DB 'COARSEWRITELEVEL_EXITx'
	DB	00H						; `string'
CONST	ENDS
;	COMDAT ??_C@_0BH@NJFKBMKC@COARSEWRITELEVEL_ENTRY?$AA@
CONST	SEGMENT
??_C@_0BH@NJFKBMKC@COARSEWRITELEVEL_ENTRY?$AA@ DB 'COARSEWRITELEVEL_ENTRY'
	DB	00H						; `string'
CONST	ENDS
;	COMDAT ??_C@_0BI@NPOHGLCG@COARSEWRITELEVEL_ENTRYx?$AA@
CONST	SEGMENT
??_C@_0BI@NPOHGLCG@COARSEWRITELEVEL_ENTRYx?$AA@ DB 'COARSEWRITELEVEL_ENTR'
	DB	'Yx', 00H					; `string'
CONST	ENDS
;	COMDAT ??_C@_0N@EIHCFKFP@FORCEODT_REL?$AA@
CONST	SEGMENT
??_C@_0N@EIHCFKFP@FORCEODT_REL?$AA@ DB 'FORCEODT_REL', 00H ; `string'
CONST	ENDS
;	COMDAT ??_C@_0N@BCKIIDMO@FORCEODT_OFF?$AA@
CONST	SEGMENT
??_C@_0N@BCKIIDMO@FORCEODT_OFF?$AA@ DB 'FORCEODT_OFF', 00H ; `string'
CONST	ENDS
;	COMDAT ??_C@_0M@EIAMPAPE@FORCEODT_ON?$AA@
CONST	SEGMENT
??_C@_0M@EIAMPAPE@FORCEODT_ON?$AA@ DB 'FORCEODT_ON', 00H ; `string'
CONST	ENDS
;	COMDAT ??_C@_09MEDNOILP@WRLVLMODE?$AA@
CONST	SEGMENT
??_C@_09MEDNOILP@WRLVLMODE?$AA@ DB 'WRLVLMODE', 00H	; `string'
CONST	ENDS
;	COMDAT ??_C@_0BE@MAOAPLCM@FINEWRITELEVEL_EXIT?$AA@
CONST	SEGMENT
??_C@_0BE@MAOAPLCM@FINEWRITELEVEL_EXIT?$AA@ DB 'FINEWRITELEVEL_EXIT', 00H ; `string'
CONST	ENDS
;	COMDAT ??_C@_0BG@JDFIBKKJ@FINEWRITELEVEL_EXIT_x?$AA@
CONST	SEGMENT
??_C@_0BG@JDFIBKKJ@FINEWRITELEVEL_EXIT_x?$AA@ DB 'FINEWRITELEVEL_EXIT_x', 00H ; `string'
CONST	ENDS
;	COMDAT ??_C@_0BG@PPEBILHC@FINEWRITELEVEL_ENTRYx?$AA@
CONST	SEGMENT
??_C@_0BG@PPEBILHC@FINEWRITELEVEL_ENTRYx?$AA@ DB 'FINEWRITELEVEL_ENTRYx', 00H ; `string'
CONST	ENDS
;	COMDAT ??_C@_0BF@BADPPLNH@FINEWRITELEVEL_ENTRY?$AA@
CONST	SEGMENT
??_C@_0BF@BADPPLNH@FINEWRITELEVEL_ENTRY?$AA@ DB 'FINEWRITELEVEL_ENTRY', 00H ; `string'
CONST	ENDS
;	COMDAT ??_C@_0BH@PBJENGKC@FINEWRITELEVEL_ENTRY_X?$AA@
CONST	SEGMENT
??_C@_0BH@PBJENGKC@FINEWRITELEVEL_ENTRY_X?$AA@ DB 'FINEWRITELEVEL_ENTRY_X'
	DB	00H						; `string'
CONST	ENDS
;	COMDAT ??_C@_0BE@NGDALDDK@RECEIVE_ENABLE_EXIT?$AA@
CONST	SEGMENT
??_C@_0BE@NGDALDDK@RECEIVE_ENABLE_EXIT?$AA@ DB 'RECEIVE_ENABLE_EXIT', 00H ; `string'
CONST	ENDS
;	COMDAT ??_C@_0BF@CBDMBKPP@RECEIVE_ENABLE_EXITx?$AA@
CONST	SEGMENT
??_C@_0BF@CBDMBKPP@RECEIVE_ENABLE_EXITx?$AA@ DB 'RECEIVE_ENABLE_EXITx', 00H ; `string'
CONST	ENDS
;	COMDAT ??_C@_07NLBIAJL@PDA_SEQ?$AA@
CONST	SEGMENT
??_C@_07NLBIAJL@PDA_SEQ?$AA@ DB 'PDA_SEQ', 00H		; `string'
CONST	ENDS
;	COMDAT ??_C@_0P@JEOIEKFC@SEND_DRAM_INIT?$AA@
CONST	SEGMENT
??_C@_0P@JEOIEKFC@SEND_DRAM_INIT?$AA@ DB 'SEND_DRAM_INIT', 00H ; `string'
CONST	ENDS
;	COMDAT ??_C@_0BA@MNIGNDNC@SET_RDCMD2RCVEN?$AA@
CONST	SEGMENT
??_C@_0BA@MNIGNDNC@SET_RDCMD2RCVEN?$AA@ DB 'SET_RDCMD2RCVEN', 00H ; `string'
CONST	ENDS
;	COMDAT ??_C@_0BA@PPJAKBML@GET_RDCMD2RCVEN?$AA@
CONST	SEGMENT
??_C@_0BA@PPJAKBML@GET_RDCMD2RCVEN?$AA@ DB 'GET_RDCMD2RCVEN', 00H ; `string'
CONST	ENDS
;	COMDAT ??_C@_0BG@JLNOOBNH@RECEIVE_ENABLE_ENTRYx?$AA@
CONST	SEGMENT
??_C@_0BG@JLNOOBNH@RECEIVE_ENABLE_ENTRYx?$AA@ DB 'RECEIVE_ENABLE_ENTRYx', 00H ; `string'
CONST	ENDS
;	COMDAT ??_C@_0BF@OEPNJOMO@RECEIVE_ENABLE_ENTRY?$AA@
CONST	SEGMENT
