; Listing generated by Microsoft (R) Optimizing Compiler Version 15.00.30729.207 

	TITLE	d:\bios\z124-002\z124-002\DenvertonPkg\SystemAgent\Mrc\Mmrc\ProjectData\DNV\Internal\Source\StringsGenerated.c
	.686P
	.XMM
	include listing.inc
	.model	flat

INCLUDELIB LIBCMT
INCLUDELIB OLDNAMES

PUBLIC	??_C@_06OILFNPII@MR3_R3?$AA@			; `string'
PUBLIC	??_C@_06PBKOOOMJ@MR3_R2?$AA@			; `string'
PUBLIC	??_C@_06NKIDLNAK@MR3_R1?$AA@			; `string'
PUBLIC	??_C@_03HLLGMCO@MR0?$AA@			; `string'
PUBLIC	??_C@_03BOKAFNGP@MR1?$AA@			; `string'
PUBLIC	??_C@_03DFINAOKM@MR2?$AA@			; `string'
PUBLIC	??_C@_03GDNHKJCK@MR4?$AA@			; `string'
PUBLIC	??_C@_03HKMMJIGL@MR5?$AA@			; `string'
PUBLIC	??_C@_0N@JJHNFAML@MR6?5Vref?5?$DN?50?$AA@	; `string'
PUBLIC	??_C@_0O@MBNILGDE@MR6?4VrefValue?$AA@		; `string'
PUBLIC	??_C@_0L@CGAMNEGG@MR6?4Vref?$DN1?$AA@		; `string'
PUBLIC	??_C@_06MDJIIMEL@MR3_R0?$AA@			; `string'
PUBLIC	??_C@_03FJHGFOFC@RCD?$AA@			; `string'
PUBLIC	??_C@_03MDOHFJOJ@RC9?$AA@			; `string'
PUBLIC	??_C@_06OPBCKJAA@RC0_R2?$AA@			; `string'
PUBLIC	??_C@_04KGOAOPAP@RC3X?$AA@			; `string'
PUBLIC	??_C@_03GLEADMNA@RCF?$AA@			; `string'
PUBLIC	??_C@_03EAGNGPBD@RCE?$AA@			; `string'
PUBLIC	??_C@_03BGDHMIJF@RCC?$AA@			; `string'
PUBLIC	??_C@_03PCMPJNE@RCB?$AA@			; `string'
PUBLIC	??_C@_03CEABKKBH@RCA?$AA@			; `string'
PUBLIC	??_C@_03NKPMGIKI@RC8?$AA@			; `string'
PUBLIC	??_C@_04DGCLNNCI@RC4x?$AA@			; `string'
PUBLIC	??_C@_03GPFCBGOF@RC5?$AA@			; `string'
PUBLIC	??_C@_08GMHGEEOL@RC_INPHI?$AA@			; `string'
PUBLIC	??_C@_03HGEJCHKE@RC4?$AA@			; `string'
PUBLIC	??_C@_03DJAILBGD@RC3?$AA@			; `string'
PUBLIC	??_C@_03CABDIACC@RC2?$AA@			; `string'
PUBLIC	??_C@_03LDONDOB@RC1?$AA@			; `string'
PUBLIC	??_C@_06NNCEMLIC@RC0_R0?$AA@			; `string'
PUBLIC	??_C@_0BE@PIIEKABM@CONFIG_TEMP_MEMTRIP?$AA@	; `string'
PUBLIC	??_C@_0BC@CAKFODAA@CONFIG_EN_MEMTRIP?$AA@	; `string'
PUBLIC	??_C@_0BA@NALOMEJI@MEMHOT_THRT_MID?$AA@		; `string'
PUBLIC	??_C@_0P@KJKICIIH@MEMHOT_THRT_HI?$AA@		; `string'
PUBLIC	??_C@_0BB@BACDMAEO@MEMHOT_THRT_CRIT?$AA@	; `string'
PUBLIC	??_C@_0BB@JPIKNOIC@MEMHOT_THROT_LVL?$AA@	; `string'
PUBLIC	??_C@_0N@OGFBKJBE@TEMP_MEMTRIP?$AA@		; `string'
PUBLIC	??_C@_0L@GAPFJDGD@EN_MEMTRIP?$AA@		; `string'
PUBLIC	??_C@_0BG@HBEAECBN@MEM_TEMP_OFST_DDR_0_0?$AA@	; `string'
PUBLIC	??_C@_0BG@GIFLHDFM@MEM_TEMP_OFST_DDR_0_1?$AA@	; `string'
PUBLIC	??_C@_0BG@MJPMCFHI@MEM_TEMP_OFST_DDR_1_0?$AA@	; `string'
PUBLIC	??_C@_0BG@NAOHBEDJ@MEM_TEMP_OFST_DDR_1_1?$AA@	; `string'
PUBLIC	??_C@_0P@GPHDKMJF@TEMP_LO_INT_EN?$AA@		; `string'
PUBLIC	??_C@_0BA@JFOKELBD@TEMP_MID_INT_EN?$AA@		; `string'
PUBLIC	??_C@_0P@BFICHFGF@TEMP_HI_INT_EN?$AA@		; `string'
PUBLIC	??_C@_0BJ@NFAPGAGI@MEM_INT_THRESHOLD1_VALUE?$AA@ ; `string'
PUBLIC	??_C@_0BK@FDFNPJNE@MEM_INT_THRESHOLD1_ENABLE?$AA@ ; `string'
PUBLIC	??_C@_09DDPJBLEM@CLTT_MODE?$AA@			; `string'
PUBLIC	??_C@_08NHAGHELI@THRT_MID?$AA@			; `string'
PUBLIC	??_C@_07HMNMBBID@THRT_HI?$AA@			; `string'
PUBLIC	??_C@_09CLEKFIDG@THRT_CRIT?$AA@			; `string'
PUBLIC	??_C@_07ELFIGJJH@TEMP_LO?$AA@			; `string'
PUBLIC	??_C@_08EGAEMPFI@TEMP_MID?$AA@			; `string'
PUBLIC	??_C@_07BKALGGMN@TEMP_HI?$AA@			; `string'
PUBLIC	??_C@_0N@GIINEGNG@CLTT_HW_MODE?$AA@		; `string'
PUBLIC	??_C@_0P@NPBMPENG@TEMP_STATUS_WE?$AA@		; `string'
PUBLIC	??_C@_0P@HIINOGCB@OLTT_THROT_LVL?$AA@		; `string'
PUBLIC	??_C@_0BE@OFAKGMGE@MEM_THERM_MGMT_MODE?$AA@	; `string'
PUBLIC	??_C@_09EGMMOHOC@WRODTSTRT?$AA@			; `string'
PUBLIC	??_C@_09DGFOBCMF@WRODTSTOP?$AA@			; `string'
PUBLIC	??_C@_09HPDPBHFN@RDODTSTRT?$AA@			; `string'
PUBLIC	??_C@_09PKNOCHK@RDODTSTOP?$AA@			; `string'
PUBLIC	??_C@_0BB@MEPKGMBE@?$CL?5?53h?5clk?5?9?9?5TXP?$AA@ ; `string'
PUBLIC	??_C@_0BE@EDPMPECE@x?5?54h?5clk?5?9?9?5PWDDLY?$AA@ ; `string'
PUBLIC	??_C@_0BE@OBJCJEGF@?$CL?5?5Fh?5clk?5?9?9?5tXPDLL?$AA@ ; `string'
PUBLIC	??_C@_0BD@HHMKHDAL@?$CL?5?54h?5clk?5?9?9?5TWWDR?$AA@ ; `string'
PUBLIC	??_C@_0BD@GLFCMGNM@?$CL?5?54h?5clk?5?9?9?5TWWDD?$AA@ ; `string'
PUBLIC	??_C@_0BD@DIIKNJBI@?$CL?5?56h?5clk?5?9?9?5TRWDR?$AA@ ; `string'
PUBLIC	??_C@_0BD@CEBCGMMP@?$CL?5?56h?5clk?5?9?9?5TRWDD?$AA@ ; `string'
PUBLIC	??_C@_0BD@MHLEKGFK@?$CL?5?56h?5clk?5?9?9?5TWRDR?$AA@ ; `string'
PUBLIC	??_C@_0BD@NLCMBDIN@?$CL?5?56h?5clk?5?9?9?5TWRDD?$AA@ ; `string'
PUBLIC	??_C@_0BD@CBODGMON@?$CL?5?56h?5clk?5?9?9?5TRWSR?$AA@ ; `string'
PUBLIC	??_C@_0BC@CCCLPHJF@?$CL?5?55h?5clk?5?9?9?5TWCL?$AA@ ; `string'
PUBLIC	??_C@_0BC@LFGLPFDM@?$CL?5?51h?5clk?5?9?9?5TCMD?$AA@ ; `string'
PUBLIC	??_C@_0BD@IIPEAMEJ@?$CL?5?54h?5clk?5?9?9?5TRRDR?$AA@ ; `string'
PUBLIC	??_C@_0BD@JEGMLJJO@?$CL?5?54h?5clk?5?9?9?5TRRDD?$AA@ ; `string'
PUBLIC	??_C@_0BF@CIGJNONF@?$CL?5?54h?5clk?5?9?9?5TCCD_RD?$AA@ ; `string'
PUBLIC	??_C@_0BF@DCDKKJOJ@?$CL?5?54h?5clk?5?9?9?5TCCD_WR?$AA@ ; `string'
PUBLIC	??_C@_0BH@DOMBGPEC@?$CL?5?54h?5clk?5?9?9?5TCCD_L_RD?$AA@ ; `string'
PUBLIC	??_C@_0BH@CEJCBIHO@?$CL?5?54h?5clk?5?9?9?5TCCD_L_WR?$AA@ ; `string'
PUBLIC	??_C@_0BC@OKOLOPAP@?$CL?5?55h?5clk?5?9?9?5TRTP?$AA@ ; `string'
PUBLIC	??_C@_0BC@BLPEMJBP@?$CL?510h?5clk?5?9?9?5TFAW?$AA@ ; `string'
PUBLIC	??_C@_0BC@GPGKAAFE@?$CL?518h?5clk?5?9?9?5TRAS?$AA@ ; `string'
PUBLIC	??_C@_0BB@NAMBGGNJ@?$CL?5?57h?5clk?5?9?9?5TRP?$AA@ ; `string'
PUBLIC	??_C@_0BF@FINFGCG@?$CL?5?57h?5clk?5?9?9?5TRCD_WD?$AA@ ; `string'
PUBLIC	??_C@_0BF@DEGJEMN@?$CL?5?57h?5clk?5?9?9?5TRCD_RD?$AA@ ; `string'
PUBLIC	??_C@_0BB@CLFCPCMD@?$CL?5?57h?5clk?5?9?9?5TCL?$AA@ ; `string'
PUBLIC	??_C@_05CJNAKAMO@RKEN0?$AA@			; `string'
PUBLIC	??_C@_05DAMLJBIP@RKEN1?$AA@			; `string'
PUBLIC	??_C@_05BLOGMCEM@RKEN2?$AA@			; `string'
PUBLIC	??_C@_05CPNPDAN@RKEN3?$AA@			; `string'
PUBLIC	??_C@_09FOGDMOEP@DIMMDDEN0?$AA@			; `string'
PUBLIC	??_C@_09CHHJCIDC@DIMMDWID1?$AA@			; `string'
PUBLIC	??_C@_09EHHIPPAO@DIMMDDEN1?$AA@			; `string'
PUBLIC	??_C@_08PJMBMMOA@DIMMFLIP?$AA@			; `string'
PUBLIC	??_C@_09MLOBAPGA@DIMM0MIRR?$AA@			; `string'
PUBLIC	??_C@_09LNNMMF@DIMM1MIRR?$AA@			; `string'
PUBLIC	??_C@_0BC@EOJFMMGK@DDRIO_RST_BLOCK?$DN1?$AA@	; `string'
PUBLIC	_OutputStrings
PUBLIC	_Registers
_DATA	SEGMENT
COMM	_CPGC_CONFIG_TYPES:DWORD
_DATA	ENDS
_BSS	SEGMENT
_Registers DQ	01H DUP (?)
_BSS	ENDS
_DATA	SEGMENT
_OutputStrings DD FLAT:??_C@_0BC@EOJFMMGK@DDRIO_RST_BLOCK?$DN1?$AA@
	DD	FLAT:??_C@_09LNNMMF@DIMM1MIRR?$AA@
	DD	FLAT:??_C@_09MLOBAPGA@DIMM0MIRR?$AA@
	DD	FLAT:??_C@_08PJMBMMOA@DIMMFLIP?$AA@
	DD	FLAT:??_C@_09EHHIPPAO@DIMMDDEN1?$AA@
	DD	FLAT:??_C@_09CHHJCIDC@DIMMDWID1?$AA@
	DD	FLAT:??_C@_09FOGDMOEP@DIMMDDEN0?$AA@
	DD	FLAT:??_C@_05CPNPDAN@RKEN3?$AA@
	DD	FLAT:??_C@_05BLOGMCEM@RKEN2?$AA@
	DD	FLAT:??_C@_05DAMLJBIP@RKEN1?$AA@
	DD	FLAT:??_C@_05CJNAKAMO@RKEN0?$AA@
	DD	FLAT:??_C@_0BB@CLFCPCMD@?$CL?5?57h?5clk?5?9?9?5TCL?$AA@
	DD	FLAT:??_C@_0BF@DEGJEMN@?$CL?5?57h?5clk?5?9?9?5TRCD_RD?$AA@
	DD	FLAT:??_C@_0BF@FINFGCG@?$CL?5?57h?5clk?5?9?9?5TRCD_WD?$AA@
	DD	FLAT:??_C@_0BB@NAMBGGNJ@?$CL?5?57h?5clk?5?9?9?5TRP?$AA@
	DD	FLAT:??_C@_0BC@GPGKAAFE@?$CL?518h?5clk?5?9?9?5TRAS?$AA@
	DD	FLAT:??_C@_0BC@BLPEMJBP@?$CL?510h?5clk?5?9?9?5TFAW?$AA@
	DD	FLAT:??_C@_0BC@OKOLOPAP@?$CL?5?55h?5clk?5?9?9?5TRTP?$AA@
	DD	FLAT:??_C@_0BH@CEJCBIHO@?$CL?5?54h?5clk?5?9?9?5TCCD_L_WR?$AA@
	DD	FLAT:??_C@_0BH@DOMBGPEC@?$CL?5?54h?5clk?5?9?9?5TCCD_L_RD?$AA@
	DD	FLAT:??_C@_0BF@DCDKKJOJ@?$CL?5?54h?5clk?5?9?9?5TCCD_WR?$AA@
	DD	FLAT:??_C@_0BF@CIGJNONF@?$CL?5?54h?5clk?5?9?9?5TCCD_RD?$AA@
	DD	FLAT:??_C@_0BD@JEGMLJJO@?$CL?5?54h?5clk?5?9?9?5TRRDD?$AA@
	DD	FLAT:??_C@_0BD@IIPEAMEJ@?$CL?5?54h?5clk?5?9?9?5TRRDR?$AA@
	DD	FLAT:??_C@_0BC@LFGLPFDM@?$CL?5?51h?5clk?5?9?9?5TCMD?$AA@
	DD	FLAT:??_C@_0BC@CCCLPHJF@?$CL?5?55h?5clk?5?9?9?5TWCL?$AA@
	DD	FLAT:??_C@_0BD@CBODGMON@?$CL?5?56h?5clk?5?9?9?5TRWSR?$AA@
	DD	FLAT:??_C@_0BD@NLCMBDIN@?$CL?5?56h?5clk?5?9?9?5TWRDD?$AA@
	DD	FLAT:??_C@_0BD@MHLEKGFK@?$CL?5?56h?5clk?5?9?9?5TWRDR?$AA@
	DD	FLAT:??_C@_0BD@CEBCGMMP@?$CL?5?56h?5clk?5?9?9?5TRWDD?$AA@
	DD	FLAT:??_C@_0BD@DIIKNJBI@?$CL?5?56h?5clk?5?9?9?5TRWDR?$AA@
	DD	FLAT:??_C@_0BD@GLFCMGNM@?$CL?5?54h?5clk?5?9?9?5TWWDD?$AA@
	DD	FLAT:??_C@_0BD@HHMKHDAL@?$CL?5?54h?5clk?5?9?9?5TWWDR?$AA@
	DD	FLAT:??_C@_0BE@OBJCJEGF@?$CL?5?5Fh?5clk?5?9?9?5tXPDLL?$AA@
	DD	FLAT:??_C@_0BE@EDPMPECE@x?5?54h?5clk?5?9?9?5PWDDLY?$AA@
	DD	FLAT:??_C@_0BB@MEPKGMBE@?$CL?5?53h?5clk?5?9?9?5TXP?$AA@
	DD	FLAT:??_C@_09PKNOCHK@RDODTSTOP?$AA@
	DD	FLAT:??_C@_09HPDPBHFN@RDODTSTRT?$AA@
	DD	FLAT:??_C@_09DGFOBCMF@WRODTSTOP?$AA@
	DD	FLAT:??_C@_09EGMMOHOC@WRODTSTRT?$AA@
	DD	FLAT:??_C@_0BE@OFAKGMGE@MEM_THERM_MGMT_MODE?$AA@
	DD	FLAT:??_C@_0P@HIINOGCB@OLTT_THROT_LVL?$AA@
	DD	FLAT:??_C@_0P@NPBMPENG@TEMP_STATUS_WE?$AA@
	DD	FLAT:??_C@_0N@GIINEGNG@CLTT_HW_MODE?$AA@
	DD	FLAT:??_C@_07BKALGGMN@TEMP_HI?$AA@
	DD	FLAT:??_C@_08EGAEMPFI@TEMP_MID?$AA@
	DD	FLAT:??_C@_07ELFIGJJH@TEMP_LO?$AA@
	DD	FLAT:??_C@_09CLEKFIDG@THRT_CRIT?$AA@
	DD	FLAT:??_C@_07HMNMBBID@THRT_HI?$AA@
	DD	FLAT:??_C@_08NHAGHELI@THRT_MID?$AA@
	DD	FLAT:??_C@_09DDPJBLEM@CLTT_MODE?$AA@
	DD	FLAT:??_C@_0BK@FDFNPJNE@MEM_INT_THRESHOLD1_ENABLE?$AA@
	DD	FLAT:??_C@_0BJ@NFAPGAGI@MEM_INT_THRESHOLD1_VALUE?$AA@
	DD	FLAT:??_C@_0P@BFICHFGF@TEMP_HI_INT_EN?$AA@
	DD	FLAT:??_C@_0BA@JFOKELBD@TEMP_MID_INT_EN?$AA@
	DD	FLAT:??_C@_0P@GPHDKMJF@TEMP_LO_INT_EN?$AA@
	DD	FLAT:??_C@_0BG@NAOHBEDJ@MEM_TEMP_OFST_DDR_1_1?$AA@
	DD	FLAT:??_C@_0BG@MJPMCFHI@MEM_TEMP_OFST_DDR_1_0?$AA@
	DD	FLAT:??_C@_0BG@GIFLHDFM@MEM_TEMP_OFST_DDR_0_1?$AA@
	DD	FLAT:??_C@_0BG@HBEAECBN@MEM_TEMP_OFST_DDR_0_0?$AA@
	DD	FLAT:??_C@_0L@GAPFJDGD@EN_MEMTRIP?$AA@
	DD	FLAT:??_C@_0N@OGFBKJBE@TEMP_MEMTRIP?$AA@
	DD	FLAT:??_C@_0BB@JPIKNOIC@MEMHOT_THROT_LVL?$AA@
	DD	FLAT:??_C@_0BB@BACDMAEO@MEMHOT_THRT_CRIT?$AA@
	DD	FLAT:??_C@_0P@KJKICIIH@MEMHOT_THRT_HI?$AA@
	DD	FLAT:??_C@_0BA@NALOMEJI@MEMHOT_THRT_MID?$AA@
	DD	FLAT:??_C@_0BC@CAKFODAA@CONFIG_EN_MEMTRIP?$AA@
	DD	FLAT:??_C@_0BE@PIIEKABM@CONFIG_TEMP_MEMTRIP?$AA@
	DD	FLAT:??_C@_06NNCEMLIC@RC0_R0?$AA@
	DD	FLAT:??_C@_03LDONDOB@RC1?$AA@
	DD	FLAT:??_C@_03CABDIACC@RC2?$AA@
	DD	FLAT:??_C@_03DJAILBGD@RC3?$AA@
	DD	FLAT:??_C@_03HGEJCHKE@RC4?$AA@
	DD	FLAT:??_C@_08GMHGEEOL@RC_INPHI?$AA@
	DD	FLAT:??_C@_03GPFCBGOF@RC5?$AA@
	DD	FLAT:??_C@_04DGCLNNCI@RC4x?$AA@
	DD	FLAT:??_C@_03NKPMGIKI@RC8?$AA@
	DD	FLAT:??_C@_03CEABKKBH@RCA?$AA@
	DD	FLAT:??_C@_03PCMPJNE@RCB?$AA@
	DD	FLAT:??_C@_03BGDHMIJF@RCC?$AA@
	DD	FLAT:??_C@_03EAGNGPBD@RCE?$AA@
	DD	FLAT:??_C@_03GLEADMNA@RCF?$AA@
	DD	FLAT:??_C@_04KGOAOPAP@RC3X?$AA@
	DD	FLAT:??_C@_06OPBCKJAA@RC0_R2?$AA@
	DD	FLAT:??_C@_03MDOHFJOJ@RC9?$AA@
	DD	FLAT:??_C@_03FJHGFOFC@RCD?$AA@
	DD	FLAT:??_C@_06MDJIIMEL@MR3_R0?$AA@
	DD	FLAT:??_C@_0L@CGAMNEGG@MR6?4Vref?$DN1?$AA@
	DD	FLAT:??_C@_0O@MBNILGDE@MR6?4VrefValue?$AA@
	DD	FLAT:??_C@_0N@JJHNFAML@MR6?5Vref?5?$DN?50?$AA@
	DD	FLAT:??_C@_03HKMMJIGL@MR5?$AA@
	DD	FLAT:??_C@_03GDNHKJCK@MR4?$AA@
	DD	FLAT:??_C@_03DFINAOKM@MR2?$AA@
	DD	FLAT:??_C@_03BOKAFNGP@MR1?$AA@
	DD	FLAT:??_C@_03HLLGMCO@MR0?$AA@
	DD	FLAT:??_C@_06NKIDLNAK@MR3_R1?$AA@
	DD	FLAT:??_C@_06PBKOOOMJ@MR3_R2?$AA@
	DD	FLAT:??_C@_06OILFNPII@MR3_R3?$AA@
	DD	00H
_DATA	ENDS
;	COMDAT ??_C@_06OILFNPII@MR3_R3?$AA@
CONST	SEGMENT
??_C@_06OILFNPII@MR3_R3?$AA@ DB 'MR3_R3', 00H		; `string'
CONST	ENDS
;	COMDAT ??_C@_06PBKOOOMJ@MR3_R2?$AA@
CONST	SEGMENT
??_C@_06PBKOOOMJ@MR3_R2?$AA@ DB 'MR3_R2', 00H		; `string'
CONST	ENDS
;	COMDAT ??_C@_06NKIDLNAK@MR3_R1?$AA@
CONST	SEGMENT
??_C@_06NKIDLNAK@MR3_R1?$AA@ DB 'MR3_R1', 00H		; `string'
CONST	ENDS
;	COMDAT ??_C@_03HLLGMCO@MR0?$AA@
CONST	SEGMENT
??_C@_03HLLGMCO@MR0?$AA@ DB 'MR0', 00H			; `string'
CONST	ENDS
;	COMDAT ??_C@_03BOKAFNGP@MR1?$AA@
CONST	SEGMENT
??_C@_03BOKAFNGP@MR1?$AA@ DB 'MR1', 00H			; `string'
CONST	ENDS
;	COMDAT ??_C@_03DFINAOKM@MR2?$AA@
CONST	SEGMENT
??_C@_03DFINAOKM@MR2?$AA@ DB 'MR2', 00H			; `string'
CONST	ENDS
;	COMDAT ??_C@_03GDNHKJCK@MR4?$AA@
CONST	SEGMENT
??_C@_03GDNHKJCK@MR4?$AA@ DB 'MR4', 00H			; `string'
CONST	ENDS
;	COMDAT ??_C@_03HKMMJIGL@MR5?$AA@
CONST	SEGMENT
??_C@_03HKMMJIGL@MR5?$AA@ DB 'MR5', 00H			; `string'
CONST	ENDS
;	COMDAT ??_C@_0N@JJHNFAML@MR6?5Vref?5?$DN?50?$AA@
CONST	SEGMENT
??_C@_0N@JJHNFAML@MR6?5Vref?5?$DN?50?$AA@ DB 'MR6 Vref = 0', 00H ; `string'
CONST	ENDS
;	COMDAT ??_C@_0O@MBNILGDE@MR6?4VrefValue?$AA@
CONST	SEGMENT
??_C@_0O@MBNILGDE@MR6?4VrefValue?$AA@ DB 'MR6.VrefValue', 00H ; `string'
CONST	ENDS
;	COMDAT ??_C@_0L@CGAMNEGG@MR6?4Vref?$DN1?$AA@
CONST	SEGMENT
??_C@_0L@CGAMNEGG@MR6?4Vref?$DN1?$AA@ DB 'MR6.Vref=1', 00H ; `string'
CONST	ENDS
;	COMDAT ??_C@_06MDJIIMEL@MR3_R0?$AA@
CONST	SEGMENT
??_C@_06MDJIIMEL@MR3_R0?$AA@ DB 'MR3_R0', 00H		; `string'
CONST	ENDS
;	COMDAT ??_C@_03FJHGFOFC@RCD?$AA@
CONST	SEGMENT
??_C@_03FJHGFOFC@RCD?$AA@ DB 'RCD', 00H			; `string'
CONST	ENDS
;	COMDAT ??_C@_03MDOHFJOJ@RC9?$AA@
CONST	SEGMENT
??_C@_03MDOHFJOJ@RC9?$AA@ DB 'RC9', 00H			; `string'
CONST	ENDS
;	COMDAT ??_C@_06OPBCKJAA@RC0_R2?$AA@
CONST	SEGMENT
??_C@_06OPBCKJAA@RC0_R2?$AA@ DB 'RC0_R2', 00H		; `string'
CONST	ENDS
;	COMDAT ??_C@_04KGOAOPAP@RC3X?$AA@
CONST	SEGMENT
??_C@_04KGOAOPAP@RC3X?$AA@ DB 'RC3X', 00H		; `string'
CONST	ENDS
;	COMDAT ??_C@_03GLEADMNA@RCF?$AA@
CONST	SEGMENT
??_C@_03GLEADMNA@RCF?$AA@ DB 'RCF', 00H			; `string'
CONST	ENDS
;	COMDAT ??_C@_03EAGNGPBD@RCE?$AA@
CONST	SEGMENT
??_C@_03EAGNGPBD@RCE?$AA@ DB 'RCE', 00H			; `string'
CONST	ENDS
;	COMDAT ??_C@_03BGDHMIJF@RCC?$AA@
CONST	SEGMENT
??_C@_03BGDHMIJF@RCC?$AA@ DB 'RCC', 00H			; `string'
CONST	ENDS
;	COMDAT ??_C@_03PCMPJNE@RCB?$AA@
CONST	SEGMENT
??_C@_03PCMPJNE@RCB?$AA@ DB 'RCB', 00H			; `string'
CONST	ENDS
;	COMDAT ??_C@_03CEABKKBH@RCA?$AA@
CONST	SEGMENT
??_C@_03CEABKKBH@RCA?$AA@ DB 'RCA', 00H			; `string'
CONST	ENDS
;	COMDAT ??_C@_03NKPMGIKI@RC8?$AA@
CONST	SEGMENT
??_C@_03NKPMGIKI@RC8?$AA@ DB 'RC8', 00H			; `string'
CONST	ENDS
;	COMDAT ??_C@_04DGCLNNCI@RC4x?$AA@
CONST	SEGMENT
??_C@_04DGCLNNCI@RC4x?$AA@ DB 'RC4x', 00H		; `string'
CONST	ENDS
;	COMDAT ??_C@_03GPFCBGOF@RC5?$AA@
CONST	SEGMENT
??_C@_03GPFCBGOF@RC5?$AA@ DB 'RC5', 00H			; `string'
CONST	ENDS
;	COMDAT ??_C@_08GMHGEEOL@RC_INPHI?$AA@
CONST	SEGMENT
??_C@_08GMHGEEOL@RC_INPHI?$AA@ DB 'RC_INPHI', 00H	; `string'
CONST	ENDS
;	COMDAT ??_C@_03HGEJCHKE@RC4?$AA@
CONST	SEGMENT
??_C@_03HGEJCHKE@RC4?$AA@ DB 'RC4', 00H			; `string'
CONST	ENDS
;	COMDAT ??_C@_03DJAILBGD@RC3?$AA@
CONST	SEGMENT
??_C@_03DJAILBGD@RC3?$AA@ DB 'RC3', 00H			; `string'
CONST	ENDS
;	COMDAT ??_C@_03CABDIACC@RC2?$AA@
CONST	SEGMENT
??_C@_03CABDIACC@RC2?$AA@ DB 'RC2', 00H			; `string'
CONST	ENDS
;	COMDAT ??_C@_03LDONDOB@RC1?$AA@
CONST	SEGMENT
??_C@_03LDONDOB@RC1?$AA@ DB 'RC1', 00H			; `string'
CONST	ENDS
;	COMDAT ??_C@_06NNCEMLIC@RC0_R0?$AA@
CONST	SEGMENT
??_C@_06NNCEMLIC@RC0_R0?$AA@ DB 'RC0_R0', 00H		; `string'
CONST	ENDS
;	COMDAT ??_C@_0BE@PIIEKABM@CONFIG_TEMP_MEMTRIP?$AA@
CONST	SEGMENT
??_C@_0BE@PIIEKABM@CONFIG_TEMP_MEMTRIP?$AA@ DB 'CONFIG_TEMP_MEMTRIP', 00H ; `string'
CONST	ENDS
;	COMDAT ??_C@_0BC@CAKFODAA@CONFIG_EN_MEMTRIP?$AA@
CONST	SEGMENT
??_C@_0BC@CAKFODAA@CONFIG_EN_MEMTRIP?$AA@ DB 'CONFIG_EN_MEMTRIP', 00H ; `string'
CONST	ENDS
;	COMDAT ??_C@_0BA@NALOMEJI@MEMHOT_THRT_MID?$AA@
CONST	SEGMENT
??_C@_0BA@NALOMEJI@MEMHOT_THRT_MID?$AA@ DB 'MEMHOT_THRT_MID', 00H ; `string'
CONST	ENDS
;	COMDAT ??_C@_0P@KJKICIIH@MEMHOT_THRT_HI?$AA@
CONST	SEGMENT
??_C@_0P@KJKICIIH@MEMHOT_THRT_HI?$AA@ DB 'MEMHOT_THRT_HI', 00H ; `string'
CONST	ENDS
;	COMDAT ??_C@_0BB@BACDMAEO@MEMHOT_THRT_CRIT?$AA@
CONST	SEGMENT
??_C@_0BB@BACDMAEO@MEMHOT_THRT_CRIT?$AA@ DB 'MEMHOT_THRT_CRIT', 00H ; `string'
CONST	ENDS
;	COMDAT ??_C@_0BB@JPIKNOIC@MEMHOT_THROT_LVL?$AA@
CONST	SEGMENT
??_C@_0BB@JPIKNOIC@MEMHOT_THROT_LVL?$AA@ DB 'MEMHOT_THROT_LVL', 00H ; `string'
CONST	ENDS
;	COMDAT ??_C@_0N@OGFBKJBE@TEMP_MEMTRIP?$AA@
CONST	SEGMENT
??_C@_0N@OGFBKJBE@TEMP_MEMTRIP?$AA@ DB 'TEMP_MEMTRIP', 00H ; `string'
CONST	ENDS
;	COMDAT ??_C@_0L@GAPFJDGD@EN_MEMTRIP?$AA@
CONST	SEGMENT
??_C@_0L@GAPFJDGD@EN_MEMTRIP?$AA@ DB 'EN_MEMTRIP', 00H	; `string'
CONST	ENDS
;	COMDAT ??_C@_0BG@HBEAECBN@MEM_TEMP_OFST_DDR_0_0?$AA@
CONST	SEGMENT
??_C@_0BG@HBEAECBN@MEM_TEMP_OFST_DDR_0_0?$AA@ DB 'MEM_TEMP_OFST_DDR_0_0', 00H ; `string'
CONST	ENDS
;	COMDAT ??_C@_0BG@GIFLHDFM@MEM_TEMP_OFST_DDR_0_1?$AA@
CONST	SEGMENT
??_C@_0BG@GIFLHDFM@MEM_TEMP_OFST_DDR_0_1?$AA@ DB 'MEM_TEMP_OFST_DDR_0_1', 00H ; `string'
CONST	ENDS
;	COMDAT ??_C@_0BG@MJPMCFHI@MEM_TEMP_OFST_DDR_1_0?$AA@
CONST	SEGMENT
??_C@_0BG@MJPMCFHI@MEM_TEMP_OFST_DDR_1_0?$AA@ DB 'MEM_TEMP_OFST_DDR_1_0', 00H ; `string'
CONST	ENDS
;	COMDAT ??_C@_0BG@NAOHBEDJ@MEM_TEMP_OFST_DDR_1_1?$AA@
CONST	SEGMENT
??_C@_0BG@NAOHBEDJ@MEM_TEMP_OFST_DDR_1_1?$AA@ DB 'MEM_TEMP_OFST_DDR_1_1', 00H ; `string'
CONST	ENDS
;	COMDAT ??_C@_0P@GPHDKMJF@TEMP_LO_INT_EN?$AA@
CONST	SEGMENT
??_C@_0P@GPHDKMJF@TEMP_LO_INT_EN?$AA@ DB 'TEMP_LO_INT_EN', 00H ; `string'
CONST	ENDS
;	COMDAT ??_C@_0BA@JFOKELBD@TEMP_MID_INT_EN?$AA@
CONST	SEGMENT
??_C@_0BA@JFOKELBD@TEMP_MID_INT_EN?$AA@ DB 'TEMP_MID_INT_EN', 00H ; `string'
CONST	ENDS
;	COMDAT ??_C@_0P@BFICHFGF@TEMP_HI_INT_EN?$AA@
CONST	SEGMENT
??_C@_0P@BFICHFGF@TEMP_HI_INT_EN?$AA@ DB 'TEMP_HI_INT_EN', 00H ; `string'
CONST	ENDS
;	COMDAT ??_C@_0BJ@NFAPGAGI@MEM_INT_THRESHOLD1_VALUE?$AA@
CONST	SEGMENT
??_C@_0BJ@NFAPGAGI@MEM_INT_THRESHOLD1_VALUE?$AA@ DB 'MEM_INT_THRESHOLD1_V'
	DB	'ALUE', 00H					; `string'
CONST	ENDS
;	COMDAT ??_C@_0BK@FDFNPJNE@MEM_INT_THRESHOLD1_ENABLE?$AA@
CONST	SEGMENT
??_C@_0BK@FDFNPJNE@MEM_INT_THRESHOLD1_ENABLE?$AA@ DB 'MEM_INT_THRESHOLD1_'
	DB	'ENABLE', 00H				; `string'
CONST	ENDS
;	COMDAT ??_C@_09DDPJBLEM@CLTT_MODE?$AA@
CONST	SEGMENT
??_C@_09DDPJBLEM@CLTT_MODE?$AA@ DB 'CLTT_MODE', 00H	; `string'
CONST	ENDS
;	COMDAT ??_C@_08NHAGHELI@THRT_MID?$AA@
CONST	SEGMENT
??_C@_08NHAGHELI@THRT_MID?$AA@ DB 'THRT_MID', 00H	; `string'
CONST	ENDS
;	COMDAT ??_C@_07HMNMBBID@THRT_HI?$AA@
CONST	SEGMENT
??_C@_07HMNMBBID@THRT_HI?$AA@ DB 'THRT_HI', 00H		; `string'
CONST	ENDS
;	COMDAT ??_C@_09CLEKFIDG@THRT_CRIT?$AA@
CONST	SEGMENT
??_C@_09CLEKFIDG@THRT_CRIT?$AA@ DB 'THRT_CRIT', 00H	; `string'
CONST	ENDS
;	COMDAT ??_C@_07ELFIGJJH@TEMP_LO?$AA@
CONST	SEGMENT
??_C@_07ELFIGJJH@TEMP_LO?$AA@ DB 'TEMP_LO', 00H		; `string'
CONST	ENDS
;	COMDAT ??_C@_08EGAEMPFI@TEMP_MID?$AA@
CONST	SEGMENT
??_C@_08EGAEMPFI@TEMP_MID?$AA@ DB 'TEMP_MID', 00H	; `string'
CONST	ENDS
;	COMDAT ??_C@_07BKALGGMN@TEMP_HI?$AA@
CONST	SEGMENT
??_C@_07BKALGGMN@TEMP_HI?$AA@ DB 'TEMP_HI', 00H		; `string'
CONST	ENDS
;	COMDAT ??_C@_0N@GIINEGNG@CLTT_HW_MODE?$AA@
CONST	SEGMENT
??_C@_0N@GIINEGNG@CLTT_HW_MODE?$AA@ DB 'CLTT_HW_MODE', 00H ; `string'
CONST	ENDS
;	COMDAT ??_C@_0P@NPBMPENG@TEMP_STATUS_WE?$AA@
CONST	SEGMENT
??_C@_0P@NPBMPENG@TEMP_STATUS_WE?$AA@ DB 'TEMP_STATUS_WE', 00H ; `string'
CONST	ENDS
;	COMDAT ??_C@_0P@HIINOGCB@OLTT_THROT_LVL?$AA@
CONST	SEGMENT
??_C@_0P@HIINOGCB@OLTT_THROT_LVL?$AA@ DB 'OLTT_THROT_LVL', 00H ; `string'
CONST	ENDS
;	COMDAT ??_C@_0BE@OFAKGMGE@MEM_THERM_MGMT_MODE?$AA@
CONST	SEGMENT
??_C@_0BE@OFAKGMGE@MEM_THERM_MGMT_MODE?$AA@ DB 'MEM_THERM_MGMT_MODE', 00H ; `string'
CONST	ENDS
;	COMDAT ??_C@_09EGMMOHOC@WRODTSTRT?$AA@
CONST	SEGMENT
??_C@_09EGMMOHOC@WRODTSTRT?$AA@ DB 'WRODTSTRT', 00H	; `string'
CONST	ENDS
;	COMDAT ??_C@_09DGFOBCMF@WRODTSTOP?$AA@
CONST	SEGMENT
??_C@_09DGFOBCMF@WRODTSTOP?$AA@ DB 'WRODTSTOP', 00H	; `string'
CONST	ENDS
;	COMDAT ??_C@_09HPDPBHFN@RDODTSTRT?$AA@
CONST	SEGMENT
??_C@_09HPDPBHFN@RDODTSTRT?$AA@ DB 'RDODTSTRT', 00H	; `string'
CONST	ENDS
;	COMDAT ??_C@_09PKNOCHK@RDODTSTOP?$AA@
CONST	SEGMENT
??_C@_09PKNOCHK@RDODTSTOP?$AA@ DB 'RDODTSTOP', 00H	; `string'
CONST	ENDS
;	COMDAT ??_C@_0BB@MEPKGMBE@?$CL?5?53h?5clk?5?9?9?5TXP?$AA@
CONST	SEGMENT
??_C@_0BB@MEPKGMBE@?$CL?5?53h?5clk?5?9?9?5TXP?$AA@ DB '+  3h clk -- TXP', 00H ; `string'
CONST	ENDS
;	COMDAT ??_C@_0BE@EDPMPECE@x?5?54h?5clk?5?9?9?5PWDDLY?$AA@
CONST	SEGMENT
??_C@_0BE@EDPMPECE@x?5?54h?5clk?5?9?9?5PWDDLY?$AA@ DB 'x  4h clk -- PWDDL'
	DB	'Y', 00H					; `string'
CONST	ENDS
;	COMDAT ??_C@_0BE@OBJCJEGF@?$CL?5?5Fh?5clk?5?9?9?5tXPDLL?$AA@
CONST	SEGMENT
??_C@_0BE@OBJCJEGF@?$CL?5?5Fh?5clk?5?9?9?5tXPDLL?$AA@ DB '+  Fh clk -- tX'
	DB	'PDLL', 00H					; `string'
CONST	ENDS
;	COMDAT ??_C@_0BD@HHMKHDAL@?$CL?5?54h?5clk?5?9?9?5TWWDR?$AA@
CONST	SEGMENT
??_C@_0BD@HHMKHDAL@?$CL?5?54h?5clk?5?9?9?5TWWDR?$AA@ DB '+  4h clk -- TWW'
	DB	'DR', 00H					; `string'
CONST	ENDS
;	COMDAT ??_C@_0BD@GLFCMGNM@?$CL?5?54h?5clk?5?9?9?5TWWDD?$AA@
CONST	SEGMENT
??_C@_0BD@GLFCMGNM@?$CL?5?54h?5clk?5?9?9?5TWWDD?$AA@ DB '+  4h clk -- TWW'
	DB	'DD', 00H					; `string'
CONST	ENDS
;	COMDAT ??_C@_0BD@DIIKNJBI@?$CL?5?56h?5clk?5?9?9?5TRWDR?$AA@
CONST	SEGMENT
??_C@_0BD@DIIKNJBI@?$CL?5?56h?5clk?5?9?9?5TRWDR?$AA@ DB '+  6h clk -- TRW'
	DB	'DR', 00H					; `string'
CONST	ENDS
;	COMDAT ??_C@_0BD@CEBCGMMP@?$CL?5?56h?5clk?5?9?9?5TRWDD?$AA@
CONST	SEGMENT
??_C@_0BD@CEBCGMMP@?$CL?5?56h?5clk?5?9?9?5TRWDD?$AA@ DB '+  6h clk -- TRW'
	DB	'DD', 00H					; `string'
CONST	ENDS
;	COMDAT ??_C@_0BD@MHLEKGFK@?$CL?5?56h?5clk?5?9?9?5TWRDR?$AA@
CONST	SEGMENT
??_C@_0BD@MHLEKGFK@?$CL?5?56h?5clk?5?9?9?5TWRDR?$AA@ DB '+  6h clk -- TWR'
	DB	'DR', 00H					; `string'
CONST	ENDS
;	COMDAT ??_C@_0BD@NLCMBDIN@?$CL?5?56h?5clk?5?9?9?5TWRDD?$AA@
CONST	SEGMENT
??_C@_0BD@NLCMBDIN@?$CL?5?56h?5clk?5?9?9?5TWRDD?$AA@ DB '+  6h clk -- TWR'
	DB	'DD', 00H					; `string'
CONST	ENDS
;	COMDAT ??_C@_0BD@CBODGMON@?$CL?5?56h?5clk?5?9?9?5TRWSR?$AA@
CONST	SEGMENT
??_C@_0BD@CBODGMON@?$CL?5?56h?5clk?5?9?9?5TRWSR?$AA@ DB '+  6h clk -- TRW'
	DB	'SR', 00H					; `string'
CONST	ENDS
;	COMDAT ??_C@_0BC@CCCLPHJF@?$CL?5?55h?5clk?5?9?9?5TWCL?$AA@
CONST	SEGMENT
??_C@_0BC@CCCLPHJF@?$CL?5?55h?5clk?5?9?9?5TWCL?$AA@ DB '+  5h clk -- TWCL'
	DB	00H						; `string'
CONST	ENDS
;	COMDAT ??_C@_0BC@LFGLPFDM@?$CL?5?51h?5clk?5?9?9?5TCMD?$AA@
CONST	SEGMENT
??_C@_0BC@LFGLPFDM@?$CL?5?51h?5clk?5?9?9?5TCMD?$AA@ DB '+  1h clk -- TCMD'
	DB	00H						; `string'
CONST	ENDS
;	COMDAT ??_C@_0BD@IIPEAMEJ@?$CL?5?54h?5clk?5?9?9?5TRRDR?$AA@
CONST	SEGMENT
??_C@_0BD@IIPEAMEJ@?$CL?5?54h?5clk?5?9?9?5TRRDR?$AA@ DB '+  4h clk -- TRR'
	DB	'DR', 00H					; `string'
CONST	ENDS
;	COMDAT ??_C@_0BD@JEGMLJJO@?$CL?5?54h?5clk?5?9?9?5TRRDD?$AA@
CONST	SEGMENT
??_C@_0BD@JEGMLJJO@?$CL?5?54h?5clk?5?9?9?5TRRDD?$AA@ DB '+  4h clk -- TRR'
	DB	'DD', 00H					; `string'
CONST	ENDS
;	COMDAT ??_C@_0BF@CIGJNONF@?$CL?5?54h?5clk?5?9?9?5TCCD_RD?$AA@
CONST	SEGMENT
??_C@_0BF@CIGJNONF@?$CL?5?54h?5clk?5?9?9?5TCCD_RD?$AA@ DB '+  4h clk -- T'
	DB	'CCD_RD', 00H				; `string'
CONST	ENDS
;	COMDAT ??_C@_0BF@DCDKKJOJ@?$CL?5?54h?5clk?5?9?9?5TCCD_WR?$AA@
CONST	SEGMENT
??_C@_0BF@DCDKKJOJ@?$CL?5?54h?5clk?5?9?9?5TCCD_WR?$AA@ DB '+  4h clk -- T'
	DB	'CCD_WR', 00H				; `string'
CONST	ENDS
;	COMDAT ??_C@_0BH@DOMBGPEC@?$CL?5?54h?5clk?5?9?9?5TCCD_L_RD?$AA@
CONST	SEGMENT
??_C@_0BH@DOMBGPEC@?$CL?5?54h?5clk?5?9?9?5TCCD_L_RD?$AA@ DB '+  4h clk --'
	DB	' TCCD_L_RD', 00H				; `string'
CONST	ENDS
;	COMDAT ??_C@_0BH@CEJCBIHO@?$CL?5?54h?5clk?5?9?9?5TCCD_L_WR?$AA@
CONST	SEGMENT
??_C@_0BH@CEJCBIHO@?$CL?5?54h?5clk?5?9?9?5TCCD_L_WR?$AA@ DB '+  4h clk --'
	DB	' TCCD_L_WR', 00H				; `string'
CONST	ENDS
;	COMDAT ??_C@_0BC@OKOLOPAP@?$CL?5?55h?5clk?5?9?9?5TRTP?$AA@
CONST	SEGMENT
??_C@_0BC@OKOLOPAP@?$CL?5?55h?5clk?5?9?9?5TRTP?$AA@ DB '+  5h clk -- TRTP'
	DB	00H						; `string'
CONST	ENDS
;	COMDAT ??_C@_0BC@BLPEMJBP@?$CL?510h?5clk?5?9?9?5TFAW?$AA@
CONST	SEGMENT
??_C@_0BC@BLPEMJBP@?$CL?510h?5clk?5?9?9?5TFAW?$AA@ DB '+ 10h clk -- TFAW', 00H ; `string'
CONST	ENDS
;	COMDAT ??_C@_0BC@GPGKAAFE@?$CL?518h?5clk?5?9?9?5TRAS?$AA@
CONST	SEGMENT
??_C@_0BC@GPGKAAFE@?$CL?518h?5clk?5?9?9?5TRAS?$AA@ DB '+ 18h clk -- TRAS', 00H ; `string'
CONST	ENDS
;	COMDAT ??_C@_0BB@NAMBGGNJ@?$CL?5?57h?5clk?5?9?9?5TRP?$AA@
CONST	SEGMENT
??_C@_0BB@NAMBGGNJ@?$CL?5?57h?5clk?5?9?9?5TRP?$AA@ DB '+  7h clk -- TRP', 00H ; `string'
CONST	ENDS
;	COMDAT ??_C@_0BF@FINFGCG@?$CL?5?57h?5clk?5?9?9?5TRCD_WD?$AA@
CONST	SEGMENT
??_C@_0BF@FINFGCG@?$CL?5?57h?5clk?5?9?9?5TRCD_WD?$AA@ DB '+  7h clk -- TR'
	DB	'CD_WD', 00H					; `string'
CONST	ENDS
;	COMDAT ??_C@_0BF@DEGJEMN@?$CL?5?57h?5clk?5?9?9?5TRCD_RD?$AA@
CONST	SEGMENT
??_C@_0BF@DEGJEMN@?$CL?5?57h?5clk?5?9?9?5TRCD_RD?$AA@ DB '+  7h clk -- TR'
	DB	'CD_RD', 00H					; `string'
CONST	ENDS
;	COMDAT ??_C@_0BB@CLFCPCMD@?$CL?5?57h?5clk?5?9?9?5TCL?$AA@
CONST	SEGMENT
??_C@_0BB@CLFCPCMD@?$CL?5?57h?5clk?5?9?9?5TCL?$AA@ DB '+  7h clk -- TCL', 00H ; `string'
CONST	ENDS
;	COMDAT ??_C@_05CJNAKAMO@RKEN0?$AA@
CONST	SEGMENT
??_C@_05CJNAKAMO@RKEN0?$AA@ DB 'RKEN0', 00H		; `string'
CONST	ENDS
;	COMDAT ??_C@_05DAMLJBIP@RKEN1?$AA@
CONST	SEGMENT
??_C@_05DAMLJBIP@RKEN1?$AA@ DB 'RKEN1', 00H		; `string'
CONST	ENDS
;	COMDAT ??_C@_05BLOGMCEM@RKEN2?$AA@
CONST	SEGMENT
??_C@_05BLOGMCEM@RKEN2?$AA@ DB 'RKEN2', 00H		; `string'
CONST	ENDS
;	COMDAT ??_C@_05CPNPDAN@RKEN3?$AA@
CONST	SEGMENT
??_C@_05CPNPDAN@RKEN3?$AA@ DB 'RKEN3', 00H		; `string'
CONST	ENDS
;	COMDAT ??_C@_09FOGDMOEP@DIMMDDEN0?$AA@
CONST	SEGMENT
??_C@_09FOGDMOEP@DIMMDDEN0?$AA@ DB 'DIMMDDEN0', 00H	; `string'
CONST	ENDS
;	COMDAT ??_C@_09CHHJCIDC@DIMMDWID1?$AA@
CONST	SEGMENT
??_C@_09CHHJCIDC@DIMMDWID1?$AA@ DB 'DIMMDWID1', 00H	; `string'
CONST	ENDS
;	COMDAT ??_C@_09EHHIPPAO@DIMMDDEN1?$AA@
CONST	SEGMENT
??_C@_09EHHIPPAO@DIMMDDEN1?$AA@ DB 'DIMMDDEN1', 00H	; `string'
CONST	ENDS
;	COMDAT ??_C@_08PJMBMMOA@DIMMFLIP?$AA@
CONST	SEGMENT
??_C@_08PJMBMMOA@DIMMFLIP?$AA@ DB 'DIMMFLIP', 00H	; `string'
CONST	ENDS
;	COMDAT ??_C@_09MLOBAPGA@DIMM0MIRR?$AA@
CONST	SEGMENT
??_C@_09MLOBAPGA@DIMM0MIRR?$AA@ DB 'DIMM0MIRR', 00H	; `string'
CONST	ENDS
;	COMDAT ??_C@_09LNNMMF@DIMM1MIRR?$AA@
CONST	SEGMENT
??_C@_09LNNMMF@DIMM1MIRR?$AA@ DB 'DIMM1MIRR', 00H	; `string'
CONST	ENDS
;	COMDAT ??_C@_0BC@EOJFMMGK@DDRIO_RST_BLOCK?$DN1?$AA@
CONST	SEGMENT
??_C@_0BC@EOJFMMGK@DDRIO_RST_BLOCK?$DN1?$AA@ DB 'DDRIO_RST_BLOCK=1', 00H ; `string'
CONST	ENDS
END
