 CapsuleX64

 Timestamp is 6448e7ec (Wed Apr 26 16:59:24 2023)

 Preferred load address is 0000000000000000

 Start         Length     Name                   Class
 0001:00000000 00002933H .text                   CODE
 0002:00000000 00000108H .data                   DATA
 0002:00000110 00000a7aH .rdata                  DATA
 0002:00000b90 00000000H .bss                    DATA
 0003:00000000 000000ccH .pdata                  DATA
 0004:00000000 000000d4H .xdata                  DATA

  Address         Publics by Value              Rva+Base               Lib:Object

 0000:00000000       __ImageBase                0000000000000000     <linker-defined>
 0001:00000000       AcquirePage                00000000000002a0 f   CapsuleX64:X64Entry.obj
 0001:00000080       PageFaultHandler           0000000000000320 f   CapsuleX64:X64Entry.obj
 0001:00000174       _ModuleEntryPoint          0000000000000414 f   CapsuleX64:X64Entry.obj
 0001:000003f8       FindFreeMem                0000000000000698 f   CapsuleX64:CapsuleCoalesce.obj
 0001:000004b4       ValidateCapsuleByMemoryResource 0000000000000754 f   CapsuleX64:CapsuleCoalesce.obj
 0001:00000508       RelocateBlockDescriptors   00000000000007a8 f   CapsuleX64:CapsuleCoalesce.obj
 0001:000006a4       CapsuleDataCoalesce        0000000000000944 f   CapsuleX64:CapsuleCoalesce.obj
 0001:00000c48       CommonExceptionHandler     0000000000000ee8 f   SecPeiCpuExceptionHandlerLib:SecPeiCpuException.obj
 0001:00000c6c       DumpCpuContent             0000000000000f0c f   SecPeiCpuExceptionHandlerLib:ArchExceptionHandler.obj
 0001:00000ffc       InternalPrintMessage       000000000000129c f   SecPeiCpuExceptionHandlerLib:CpuExceptionCommon.obj
 0001:00001060       BasePrintLibFillBuffer     0000000000001300 f   BasePrintLib:PrintLibInternal.obj
 0001:00001094       BasePrintLibSPrintMarker   0000000000001334 f   BasePrintLib:PrintLibInternal.obj
 0001:00001f00       BasePrintLibSPrint         00000000000021a0 f   BasePrintLib:PrintLibInternal.obj
 0001:00001f24       SerialPortWrite            00000000000021c4 f   BaseSerialPortLib16550Override:BaseSerialPortLib16550.obj
 0001:00001fbc       PeCoffLoaderGetPdbPointer  000000000000225c f   BasePeCoffGetEntryPointLib:PeCoffGetEntryPoint.obj
 0001:000020dc       LocalApicBaseAddressMsrSupported 000000000000237c f   BaseXApicX2ApicLib:BaseXApicX2ApicLib.obj
 0001:00002120       GetLocalApicBaseAddress    00000000000023c0 f   BaseXApicX2ApicLib:BaseXApicX2ApicLib.obj
 0001:00002164       ReadLocalApicReg           0000000000002404 f   BaseXApicX2ApicLib:BaseXApicX2ApicLib.obj
 0001:00002190       GetApicMode                0000000000002430 f   BaseXApicX2ApicLib:BaseXApicX2ApicLib.obj
 0001:000021cc       GetApicId                  000000000000246c f   BaseXApicX2ApicLib:BaseXApicX2ApicLib.obj
 0001:00002280       PageFaultHandlerHook       0000000000002520     CapsuleX64:PageFaultHandler.obj
 0001:00002320       InternalMemZeroMem         00000000000025c0     BaseMemoryLibRepStr:ZeroMem.obj
 0001:00002340       InternalMemCopyMem         00000000000025e0     BaseMemoryLibRepStr:CopyMem.obj
 0001:00002380       AsmReadCs                  0000000000002620     BaseLib:ReadCs.obj
 0001:00002390       AsmReadCr2                 0000000000002630     BaseLib:ReadCr2.obj
 0001:000023a0       AsmReadCr3                 0000000000002640     BaseLib:ReadCr3.obj
 0001:000023b0       AsmCpuid                   0000000000002650     BaseLib:CpuId.obj
 0001:000023e0       InternalX86WriteIdtr       0000000000002680     BaseLib:WriteIdtr.obj
 0001:000023f0       InternalX86ReadIdtr        0000000000002690     BaseLib:ReadIdtr.obj
 0001:00002400       InternalX86DisablePaging64 00000000000026a0     BaseLib:DisablePaging64.obj
 0001:00002681       CommonInterruptEntry       0000000000002921 f   SecPeiCpuExceptionHandlerLib:ExceptionHandlerAsm.obj
 0001:00002843       AsmGetTemplateAddressMap   0000000000002ae3 f   SecPeiCpuExceptionHandlerLib:ExceptionHandlerAsm.obj
 0001:00002867       AsmVectorNumFixup          0000000000002b07 f   SecPeiCpuExceptionHandlerLib:ExceptionHandlerAsm.obj
 0001:00002870       InternalMemSetMem          0000000000002b10     BaseMemoryLibRepStr:SetMem.obj
 0001:00002890       InternalMemSetMem32        0000000000002b30     BaseMemoryLibRepStr:SetMem32.obj
 0001:000028b0       InternalMemSetMem64        0000000000002b50     BaseMemoryLibRepStr:SetMem64.obj
 0001:000028d0       CpuPause                   0000000000002b70     BaseLib:CpuPause.obj
 0001:000028e0       AsmCpuidEx                 0000000000002b80     BaseLib:CpuIdEx.obj
 0001:00002910       DisableInterrupts          0000000000002bb0     BaseLib:DisableInterrupts.obj
 0001:00002920       EnableInterrupts           0000000000002bc0     BaseLib:EnableInterrupts.obj
 0001:00002930       AsmReadEflags              0000000000002bd0     BaseLib:ReadEflags.obj
 0002:00000000       NCT6683DSerialPortDebugDecodeTable 0000000000002be0     NCT6683DPlatformHookSerialPortLib:NCT6683DPlatformHookSerialPortLib.obj
 0002:00000010       NCT6683DSerialPortDebugInitTable 0000000000002bf0     NCT6683DPlatformHookSerialPortLib:NCT6683DPlatformHookSerialPortLib.obj
 0002:00000050       _gPcd_BinaryPatch_PcdSerialRegisterBase 0000000000002c30     CapsuleX64:AutoGen.obj
 0002:00000060       mExceptionNameStr          0000000000002c40     SecPeiCpuExceptionHandlerLib:CpuExceptionCommon.obj
 0002:00000110       mErrorCodeFlag             0000000000002cf0     SecPeiCpuExceptionHandlerLib:CpuExceptionCommon.obj
 0002:00000118       mExceptionReservedStr      0000000000002cf8     SecPeiCpuExceptionHandlerLib:CpuExceptionCommon.obj
 0002:00000128       mImageAlignSize            0000000000002d08     SecPeiCpuExceptionHandlerLib:SecPeiCpuException.obj
 0002:00000130       mDoFarReturnFlag           0000000000002d10     SecPeiCpuExceptionHandlerLib:SecPeiCpuException.obj
 0002:00000138       ??_C@_0DN@OILJOCCP@?$CB?$CB?$CB?$CB?5X64?5Exception?5Type?5?9?5?$CF02x?$CI?$CF@ 0000000000002d18     SecPeiCpuExceptionHandlerLib:ArchExceptionHandler.obj
 0002:00000178       ??_C@_0CO@OABPHBNC@RIP?5?5?9?5?$CF016lx?0?5CS?5?5?9?5?$CF016lx?0?5RFL@ 0000000000002d58     SecPeiCpuExceptionHandlerLib:ArchExceptionHandler.obj
 0002:000001a8       ??_C@_0BI@ODOACFIJ@ExceptionData?5?9?5?$CF016lx?6?$AA@ 0000000000002d88     SecPeiCpuExceptionHandlerLib:ArchExceptionHandler.obj
 0002:000001c0       ??_C@_0CL@EBCIBAPN@RAX?5?5?9?5?$CF016lx?0?5RCX?5?9?5?$CF016lx?0?5RDX@ 0000000000002da0     SecPeiCpuExceptionHandlerLib:ArchExceptionHandler.obj
 0002:000001f0       ??_C@_0CL@NEKHLEEE@RBX?5?5?9?5?$CF016lx?0?5RSP?5?9?5?$CF016lx?0?5RBP@ 0000000000002dd0     SecPeiCpuExceptionHandlerLib:ArchExceptionHandler.obj
 0002:00000220       ??_C@_0BN@KJEBEAEC@RSI?5?5?9?5?$CF016lx?0?5RDI?5?9?5?$CF016lx?6?$AA@ 0000000000002e00     SecPeiCpuExceptionHandlerLib:ArchExceptionHandler.obj
 0002:00000240       ??_C@_0CL@IAICEOHO@R8?5?5?5?9?5?$CF016lx?0?5R9?5?5?9?5?$CF016lx?0?5R10@ 0000000000002e20     SecPeiCpuExceptionHandlerLib:ArchExceptionHandler.obj
 0002:00000270       ??_C@_0CL@JAMCECPD@R11?5?5?9?5?$CF016lx?0?5R12?5?9?5?$CF016lx?0?5R13@ 0000000000002e50     SecPeiCpuExceptionHandlerLib:ArchExceptionHandler.obj
 0002:000002a0       ??_C@_0BN@PKAAKNBO@R14?5?5?9?5?$CF016lx?0?5R15?5?9?5?$CF016lx?6?$AA@ 0000000000002e80     SecPeiCpuExceptionHandlerLib:ArchExceptionHandler.obj
 0002:000002c0       ??_C@_0CL@DLLIMCBJ@DS?5?5?5?9?5?$CF016lx?0?5ES?5?5?9?5?$CF016lx?0?5FS?5@ 0000000000002ea0     SecPeiCpuExceptionHandlerLib:ArchExceptionHandler.obj
 0002:000002f0       ??_C@_0BN@EICEFBKL@GS?5?5?5?9?5?$CF016lx?0?5SS?5?5?9?5?$CF016lx?6?$AA@ 0000000000002ed0     SecPeiCpuExceptionHandlerLib:ArchExceptionHandler.obj
 0002:00000310       ??_C@_0CL@DIOBDFLD@CR0?5?5?9?5?$CF016lx?0?5CR2?5?9?5?$CF016lx?0?5CR3@ 0000000000002ef0     SecPeiCpuExceptionHandlerLib:ArchExceptionHandler.obj
 0002:00000340       ??_C@_0BN@JAPKHAJM@CR4?5?5?9?5?$CF016lx?0?5CR8?5?9?5?$CF016lx?6?$AA@ 0000000000002f20     SecPeiCpuExceptionHandlerLib:ArchExceptionHandler.obj
 0002:00000360       ??_C@_0CL@DONNALBH@DR0?5?5?9?5?$CF016lx?0?5DR1?5?9?5?$CF016lx?0?5DR2@ 0000000000002f40     SecPeiCpuExceptionHandlerLib:ArchExceptionHandler.obj
 0002:00000390       ??_C@_0CL@JNPELAID@DR3?5?5?9?5?$CF016lx?0?5DR6?5?9?5?$CF016lx?0?5DR7@ 0000000000002f70     SecPeiCpuExceptionHandlerLib:ArchExceptionHandler.obj
 0002:000003c0       ??_C@_0CF@MGIBIPBB@GDTR?5?9?5?$CF016lx?5?$CF016lx?0?5LDTR?5?9?5?$CF01@ 0000000000002fa0     SecPeiCpuExceptionHandlerLib:ArchExceptionHandler.obj
 0002:000003e8       ??_C@_0CF@DMFPLAJK@IDTR?5?9?5?$CF016lx?5?$CF016lx?0?5?5?5TR?5?9?5?$CF01@ 0000000000002fc8     SecPeiCpuExceptionHandlerLib:ArchExceptionHandler.obj
 0002:00000410       ??_C@_0BH@PFOFIBPH@FXSAVE_STATE?5?9?5?$CF016lx?6?$AA@ 0000000000002ff0     SecPeiCpuExceptionHandlerLib:ArchExceptionHandler.obj
 0002:00000428       ??_C@_0CN@JIGBODEI@?5?$CIImageBase?$DN?$CF016lx?0?5EntryPoint?$DN?$CF@ 0000000000003008     SecPeiCpuExceptionHandlerLib:ArchExceptionHandler.obj
 0002:00000458       ??_C@_0BF@MIEADEIE@?$CDVE?5?9?5Virtualization?$AA@ 0000000000003038     SecPeiCpuExceptionHandlerLib:CpuExceptionCommon.obj
 0002:00000470       ??_C@_0BK@IKBNPED@?$CDXM?5?9?5SIMD?5floating?9point?$AA@ 0000000000003050     SecPeiCpuExceptionHandlerLib:CpuExceptionCommon.obj
 0002:00000490       ??_C@_0BE@CIGFNHHH@?$CDMC?5?9?5Machine?9Check?$AA@ 0000000000003070     SecPeiCpuExceptionHandlerLib:CpuExceptionCommon.obj
 0002:000004a8       ??_C@_0BG@JJECJFKO@?$CDAC?5?9?5Alignment?5Check?$AA@ 0000000000003088     SecPeiCpuExceptionHandlerLib:CpuExceptionCommon.obj
 0002:000004c0       ??_C@_0CD@DAPDALEP@?$CDMF?5?9?5x87?5FPU?5Floating?9Point?5Err@ 00000000000030a0     SecPeiCpuExceptionHandlerLib:CpuExceptionCommon.obj
 0002:000004e8       ??_C@_08NKCLJDKG@Reserved?$AA@ 00000000000030c8     SecPeiCpuExceptionHandlerLib:CpuExceptionCommon.obj
 0002:000004f8       ??_C@_0BB@CJKCEJGM@?$CDPF?5?9?5Page?9Fault?$AA@ 00000000000030d8     SecPeiCpuExceptionHandlerLib:CpuExceptionCommon.obj
 0002:00000510       ??_C@_0BJ@OPPOMNHK@?$CDGP?5?9?5General?5Protection?$AA@ 00000000000030f0     SecPeiCpuExceptionHandlerLib:CpuExceptionCommon.obj
 0002:00000530       ??_C@_0BI@DKNGHJJN@?$CDSS?5?9?5Stack?5Fault?5Fault?$AA@ 0000000000003110     SecPeiCpuExceptionHandlerLib:CpuExceptionCommon.obj
 0002:00000548       ??_C@_0BK@CJDBEANG@?$CDNP?5?9?5Segment?5Not?5Present?$AA@ 0000000000003128     SecPeiCpuExceptionHandlerLib:CpuExceptionCommon.obj
 0002:00000568       ??_C@_0BC@NJGFAHLO@?$CDTS?5?9?5Invalid?5TSS?$AA@ 0000000000003148     SecPeiCpuExceptionHandlerLib:CpuExceptionCommon.obj
 0002:00000580       ??_C@_0BM@LFJODCLN@Coprocessor?5Segment?5Overrun?$AA@ 0000000000003160     SecPeiCpuExceptionHandlerLib:CpuExceptionCommon.obj
 0002:000005a0       ??_C@_0BD@POLKFCFP@?$CDDF?5?9?5Double?5Fault?$AA@ 0000000000003180     SecPeiCpuExceptionHandlerLib:CpuExceptionCommon.obj
 0002:000005b8       ??_C@_0BL@HAMCGOMD@?$CDNM?5?9?5Device?5Not?5Available?$AA@ 0000000000003198     SecPeiCpuExceptionHandlerLib:CpuExceptionCommon.obj
 0002:000005d8       ??_C@_0BF@PAJDEHLF@?$CDUD?5?9?5Invalid?5Opcode?$AA@ 00000000000031b8     SecPeiCpuExceptionHandlerLib:CpuExceptionCommon.obj
 0002:000005f0       ??_C@_0BL@FGFNPPKN@?$CDBR?5?9?5BOUND?5Range?5Exceeded?$AA@ 00000000000031d0     SecPeiCpuExceptionHandlerLib:CpuExceptionCommon.obj
 0002:00000610       ??_C@_0P@BBLCINEF@?$CDOF?5?9?5Overflow?$AA@ 00000000000031f0     SecPeiCpuExceptionHandlerLib:CpuExceptionCommon.obj
 0002:00000620       ??_C@_0BB@ONIBFOGK@?$CDBP?5?9?5Breakpoint?$AA@ 0000000000003200     SecPeiCpuExceptionHandlerLib:CpuExceptionCommon.obj
 0002:00000638       ??_C@_0O@PELAMGDH@NMI?5Interrupt?$AA@ 0000000000003218     SecPeiCpuExceptionHandlerLib:CpuExceptionCommon.obj
 0002:00000648       ??_C@_0M@BENGJJME@?$CDDB?5?9?5Debug?$AA@ 0000000000003228     SecPeiCpuExceptionHandlerLib:CpuExceptionCommon.obj
 0002:00000658       ??_C@_0BD@PANICNEP@?$CDDE?5?9?5Divide?5Error?$AA@ 0000000000003238     SecPeiCpuExceptionHandlerLib:CpuExceptionCommon.obj
 0002:00000670       ??_C@_0BE@EGLGKPAE@?$CB?$CB?$CB?$CB?5Find?5PE?5image?5?$AA@ 0000000000003250     SecPeiCpuExceptionHandlerLib:CpuExceptionCommon.obj
 0002:00000688       ??_C@_0BE@EPFNAPHO@?$CB?$CB?$CB?$CB?5Find?5TE?5image?5?$AA@ 0000000000003268     SecPeiCpuExceptionHandlerLib:CpuExceptionCommon.obj
 0002:0000069c       ??_C@_02ECNOPIAA@?$CFa?$AA@ 000000000000327c     SecPeiCpuExceptionHandlerLib:CpuExceptionCommon.obj
 0002:000006a0       ??_C@_09KCCBLILG@?$CINo?5PDB?$CJ?5?$AA@ 0000000000003280     SecPeiCpuExceptionHandlerLib:CpuExceptionCommon.obj
 0002:000006b0       ??_C@_0CJ@NIJFIMND@?$CB?$CB?$CB?$CB?5Can?8t?5find?5image?5informatio@ 0000000000003290     SecPeiCpuExceptionHandlerLib:CpuExceptionCommon.obj
 0002:000006e0       ??_C@_0BB@MFGDFIJM@Compromised?5Data?$AA@ 00000000000032c0     BasePrintLib:PrintLibInternal.obj
 0002:000006f8       ??_C@_0BB@KFJAMCOC@Invalid?5Language?$AA@ 00000000000032d8     BasePrintLib:PrintLibInternal.obj
 0002:00000710       ??_C@_0M@FKGOBENP@End?5of?5File?$AA@ 00000000000032f0     BasePrintLib:PrintLibInternal.obj
 0002:00000720       ??_C@_0O@GLPDOMCP@Reserved?5?$CI30?$CJ?$AA@ 0000000000003300     BasePrintLib:PrintLibInternal.obj
 0002:00000730       ??_C@_0O@NMJOLAMF@Reserved?5?$CI29?$CJ?$AA@ 0000000000003310     BasePrintLib:PrintLibInternal.obj
 0002:00000740       ??_C@_0N@JEJDHPO@End?5of?5Media?$AA@ 0000000000003320     BasePrintLib:PrintLibInternal.obj
 0002:00000750       ??_C@_09BOMAGJEG@CRC?5Error?$AA@ 0000000000003330     BasePrintLib:PrintLibInternal.obj
 0002:00000760       ??_C@_0BD@KHMPCIOG@Security?5Violation?$AA@ 0000000000003340     BasePrintLib:PrintLibInternal.obj
 0002:00000778       ??_C@_0BF@EHOBGFMI@Incompatible?5Version?$AA@ 0000000000003358     BasePrintLib:PrintLibInternal.obj
 0002:00000790       ??_C@_0P@NCJHBCLM@Protocol?5Error?$AA@ 0000000000003370     BasePrintLib:PrintLibInternal.obj
 0002:000007a0       ??_C@_0L@DJKNJKHM@TFTP?5Error?$AA@ 0000000000003380     BasePrintLib:PrintLibInternal.obj
 0002:000007b0       ??_C@_0L@LKIFCMNO@ICMP?5Error?$AA@ 0000000000003390     BasePrintLib:PrintLibInternal.obj
 0002:000007c0       ??_C@_07LCKDCBKK@Aborted?$AA@ 00000000000033a0     BasePrintLib:PrintLibInternal.obj
 0002:000007c8       ??_C@_0BA@IGIBFFPH@Already?5started?$AA@ 00000000000033a8     BasePrintLib:PrintLibInternal.obj
 0002:000007d8       ??_C@_0M@DCJFAFHJ@Not?5started?$AA@ 00000000000033b8     BasePrintLib:PrintLibInternal.obj
 0002:000007e8       ??_C@_08PAFJCNGP@Time?5out?$AA@ 00000000000033c8     BasePrintLib:PrintLibInternal.obj
 0002:000007f8       ??_C@_0L@IFPBNFC@No?5mapping?$AA@ 00000000000033d8     BasePrintLib:PrintLibInternal.obj
 0002:00000808       ??_C@_0M@ENKCBFEP@No?5Response?$AA@ 00000000000033e8     BasePrintLib:PrintLibInternal.obj
 0002:00000818       ??_C@_0O@NFHOBIDO@Access?5Denied?$AA@ 00000000000033f8     BasePrintLib:PrintLibInternal.obj
 0002:00000828       ??_C@_09CFCBFJND@Not?5Found?$AA@ 0000000000003408     BasePrintLib:PrintLibInternal.obj
 0002:00000838       ??_C@_0O@JNCJKCCD@Media?5changed?$AA@ 0000000000003418     BasePrintLib:PrintLibInternal.obj
 0002:00000848       ??_C@_08KEGAJDNN@No?5Media?$AA@ 0000000000003428     BasePrintLib:PrintLibInternal.obj
 0002:00000858       ??_C@_0M@HDLEPOFA@Volume?5Full?$AA@ 0000000000003438     BasePrintLib:PrintLibInternal.obj
 0002:00000868       ??_C@_0P@EIOJGIF@Volume?5Corrupt?$AA@ 0000000000003448     BasePrintLib:PrintLibInternal.obj
 0002:00000878       ??_C@_0BB@GOILNEAA@Out?5of?5Resources?$AA@ 0000000000003458     BasePrintLib:PrintLibInternal.obj
 0002:00000890       ??_C@_0BA@LNEDDFNB@Write?5Protected?$AA@ 0000000000003470     BasePrintLib:PrintLibInternal.obj
 0002:000008a0       ??_C@_0N@HHEABDHO@Device?5Error?$AA@ 0000000000003480     BasePrintLib:PrintLibInternal.obj
 0002:000008b0       ??_C@_09NKFGCIPN@Not?5Ready?$AA@ 0000000000003490     BasePrintLib:PrintLibInternal.obj
 0002:000008c0       ??_C@_0BB@EGELJFOB@Buffer?5Too?5Small?$AA@ 00000000000034a0     BasePrintLib:PrintLibInternal.obj
 0002:000008d8       ??_C@_0BA@FLNMPMCF@Bad?5Buffer?5Size?$AA@ 00000000000034b8     BasePrintLib:PrintLibInternal.obj
 0002:000008e8       ??_C@_0M@BEECMOIL@Unsupported?$AA@ 00000000000034c8     BasePrintLib:PrintLibInternal.obj
 0002:000008f8       ??_C@_0BC@HOFHKGJN@Invalid?5Parameter?$AA@ 00000000000034d8     BasePrintLib:PrintLibInternal.obj
 0002:00000910       ??_C@_0L@PLPBEPPC@Load?5Error?$AA@ 00000000000034f0     BasePrintLib:PrintLibInternal.obj
 0002:00000920       ??_C@_0BD@IFJNJCCO@Warning?5Stale?5Data?$AA@ 0000000000003500     BasePrintLib:PrintLibInternal.obj
 0002:00000938       ??_C@_0BJ@ODIPDGHB@Warning?5Buffer?5Too?5Small?$AA@ 0000000000003518     BasePrintLib:PrintLibInternal.obj
 0002:00000958       ??_C@_0BG@ECIJMOED@Warning?5Write?5Failure?$AA@ 0000000000003538     BasePrintLib:PrintLibInternal.obj
 0002:00000970       ??_C@_0BH@GKKCJEPJ@Warning?5Delete?5Failure?$AA@ 0000000000003550     BasePrintLib:PrintLibInternal.obj
 0002:00000988       ??_C@_0BG@CFJMNNJK@Warning?5Unknown?5Glyph?$AA@ 0000000000003568     BasePrintLib:PrintLibInternal.obj
 0002:000009a0       ??_C@_07PBILKAFL@Success?$AA@ 0000000000003580     BasePrintLib:PrintLibInternal.obj
 0002:000009a8       mHexStr                    0000000000003588     BasePrintLib:PrintLibInternal.obj
 0002:000009c0       mStatusString              00000000000035a0     BasePrintLib:PrintLibInternal.obj
 0002:00000af8       ??_C@_0O@MLOLIMFM@?$DMnull?5string?$DO?$AA@ 00000000000036d8     BasePrintLib:PrintLibInternal.obj
 0002:00000b08       ??_C@_0M@BJJDNPHK@?$DMnull?5guid?$DO?$AA@ 00000000000036e8     BasePrintLib:PrintLibInternal.obj
 0002:00000b18       ??_C@_0DB@PMLHLBMO@?$CF08x?9?$CF04x?9?$CF04x?9?$CF02x?$CF02x?9?$CF02x?$CF02x@ 00000000000036f8     BasePrintLib:PrintLibInternal.obj
 0002:00000b50       ??_C@_0M@LHGBCIKM@?$DMnull?5time?$DO?$AA@ 0000000000003730     BasePrintLib:PrintLibInternal.obj
 0002:00000b60       ??_C@_0BK@FCPKCIDD@?$CF02d?1?$CF02d?1?$CF04d?5?5?$CF02d?3?$CF02d?$AA@ 0000000000003740     BasePrintLib:PrintLibInternal.obj
 0002:00000b7c       ??_C@_04JIMNDDED@?$CF08X?$AA@ 000000000000375c     BasePrintLib:PrintLibInternal.obj
 0002:00000b84       ??_C@_02PCIJFNDE@?$AN?6?$AA@ 0000000000003764     BasePrintLib:PrintLibInternal.obj
 0002:00000b88       ??_C@_01LIIJDEN@?$AN?$AA@  0000000000003768     BasePrintLib:PrintLibInternal.obj

 entry point at        0001:00000174

 Static symbols

